---
triple:          'arm64-apple-darwin'
binary-path:     test1
relocations:
  - { offsetInCU: 0x4C, offset: 0x4C, size: 0x8, addend: 0x0, symName: __ZN30GestorUsuario_AltaUsuario_Test10test_info_E, symObjAddr: 0x489F0, symBinAddr: 0x100070008, symSize: 0x0 }
  - { offsetInCU: 0xA421, offset: 0xA421, size: 0x8, addend: 0x0, symName: __ZNSt3__124__put_character_sequenceB7v160006IcNS_11char_traitsIcEEEERNS_13basic_ostreamIT_T0_EES7_PKS4_m, symObjAddr: 0x27C4, symBinAddr: 0x10000690C, symSize: 0x1EC }
  - { offsetInCU: 0xCB4D, offset: 0xCB4D, size: 0x8, addend: 0x0, symName: __ZNSt3__1plB7v160006IcNS_11char_traitsIcEENS_9allocatorIcEEEENS_12basic_stringIT_T0_T1_EEPKS6_OS9_, symObjAddr: 0x918, symBinAddr: 0x100004A60, symSize: 0x44 }
  - { offsetInCU: 0xD3B8, offset: 0xD3B8, size: 0x8, addend: 0x0, symName: __ZNSt3__17getlineB7v160006IcNS_11char_traitsIcEENS_9allocatorIcEEEERNS_13basic_istreamIT_T0_EES9_RNS_12basic_stringIS6_S7_T1_EES6_, symObjAddr: 0x158C, symBinAddr: 0x1000056D4, symSize: 0x238 }
  - { offsetInCU: 0xD476, offset: 0xD476, size: 0x8, addend: 0x0, symName: __ZNSt3__1eqB7v160006IcNS_11char_traitsIcEENS_9allocatorIcEEEEbRKNS_12basic_stringIT_T0_T1_EEPKS6_, symObjAddr: 0x17F0, symBinAddr: 0x100005938, symSize: 0xAC }
  - { offsetInCU: 0xD4DD, offset: 0xD4DD, size: 0x8, addend: 0x0, symName: __ZNSt3__1lsB7v160006IcNS_11char_traitsIcEENS_9allocatorIcEEEERNS_13basic_ostreamIT_T0_EES9_RKNS_12basic_stringIS6_S7_T1_EE, symObjAddr: 0x1934, symBinAddr: 0x100005A7C, symSize: 0x4C }
  - { offsetInCU: 0xD535, offset: 0xD535, size: 0x8, addend: 0x0, symName: __ZNSt3__1lsB7v160006INS_11char_traitsIcEEEERNS_13basic_ostreamIcT_EES6_PKc, symObjAddr: 0x1980, symBinAddr: 0x100005AC8, symSize: 0x48 }
  - { offsetInCU: 0xD57B, offset: 0xD57B, size: 0x8, addend: 0x0, symName: __ZNSt3__14endlB7v160006IcNS_11char_traitsIcEEEERNS_13basic_ostreamIT_T0_EES7_, symObjAddr: 0x19F4, symBinAddr: 0x100005B3C, symSize: 0x58 }
  - { offsetInCU: 0xD5C6, offset: 0xD5C6, size: 0x8, addend: 0x0, symName: __ZNSt3__119__debug_db_insert_cB7v160006INS_12basic_stringIcNS_11char_traitsIcEENS_9allocatorIcEEEEEEvPT_, symObjAddr: 0x1B54, symBinAddr: 0x100005C9C, symSize: 0x10 }
  - { offsetInCU: 0xD5F7, offset: 0xD5F7, size: 0x8, addend: 0x0, symName: __ZNSt3__119__debug_db_insert_cB7v160006INS_4listI7UsuarioNS_9allocatorIS2_EEEEEEvPT_, symObjAddr: 0x1D24, symBinAddr: 0x100005E6C, symSize: 0x10 }
  - { offsetInCU: 0xD65B, offset: 0xD65B, size: 0x8, addend: 0x0, symName: __ZNSt3__125__debug_db_invalidate_allB7v160006INS_12basic_stringIcNS_11char_traitsIcEENS_9allocatorIcEEEEEEvPT_, symObjAddr: 0x2414, symBinAddr: 0x10000655C, symSize: 0x10 }
  - { offsetInCU: 0xD8C1, offset: 0xD8C1, size: 0x8, addend: 0x0, symName: __ZNSt3__118__constexpr_strlenB7v160006EPKc, symObjAddr: 0x27A0, symBinAddr: 0x1000068E8, symSize: 0x24 }
  - { offsetInCU: 0xD8ED, offset: 0xD8ED, size: 0x8, addend: 0x0, symName: __ZNSt3__116__pad_and_outputB7v160006IcNS_11char_traitsIcEEEENS_19ostreambuf_iteratorIT_T0_EES6_PKS4_S8_S8_RNS_8ios_baseES4_, symObjAddr: 0x29F4, symBinAddr: 0x100006B3C, symSize: 0x240 }
  - { offsetInCU: 0xD9BC, offset: 0xD9BC, size: 0x8, addend: 0x0, symName: __ZNSt3__19use_facetB7v160006INS_5ctypeIcEEEERKT_RKNS_6localeE, symObjAddr: 0x2EF0, symBinAddr: 0x100007038, symSize: 0x2C }
  - { offsetInCU: 0xDE8B, offset: 0xDE8B, size: 0x8, addend: 0x0, symName: __ZNSt3__112__to_addressB7v160006IKcEEPT_S3_, symObjAddr: 0x2F54, symBinAddr: 0x10000709C, symSize: 0x14 }
  - { offsetInCU: 0xDEF3, offset: 0xDEF3, size: 0x8, addend: 0x0, symName: __ZNSt3__118__debug_db_erase_cB7v160006INS_10__list_impI7UsuarioNS_9allocatorIS2_EEEEEEvPT_, symObjAddr: 0x3200, symBinAddr: 0x100007348, symSize: 0x10 }
  - { offsetInCU: 0xDF24, offset: 0xDF24, size: 0x8, addend: 0x0, symName: __ZNSt3__125__debug_db_invalidate_allB7v160006INS_10__list_impI7UsuarioNS_9allocatorIS2_EEEEEEvPT_, symObjAddr: 0x3378, symBinAddr: 0x1000074C0, symSize: 0x10 }
  - { offsetInCU: 0xDF55, offset: 0xDF55, size: 0x8, addend: 0x0, symName: __ZNSt3__119__libcpp_deallocateB7v160006EPvmm, symObjAddr: 0x349C, symBinAddr: 0x1000075E4, symSize: 0x30 }
  - { offsetInCU: 0xDF9D, offset: 0xDF9D, size: 0x8, addend: 0x0, symName: __ZNSt3__127__do_deallocate_handle_sizeB7v160006IJEEEvPvmDpT_, symObjAddr: 0x34CC, symBinAddr: 0x100007614, symSize: 0x28 }
  - { offsetInCU: 0xDFDB, offset: 0xDFDB, size: 0x8, addend: 0x0, symName: __ZNSt3__124__libcpp_operator_deleteB7v160006IJPvEEEvDpT_, symObjAddr: 0x34F4, symBinAddr: 0x10000763C, symSize: 0x24 }
  - { offsetInCU: 0xE010, offset: 0xE010, size: 0x8, addend: 0x0, symName: __ZNSt3__1neB7v160006ERKNS_15__list_iteratorI7UsuarioPvEES5_, symObjAddr: 0x3544, symBinAddr: 0x10000768C, symSize: 0x34 }
  - { offsetInCU: 0xE04D, offset: 0xE04D, size: 0x8, addend: 0x0, symName: __ZNSt3__1eqB7v160006INS_9allocatorIcEEEEbRKNS_12basic_stringIcNS_11char_traitsIcEET_EES9_, symObjAddr: 0x35A4, symBinAddr: 0x1000076EC, symSize: 0x148 }
  - { offsetInCU: 0xE0C0, offset: 0xE0C0, size: 0x8, addend: 0x0, symName: __ZNSt3__1eqB7v160006ERKNS_15__list_iteratorI7UsuarioPvEES5_, symObjAddr: 0x3818, symBinAddr: 0x100007960, symSize: 0x30 }
  - { offsetInCU: 0xE0FD, offset: 0xE0FD, size: 0x8, addend: 0x0, symName: __ZNSt3__118__constexpr_memcmpB7v160006IcEEiPKT_S3_m, symObjAddr: 0x38F0, symBinAddr: 0x100007A38, symSize: 0x34 }
  - { offsetInCU: 0xE19F, offset: 0xE19F, size: 0x8, addend: 0x0, symName: __ZNSt3__117__libcpp_allocateB7v160006Emm, symObjAddr: 0x414C, symBinAddr: 0x100008294, symSize: 0x28 }
  - { offsetInCU: 0xE1DC, offset: 0xE1DC, size: 0x8, addend: 0x0, symName: __ZNSt3__121__libcpp_operator_newB7v160006IJmEEEPvDpT_, symObjAddr: 0x418C, symBinAddr: 0x1000082D4, symSize: 0x24 }
  - { offsetInCU: 0xE38B, offset: 0xE38B, size: 0x8, addend: 0x0, symName: __ZNSt3__115__debug_db_swapB7v160006INS_12basic_stringIcNS_11char_traitsIcEENS_9allocatorIcEEEEEEvPT_S8_, symObjAddr: 0x4D88, symBinAddr: 0x100008ED0, symSize: 0x14 }
  - { offsetInCU: 0xE514, offset: 0xE514, size: 0x8, addend: 0x0, symName: __ZSt28__throw_bad_array_new_lengthB7v160006v, symObjAddr: 0x4118, symBinAddr: 0x100008260, symSize: 0x34 }
  - { offsetInCU: 0x11569, offset: 0x11569, size: 0x8, addend: 0x0, symName: __ZNSt3__112basic_stringIcNS_11char_traitsIcEENS_9allocatorIcEEEC1B7v160006IDnEEPKc, symObjAddr: 0x0, symBinAddr: 0x100004148, symSize: 0x34 }
  - { offsetInCU: 0x115A7, offset: 0x115A7, size: 0x8, addend: 0x0, symName: __ZN7testing8internal12CodeLocationC1ERKNSt3__112basic_stringIcNS2_11char_traitsIcEENS2_9allocatorIcEEEEi, symObjAddr: 0x34, symBinAddr: 0x10000417C, symSize: 0x3C }
  - { offsetInCU: 0x115EF, offset: 0x115EF, size: 0x8, addend: 0x0, symName: __ZN7testing4Test13SetUpTestCaseEv, symObjAddr: 0x70, symBinAddr: 0x1000041B8, symSize: 0x4 }
  - { offsetInCU: 0x11603, offset: 0x11603, size: 0x8, addend: 0x0, symName: __ZN7testing4Test16TearDownTestCaseEv, symObjAddr: 0x74, symBinAddr: 0x1000041BC, symSize: 0x4 }
  - { offsetInCU: 0x1161C, offset: 0x1161C, size: 0x8, addend: 0x0, symName: __ZN7testing8internal15TestFactoryImplI30GestorUsuario_AltaUsuario_TestEC1Ev, symObjAddr: 0x78, symBinAddr: 0x1000041C0, symSize: 0x2C }
  - { offsetInCU: 0x11649, offset: 0x11649, size: 0x8, addend: 0x0, symName: __ZN7testing8internal12CodeLocationD1Ev, symObjAddr: 0xA4, symBinAddr: 0x1000041EC, symSize: 0x2C }
  - { offsetInCU: 0x11676, offset: 0x11676, size: 0x8, addend: 0x0, symName: __ZN30GestorUsuario_AltaUsuario_Test8TestBodyEv, symObjAddr: 0xD0, symBinAddr: 0x100004218, symSize: 0x814 }
  - { offsetInCU: 0x119E6, offset: 0x119E6, size: 0x8, addend: 0x0, symName: __ZN13GestorUsuarioC1ENSt3__112basic_stringIcNS0_11char_traitsIcEENS0_9allocatorIcEEEE, symObjAddr: 0x8E4, symBinAddr: 0x100004A2C, symSize: 0x34 }
  - { offsetInCU: 0x11A1F, offset: 0x11A1F, size: 0x8, addend: 0x0, symName: __ZN13GestorUsuario13existeUsuarioENSt3__112basic_stringIcNS0_11char_traitsIcEENS0_9allocatorIcEEEE, symObjAddr: 0x95C, symBinAddr: 0x100004AA4, symSize: 0xE4 }
  - { offsetInCU: 0x11A7C, offset: 0x11A7C, size: 0x8, addend: 0x0, symName: __ZN7testing15AssertionResultC1IbEERKT_PNS_8internal8EnableIfIXntsr8internal21ImplicitlyConvertibleIS2_S0_EE5valueEE4typeE, symObjAddr: 0xA40, symBinAddr: 0x100004B88, symSize: 0x3C }
  - { offsetInCU: 0x11ACA, offset: 0x11ACA, size: 0x8, addend: 0x0, symName: __ZNK7testing15AssertionResultcvbEv, symObjAddr: 0xA7C, symBinAddr: 0x100004BC4, symSize: 0x1C }
  - { offsetInCU: 0x11AF0, offset: 0x11AF0, size: 0x8, addend: 0x0, symName: __ZNKSt3__112basic_stringIcNS_11char_traitsIcEENS_9allocatorIcEEE5c_strB7v160006Ev, symObjAddr: 0xA98, symBinAddr: 0x100004BE0, symSize: 0x24 }
  - { offsetInCU: 0x11B16, offset: 0x11B16, size: 0x8, addend: 0x0, symName: __ZN7testing7MessageD1Ev, symObjAddr: 0xABC, symBinAddr: 0x100004C04, symSize: 0x2C }
  - { offsetInCU: 0x11B42, offset: 0x11B42, size: 0x8, addend: 0x0, symName: __ZN7testing15AssertionResultD1Ev, symObjAddr: 0xAE8, symBinAddr: 0x100004C30, symSize: 0x2C }
  - { offsetInCU: 0x11B6F, offset: 0x11B6F, size: 0x8, addend: 0x0, symName: __ZN7UsuarioC1Ev, symObjAddr: 0xB14, symBinAddr: 0x100004C5C, symSize: 0x2C }
  - { offsetInCU: 0x11B99, offset: 0x11B99, size: 0x8, addend: 0x0, symName: __ZN7Usuario10setUsuarioERKNSt3__112basic_stringIcNS0_11char_traitsIcEENS0_9allocatorIcEEEE, symObjAddr: 0xB40, symBinAddr: 0x100004C88, symSize: 0x2C }
  - { offsetInCU: 0x11BCD, offset: 0x11BCD, size: 0x8, addend: 0x0, symName: __ZN7Usuario9setNombreERKNSt3__112basic_stringIcNS0_11char_traitsIcEENS0_9allocatorIcEEEE, symObjAddr: 0xB6C, symBinAddr: 0x100004CB4, symSize: 0x30 }
  - { offsetInCU: 0x11C01, offset: 0x11C01, size: 0x8, addend: 0x0, symName: __ZN7Usuario7setPassENSt3__112basic_stringIcNS0_11char_traitsIcEENS0_9allocatorIcEEEE, symObjAddr: 0xB9C, symBinAddr: 0x100004CE4, symSize: 0x30 }
  - { offsetInCU: 0x11C36, offset: 0x11C36, size: 0x8, addend: 0x0, symName: __ZN13GestorUsuario11altaUsuarioE7Usuario, symObjAddr: 0xBCC, symBinAddr: 0x100004D14, symSize: 0xE0 }
  - { offsetInCU: 0x11C6B, offset: 0x11C6B, size: 0x8, addend: 0x0, symName: __ZN7UsuarioC1ERKS_, symObjAddr: 0xCAC, symBinAddr: 0x100004DF4, symSize: 0x34 }
  - { offsetInCU: 0x11CA0, offset: 0x11CA0, size: 0x8, addend: 0x0, symName: __ZN7UsuarioD1Ev, symObjAddr: 0xCE0, symBinAddr: 0x100004E28, symSize: 0x2C }
  - { offsetInCU: 0x11CCC, offset: 0x11CCC, size: 0x8, addend: 0x0, symName: __ZN13GestorUsuarioD1Ev, symObjAddr: 0xD0C, symBinAddr: 0x100004E54, symSize: 0x2C }
  - { offsetInCU: 0x11CF6, offset: 0x11CF6, size: 0x8, addend: 0x0, symName: __ZN30GestorUsuario_AltaUsuario_TestD1Ev, symObjAddr: 0xD38, symBinAddr: 0x100004E80, symSize: 0x2C }
  - { offsetInCU: 0x11D22, offset: 0x11D22, size: 0x8, addend: 0x0, symName: __ZN30GestorUsuario_AltaUsuario_TestD0Ev, symObjAddr: 0xD64, symBinAddr: 0x100004EAC, symSize: 0x30 }
  - { offsetInCU: 0x11D4E, offset: 0x11D4E, size: 0x8, addend: 0x0, symName: __ZN7testing4Test5SetupEv, symObjAddr: 0xD94, symBinAddr: 0x100004EDC, symSize: 0x14 }
  - { offsetInCU: 0x11D74, offset: 0x11D74, size: 0x8, addend: 0x0, symName: __ZN7testing8internal12CodeLocationC2ERKNSt3__112basic_stringIcNS2_11char_traitsIcEENS2_9allocatorIcEEEEi, symObjAddr: 0xDA8, symBinAddr: 0x100004EF0, symSize: 0x40 }
  - { offsetInCU: 0x11DBC, offset: 0x11DBC, size: 0x8, addend: 0x0, symName: __ZN7testing8internal15TestFactoryImplI30GestorUsuario_AltaUsuario_TestEC2Ev, symObjAddr: 0xDE8, symBinAddr: 0x100004F30, symSize: 0x44 }
  - { offsetInCU: 0x11DE9, offset: 0x11DE9, size: 0x8, addend: 0x0, symName: __ZN7testing8internal15TestFactoryBaseC2Ev, symObjAddr: 0xE2C, symBinAddr: 0x100004F74, symSize: 0x24 }
  - { offsetInCU: 0x11E13, offset: 0x11E13, size: 0x8, addend: 0x0, symName: __ZN7testing8internal15TestFactoryImplI30GestorUsuario_AltaUsuario_TestED1Ev, symObjAddr: 0xE50, symBinAddr: 0x100004F98, symSize: 0x2C }
  - { offsetInCU: 0x11E40, offset: 0x11E40, size: 0x8, addend: 0x0, symName: __ZN7testing8internal15TestFactoryImplI30GestorUsuario_AltaUsuario_TestED0Ev, symObjAddr: 0xE7C, symBinAddr: 0x100004FC4, symSize: 0x30 }
  - { offsetInCU: 0x11E6D, offset: 0x11E6D, size: 0x8, addend: 0x0, symName: __ZN7testing8internal15TestFactoryImplI30GestorUsuario_AltaUsuario_TestE10CreateTestEv, symObjAddr: 0xEAC, symBinAddr: 0x100004FF4, symSize: 0x58 }
  - { offsetInCU: 0x11E93, offset: 0x11E93, size: 0x8, addend: 0x0, symName: __ZN7testing8internal15TestFactoryBaseD1Ev, symObjAddr: 0xF04, symBinAddr: 0x10000504C, symSize: 0x14 }
  - { offsetInCU: 0x11EBD, offset: 0x11EBD, size: 0x8, addend: 0x0, symName: __ZN7testing8internal15TestFactoryBaseD0Ev, symObjAddr: 0xF18, symBinAddr: 0x100005060, symSize: 0xC }
  - { offsetInCU: 0x11EE7, offset: 0x11EE7, size: 0x8, addend: 0x0, symName: __ZN7testing8internal15TestFactoryImplI30GestorUsuario_AltaUsuario_TestED2Ev, symObjAddr: 0xF24, symBinAddr: 0x10000506C, symSize: 0x2C }
  - { offsetInCU: 0x11F14, offset: 0x11F14, size: 0x8, addend: 0x0, symName: __ZN7testing8internal15TestFactoryBaseD2Ev, symObjAddr: 0xF50, symBinAddr: 0x100005098, symSize: 0x14 }
  - { offsetInCU: 0x11F3E, offset: 0x11F3E, size: 0x8, addend: 0x0, symName: __ZN30GestorUsuario_AltaUsuario_TestC1Ev, symObjAddr: 0xF64, symBinAddr: 0x1000050AC, symSize: 0x2C }
  - { offsetInCU: 0x11F68, offset: 0x11F68, size: 0x8, addend: 0x0, symName: __ZN30GestorUsuario_AltaUsuario_TestC2Ev, symObjAddr: 0xF90, symBinAddr: 0x1000050D8, symSize: 0x44 }
  - { offsetInCU: 0x11F92, offset: 0x11F92, size: 0x8, addend: 0x0, symName: __ZN7testing8internal12CodeLocationD2Ev, symObjAddr: 0xFD4, symBinAddr: 0x10000511C, symSize: 0x2C }
  - { offsetInCU: 0x11FBF, offset: 0x11FBF, size: 0x8, addend: 0x0, symName: __ZN13GestorUsuarioC2ENSt3__112basic_stringIcNS0_11char_traitsIcEENS0_9allocatorIcEEEE, symObjAddr: 0x1000, symBinAddr: 0x100005148, symSize: 0x39C }
  - { offsetInCU: 0x12036, offset: 0x12036, size: 0x8, addend: 0x0, symName: __ZNSt3__112basic_stringIcNS_11char_traitsIcEENS_9allocatorIcEEEC1B7v160006Ev, symObjAddr: 0x139C, symBinAddr: 0x1000054E4, symSize: 0x2C }
  - { offsetInCU: 0x12060, offset: 0x12060, size: 0x8, addend: 0x0, symName: __ZNSt3__14listI7UsuarioNS_9allocatorIS1_EEEC1B7v160006Ev, symObjAddr: 0x13C8, symBinAddr: 0x100005510, symSize: 0x2C }
  - { offsetInCU: 0x12122, offset: 0x12122, size: 0x8, addend: 0x0, symName: __ZNSt3__114basic_ifstreamIcNS_11char_traitsIcEEEC1ERKNS_12basic_stringIcS2_NS_9allocatorIcEEEEj, symObjAddr: 0x13F4, symBinAddr: 0x10000553C, symSize: 0x16C }
  - { offsetInCU: 0x1216C, offset: 0x1216C, size: 0x8, addend: 0x0, symName: __ZNKSt3__114basic_ifstreamIcNS_11char_traitsIcEEE7is_openEv, symObjAddr: 0x1560, symBinAddr: 0x1000056A8, symSize: 0x2C }
  - { offsetInCU: 0x12194, offset: 0x12194, size: 0x8, addend: 0x0, symName: __ZNKSt3__19basic_iosIcNS_11char_traitsIcEEEcvbB7v160006Ev, symObjAddr: 0x17C4, symBinAddr: 0x10000590C, symSize: 0x2C }
  - { offsetInCU: 0x121BA, offset: 0x121BA, size: 0x8, addend: 0x0, symName: __ZN7Usuario6setRolE8rol_enum, symObjAddr: 0x189C, symBinAddr: 0x1000059E4, symSize: 0x20 }
  - { offsetInCU: 0x121EE, offset: 0x121EE, size: 0x8, addend: 0x0, symName: __ZN7Usuario9setEstadoE19estado_usuario_enum, symObjAddr: 0x18BC, symBinAddr: 0x100005A04, symSize: 0x20 }
  - { offsetInCU: 0x12222, offset: 0x12222, size: 0x8, addend: 0x0, symName: __ZNSt3__114basic_ifstreamIcNS_11char_traitsIcEEE5closeEv, symObjAddr: 0x18DC, symBinAddr: 0x100005A24, symSize: 0x58 }
  - { offsetInCU: 0x1224A, offset: 0x1224A, size: 0x8, addend: 0x0, symName: __ZNSt3__113basic_ostreamIcNS_11char_traitsIcEEElsB7v160006EPFRS3_S4_E, symObjAddr: 0x19C8, symBinAddr: 0x100005B10, symSize: 0x2C }
  - { offsetInCU: 0x12283, offset: 0x12283, size: 0x8, addend: 0x0, symName: __ZNSt3__114basic_ifstreamIcNS_11char_traitsIcEEED1Ev, symObjAddr: 0x1A4C, symBinAddr: 0x100005B94, symSize: 0x40 }
  - { offsetInCU: 0x122B0, offset: 0x122B0, size: 0x8, addend: 0x0, symName: __ZNSt3__14listI7UsuarioNS_9allocatorIS1_EEED1Ev, symObjAddr: 0x1A8C, symBinAddr: 0x100005BD4, symSize: 0x2C }
  - { offsetInCU: 0x122DD, offset: 0x122DD, size: 0x8, addend: 0x0, symName: __ZNSt3__112basic_stringIcNS_11char_traitsIcEENS_9allocatorIcEEEC2B7v160006Ev, symObjAddr: 0x1AB8, symBinAddr: 0x100005C00, symSize: 0x54 }
  - { offsetInCU: 0x1230C, offset: 0x1230C, size: 0x8, addend: 0x0, symName: __ZNSt3__117__compressed_pairINS_12basic_stringIcNS_11char_traitsIcEENS_9allocatorIcEEE5__repES5_EC1B7v160006INS_18__default_init_tagESA_EEOT_OT0_, symObjAddr: 0x1B0C, symBinAddr: 0x100005C54, symSize: 0x3C }
  - { offsetInCU: 0x12364, offset: 0x12364, size: 0x8, addend: 0x0, symName: __ZNSt3__112basic_stringIcNS_11char_traitsIcEENS_9allocatorIcEEE14__default_initB7v160006Ev, symObjAddr: 0x1B64, symBinAddr: 0x100005CAC, symSize: 0x40 }
  - { offsetInCU: 0x1238A, offset: 0x1238A, size: 0x8, addend: 0x0, symName: __ZNSt3__117__compressed_pairINS_12basic_stringIcNS_11char_traitsIcEENS_9allocatorIcEEE5__repES5_EC2B7v160006INS_18__default_init_tagESA_EEOT_OT0_, symObjAddr: 0x1BA4, symBinAddr: 0x100005CEC, symSize: 0x3C }
  - { offsetInCU: 0x123E2, offset: 0x123E2, size: 0x8, addend: 0x0, symName: __ZNSt3__122__compressed_pair_elemINS_12basic_stringIcNS_11char_traitsIcEENS_9allocatorIcEEE5__repELi0ELb0EEC2B7v160006ENS_18__default_init_tagE, symObjAddr: 0x1BE0, symBinAddr: 0x100005D28, symSize: 0x14 }
  - { offsetInCU: 0x12417, offset: 0x12417, size: 0x8, addend: 0x0, symName: __ZNSt3__122__compressed_pair_elemINS_9allocatorIcEELi1ELb1EEC2B7v160006ENS_18__default_init_tagE, symObjAddr: 0x1BF4, symBinAddr: 0x100005D3C, symSize: 0x2C }
  - { offsetInCU: 0x1244C, offset: 0x1244C, size: 0x8, addend: 0x0, symName: __ZNSt3__19allocatorIcEC2B7v160006Ev, symObjAddr: 0x1C20, symBinAddr: 0x100005D68, symSize: 0x2C }
  - { offsetInCU: 0x12476, offset: 0x12476, size: 0x8, addend: 0x0, symName: __ZNSt3__116__non_trivial_ifILb1ENS_9allocatorIcEEEC2B7v160006Ev, symObjAddr: 0x1C4C, symBinAddr: 0x100005D94, symSize: 0x14 }
  - { offsetInCU: 0x124A0, offset: 0x124A0, size: 0x8, addend: 0x0, symName: __ZNSt3__117__compressed_pairINS_12basic_stringIcNS_11char_traitsIcEENS_9allocatorIcEEE5__repES5_E5firstB7v160006Ev, symObjAddr: 0x1C60, symBinAddr: 0x100005DA8, symSize: 0x24 }
  - { offsetInCU: 0x124C6, offset: 0x124C6, size: 0x8, addend: 0x0, symName: __ZNSt3__122__compressed_pair_elemINS_12basic_stringIcNS_11char_traitsIcEENS_9allocatorIcEEE5__repELi0ELb0EE5__getB7v160006Ev, symObjAddr: 0x1C84, symBinAddr: 0x100005DCC, symSize: 0x14 }
  - { offsetInCU: 0x124EC, offset: 0x124EC, size: 0x8, addend: 0x0, symName: __ZNSt3__14listI7UsuarioNS_9allocatorIS1_EEEC2B7v160006Ev, symObjAddr: 0x1C98, symBinAddr: 0x100005DE0, symSize: 0x3C }
  - { offsetInCU: 0x12516, offset: 0x12516, size: 0x8, addend: 0x0, symName: __ZNSt3__110__list_impI7UsuarioNS_9allocatorIS1_EEEC2Ev, symObjAddr: 0x1CD4, symBinAddr: 0x100005E1C, symSize: 0x50 }
  - { offsetInCU: 0x12542, offset: 0x12542, size: 0x8, addend: 0x0, symName: __ZNSt3__116__list_node_baseI7UsuarioPvEC1B7v160006Ev, symObjAddr: 0x1D34, symBinAddr: 0x100005E7C, symSize: 0x2C }
  - { offsetInCU: 0x12571, offset: 0x12571, size: 0x8, addend: 0x0, symName: __ZNSt3__117__compressed_pairImNS_9allocatorINS_11__list_nodeI7UsuarioPvEEEEEC1B7v160006IiNS_18__default_init_tagEEEOT_OT0_, symObjAddr: 0x1D60, symBinAddr: 0x100005EA8, symSize: 0x3C }
  - { offsetInCU: 0x125C9, offset: 0x125C9, size: 0x8, addend: 0x0, symName: __ZNSt3__116__list_node_baseI7UsuarioPvEC2B7v160006Ev, symObjAddr: 0x1D9C, symBinAddr: 0x100005EE4, symSize: 0x4C }
  - { offsetInCU: 0x125F3, offset: 0x125F3, size: 0x8, addend: 0x0, symName: __ZNSt3__126__list_node_pointer_traitsI7UsuarioPvE26__unsafe_link_pointer_castB7v160006EPNS_16__list_node_baseIS1_S2_EE, symObjAddr: 0x1DE8, symBinAddr: 0x100005F30, symSize: 0x14 }
  - { offsetInCU: 0x12617, offset: 0x12617, size: 0x8, addend: 0x0, symName: __ZNSt3__116__list_node_baseI7UsuarioPvE6__selfB7v160006Ev, symObjAddr: 0x1DFC, symBinAddr: 0x100005F44, symSize: 0x24 }
  - { offsetInCU: 0x12642, offset: 0x12642, size: 0x8, addend: 0x0, symName: __ZNSt3__114pointer_traitsIPNS_16__list_node_baseI7UsuarioPvEEE10pointer_toB7v160006ERS4_, symObjAddr: 0x1E20, symBinAddr: 0x100005F68, symSize: 0x14 }
  - { offsetInCU: 0x12665, offset: 0x12665, size: 0x8, addend: 0x0, symName: __ZNSt3__117__compressed_pairImNS_9allocatorINS_11__list_nodeI7UsuarioPvEEEEEC2B7v160006IiNS_18__default_init_tagEEEOT_OT0_, symObjAddr: 0x1E34, symBinAddr: 0x100005F7C, symSize: 0x40 }
  - { offsetInCU: 0x126BD, offset: 0x126BD, size: 0x8, addend: 0x0, symName: __ZNSt3__122__compressed_pair_elemImLi0ELb0EEC2B7v160006IivEEOT_, symObjAddr: 0x1E74, symBinAddr: 0x100005FBC, symSize: 0x24 }
  - { offsetInCU: 0x126FF, offset: 0x126FF, size: 0x8, addend: 0x0, symName: __ZNSt3__122__compressed_pair_elemINS_9allocatorINS_11__list_nodeI7UsuarioPvEEEELi1ELb1EEC2B7v160006ENS_18__default_init_tagE, symObjAddr: 0x1E98, symBinAddr: 0x100005FE0, symSize: 0x2C }
  - { offsetInCU: 0x12734, offset: 0x12734, size: 0x8, addend: 0x0, symName: __ZNSt3__19allocatorINS_11__list_nodeI7UsuarioPvEEEC2B7v160006Ev, symObjAddr: 0x1EC4, symBinAddr: 0x10000600C, symSize: 0x2C }
  - { offsetInCU: 0x1275E, offset: 0x1275E, size: 0x8, addend: 0x0, symName: __ZNSt3__116__non_trivial_ifILb1ENS_9allocatorINS_11__list_nodeI7UsuarioPvEEEEEC2B7v160006Ev, symObjAddr: 0x1EF0, symBinAddr: 0x100006038, symSize: 0x14 }
  - { offsetInCU: 0x12788, offset: 0x12788, size: 0x8, addend: 0x0, symName: __ZNSt3__19basic_iosIcNS_11char_traitsIcEEEC2B7v160006Ev, symObjAddr: 0x1F04, symBinAddr: 0x10000604C, symSize: 0x44 }
  - { offsetInCU: 0x127B2, offset: 0x127B2, size: 0x8, addend: 0x0, symName: __ZNSt3__113basic_istreamIcNS_11char_traitsIcEEEC2B7v160006EPNS_15basic_streambufIcS2_EE, symObjAddr: 0x1F48, symBinAddr: 0x100006090, symSize: 0x64 }
  - { offsetInCU: 0x127F7, offset: 0x127F7, size: 0x8, addend: 0x0, symName: __ZNSt3__113basic_filebufIcNS_11char_traitsIcEEE4openERKNS_12basic_stringIcS2_NS_9allocatorIcEEEEj, symObjAddr: 0x1FAC, symBinAddr: 0x1000060F4, symSize: 0x44 }
  - { offsetInCU: 0x1283B, offset: 0x1283B, size: 0x8, addend: 0x0, symName: __ZNSt3__19basic_iosIcNS_11char_traitsIcEEE8setstateB7v160006Ej, symObjAddr: 0x1FF0, symBinAddr: 0x100006138, symSize: 0x2C }
  - { offsetInCU: 0x12870, offset: 0x12870, size: 0x8, addend: 0x0, symName: __ZNSt3__18ios_baseC2B7v160006Ev, symObjAddr: 0x201C, symBinAddr: 0x100006164, symSize: 0x24 }
  - { offsetInCU: 0x1289A, offset: 0x1289A, size: 0x8, addend: 0x0, symName: __ZNSt3__19basic_iosIcNS_11char_traitsIcEEE4initB7v160006EPNS_15basic_streambufIcS2_EE, symObjAddr: 0x2040, symBinAddr: 0x100006188, symSize: 0x44 }
  - { offsetInCU: 0x128D1, offset: 0x128D1, size: 0x8, addend: 0x0, symName: __ZNSt3__111char_traitsIcE3eofEv, symObjAddr: 0x2084, symBinAddr: 0x1000061CC, symSize: 0x8 }
  - { offsetInCU: 0x128E5, offset: 0x128E5, size: 0x8, addend: 0x0, symName: __ZNSt3__18ios_base8setstateB7v160006Ej, symObjAddr: 0x208C, symBinAddr: 0x1000061D4, symSize: 0x34 }
  - { offsetInCU: 0x1291C, offset: 0x1291C, size: 0x8, addend: 0x0, symName: __ZNKSt3__113basic_filebufIcNS_11char_traitsIcEEE7is_openEv, symObjAddr: 0x20C0, symBinAddr: 0x100006208, symSize: 0x24 }
  - { offsetInCU: 0x12962, offset: 0x12962, size: 0x8, addend: 0x0, symName: __ZNKSt3__113basic_istreamIcNS_11char_traitsIcEEE6sentrycvbB7v160006Ev, symObjAddr: 0x20E4, symBinAddr: 0x10000622C, symSize: 0x1C }
  - { offsetInCU: 0x12988, offset: 0x12988, size: 0x8, addend: 0x0, symName: __ZNSt3__112basic_stringIcNS_11char_traitsIcEENS_9allocatorIcEEE5clearB7v160006Ev, symObjAddr: 0x2100, symBinAddr: 0x100006248, symSize: 0x88 }
  - { offsetInCU: 0x129B0, offset: 0x129B0, size: 0x8, addend: 0x0, symName: __ZNKSt3__19basic_iosIcNS_11char_traitsIcEEE5rdbufB7v160006Ev, symObjAddr: 0x2188, symBinAddr: 0x1000062D0, symSize: 0x24 }
  - { offsetInCU: 0x129D8, offset: 0x129D8, size: 0x8, addend: 0x0, symName: __ZNSt3__115basic_streambufIcNS_11char_traitsIcEEE6sbumpcB7v160006Ev, symObjAddr: 0x21AC, symBinAddr: 0x1000062F4, symSize: 0x78 }
  - { offsetInCU: 0x129FE, offset: 0x129FE, size: 0x8, addend: 0x0, symName: __ZNSt3__111char_traitsIcE11eq_int_typeEii, symObjAddr: 0x2224, symBinAddr: 0x10000636C, symSize: 0x28 }
  - { offsetInCU: 0x12A2F, offset: 0x12A2F, size: 0x8, addend: 0x0, symName: __ZNSt3__111char_traitsIcE12to_char_typeEi, symObjAddr: 0x224C, symBinAddr: 0x100006394, symSize: 0x18 }
  - { offsetInCU: 0x12A52, offset: 0x12A52, size: 0x8, addend: 0x0, symName: __ZNSt3__111char_traitsIcE2eqEcc, symObjAddr: 0x2264, symBinAddr: 0x1000063AC, symSize: 0x28 }
  - { offsetInCU: 0x12A83, offset: 0x12A83, size: 0x8, addend: 0x0, symName: __ZNKSt3__112basic_stringIcNS_11char_traitsIcEENS_9allocatorIcEEE4sizeB7v160006Ev, symObjAddr: 0x228C, symBinAddr: 0x1000063D4, symSize: 0x54 }
  - { offsetInCU: 0x12AA9, offset: 0x12AA9, size: 0x8, addend: 0x0, symName: __ZNKSt3__112basic_stringIcNS_11char_traitsIcEENS_9allocatorIcEEE8max_sizeB7v160006Ev, symObjAddr: 0x22E0, symBinAddr: 0x100006428, symSize: 0xAC }
  - { offsetInCU: 0x12AFC, offset: 0x12AFC, size: 0x8, addend: 0x0, symName: __ZNSt3__18ios_base18__setstate_nothrowB7v160006Ej, symObjAddr: 0x238C, symBinAddr: 0x1000064D4, symSize: 0x64 }
  - { offsetInCU: 0x12B31, offset: 0x12B31, size: 0x8, addend: 0x0, symName: __ZNKSt3__19basic_iosIcNS_11char_traitsIcEEE10exceptionsB7v160006Ev, symObjAddr: 0x23F0, symBinAddr: 0x100006538, symSize: 0x24 }
  - { offsetInCU: 0x12B57, offset: 0x12B57, size: 0x8, addend: 0x0, symName: __ZNKSt3__112basic_stringIcNS_11char_traitsIcEENS_9allocatorIcEEE9__is_longB7v160006Ev, symObjAddr: 0x2424, symBinAddr: 0x10000656C, symSize: 0x38 }
  - { offsetInCU: 0x12B7D, offset: 0x12B7D, size: 0x8, addend: 0x0, symName: __ZNSt3__111char_traitsIcE6assignERcRKc, symObjAddr: 0x245C, symBinAddr: 0x1000065A4, symSize: 0x24 }
  - { offsetInCU: 0x12BAE, offset: 0x12BAE, size: 0x8, addend: 0x0, symName: __ZNSt3__112basic_stringIcNS_11char_traitsIcEENS_9allocatorIcEEE18__get_long_pointerB7v160006Ev, symObjAddr: 0x2480, symBinAddr: 0x1000065C8, symSize: 0x28 }
  - { offsetInCU: 0x12BD4, offset: 0x12BD4, size: 0x8, addend: 0x0, symName: __ZNSt3__112basic_stringIcNS_11char_traitsIcEENS_9allocatorIcEEE15__set_long_sizeB7v160006Em, symObjAddr: 0x24A8, symBinAddr: 0x1000065F0, symSize: 0x38 }
  - { offsetInCU: 0x12C09, offset: 0x12C09, size: 0x8, addend: 0x0, symName: __ZNSt3__112basic_stringIcNS_11char_traitsIcEENS_9allocatorIcEEE19__get_short_pointerB7v160006Ev, symObjAddr: 0x24E0, symBinAddr: 0x100006628, symSize: 0x28 }
  - { offsetInCU: 0x12C2F, offset: 0x12C2F, size: 0x8, addend: 0x0, symName: __ZNSt3__112basic_stringIcNS_11char_traitsIcEENS_9allocatorIcEEE16__set_short_sizeB7v160006Em, symObjAddr: 0x2508, symBinAddr: 0x100006650, symSize: 0x78 }
  - { offsetInCU: 0x12C64, offset: 0x12C64, size: 0x8, addend: 0x0, symName: __ZNKSt3__117__compressed_pairINS_12basic_stringIcNS_11char_traitsIcEENS_9allocatorIcEEE5__repES5_E5firstB7v160006Ev, symObjAddr: 0x2580, symBinAddr: 0x1000066C8, symSize: 0x24 }
  - { offsetInCU: 0x12C8A, offset: 0x12C8A, size: 0x8, addend: 0x0, symName: __ZNKSt3__122__compressed_pair_elemINS_12basic_stringIcNS_11char_traitsIcEENS_9allocatorIcEEE5__repELi0ELb0EE5__getB7v160006Ev, symObjAddr: 0x25A4, symBinAddr: 0x1000066EC, symSize: 0x14 }
  - { offsetInCU: 0x12CB0, offset: 0x12CB0, size: 0x8, addend: 0x0, symName: __ZNSt3__114pointer_traitsIPcE10pointer_toB7v160006ERc, symObjAddr: 0x25B8, symBinAddr: 0x100006700, symSize: 0x14 }
  - { offsetInCU: 0x12CD3, offset: 0x12CD3, size: 0x8, addend: 0x0, symName: __ZNKSt3__18ios_base5rdbufB7v160006Ev, symObjAddr: 0x25CC, symBinAddr: 0x100006714, symSize: 0x18 }
  - { offsetInCU: 0x12CF9, offset: 0x12CF9, size: 0x8, addend: 0x0, symName: __ZNSt3__111char_traitsIcE11to_int_typeEc, symObjAddr: 0x25E4, symBinAddr: 0x10000672C, symSize: 0x14 }
  - { offsetInCU: 0x12D1C, offset: 0x12D1C, size: 0x8, addend: 0x0, symName: __ZNKSt3__112basic_stringIcNS_11char_traitsIcEENS_9allocatorIcEEE15__get_long_sizeB7v160006Ev, symObjAddr: 0x25F8, symBinAddr: 0x100006740, symSize: 0x28 }
  - { offsetInCU: 0x12D42, offset: 0x12D42, size: 0x8, addend: 0x0, symName: __ZNKSt3__112basic_stringIcNS_11char_traitsIcEENS_9allocatorIcEEE16__get_short_sizeB7v160006Ev, symObjAddr: 0x2620, symBinAddr: 0x100006768, symSize: 0x34 }
  - { offsetInCU: 0x12D72, offset: 0x12D72, size: 0x8, addend: 0x0, symName: __ZNSt3__116allocator_traitsINS_9allocatorIcEEE8max_sizeB7v160006IS2_vEEmRKS2_, symObjAddr: 0x2654, symBinAddr: 0x10000679C, symSize: 0x24 }
  - { offsetInCU: 0x12DA0, offset: 0x12DA0, size: 0x8, addend: 0x0, symName: __ZNKSt3__112basic_stringIcNS_11char_traitsIcEENS_9allocatorIcEEE7__allocB7v160006Ev, symObjAddr: 0x2678, symBinAddr: 0x1000067C0, symSize: 0x24 }
  - { offsetInCU: 0x12DC6, offset: 0x12DC6, size: 0x8, addend: 0x0, symName: __ZNSt3__114numeric_limitsImE3maxB7v160006Ev, symObjAddr: 0x269C, symBinAddr: 0x1000067E4, symSize: 0x14 }
  - { offsetInCU: 0x12DDA, offset: 0x12DDA, size: 0x8, addend: 0x0, symName: __ZNKSt3__19allocatorIcE8max_sizeB7v160006Ev, symObjAddr: 0x26B0, symBinAddr: 0x1000067F8, symSize: 0x14 }
  - { offsetInCU: 0x12E00, offset: 0x12E00, size: 0x8, addend: 0x0, symName: __ZNKSt3__117__compressed_pairINS_12basic_stringIcNS_11char_traitsIcEENS_9allocatorIcEEE5__repES5_E6secondB7v160006Ev, symObjAddr: 0x26C4, symBinAddr: 0x10000680C, symSize: 0x24 }
  - { offsetInCU: 0x12E26, offset: 0x12E26, size: 0x8, addend: 0x0, symName: __ZNKSt3__122__compressed_pair_elemINS_9allocatorIcEELi1ELb1EE5__getB7v160006Ev, symObjAddr: 0x26E8, symBinAddr: 0x100006830, symSize: 0x14 }
  - { offsetInCU: 0x12E4C, offset: 0x12E4C, size: 0x8, addend: 0x0, symName: __ZNSt3__123__libcpp_numeric_limitsImLb1EE3maxB7v160006Ev, symObjAddr: 0x26FC, symBinAddr: 0x100006844, symSize: 0x8 }
  - { offsetInCU: 0x12E60, offset: 0x12E60, size: 0x8, addend: 0x0, symName: __ZNKSt3__18ios_base10exceptionsB7v160006Ev, symObjAddr: 0x2704, symBinAddr: 0x10000684C, symSize: 0x18 }
  - { offsetInCU: 0x12E88, offset: 0x12E88, size: 0x8, addend: 0x0, symName: __ZNKSt3__19basic_iosIcNS_11char_traitsIcEEE4failB7v160006Ev, symObjAddr: 0x271C, symBinAddr: 0x100006864, symSize: 0x28 }
  - { offsetInCU: 0x12EAE, offset: 0x12EAE, size: 0x8, addend: 0x0, symName: __ZNKSt3__18ios_base4failB7v160006Ev, symObjAddr: 0x2744, symBinAddr: 0x10000688C, symSize: 0x28 }
  - { offsetInCU: 0x12ED6, offset: 0x12ED6, size: 0x8, addend: 0x0, symName: __ZNSt3__111char_traitsIcE6lengthEPKc, symObjAddr: 0x276C, symBinAddr: 0x1000068B4, symSize: 0x34 }
  - { offsetInCU: 0x12EF9, offset: 0x12EF9, size: 0x8, addend: 0x0, symName: __ZNKSt3__112basic_stringIcNS_11char_traitsIcEENS_9allocatorIcEEE4dataB7v160006Ev, symObjAddr: 0x29B0, symBinAddr: 0x100006AF8, symSize: 0x28 }
  - { offsetInCU: 0x12F3D, offset: 0x12F3D, size: 0x8, addend: 0x0, symName: __ZNKSt3__113basic_ostreamIcNS_11char_traitsIcEEE6sentrycvbB7v160006Ev, symObjAddr: 0x29D8, symBinAddr: 0x100006B20, symSize: 0x1C }
  - { offsetInCU: 0x12F63, offset: 0x12F63, size: 0x8, addend: 0x0, symName: __ZNSt3__119ostreambuf_iteratorIcNS_11char_traitsIcEEEC1B7v160006ERNS_13basic_ostreamIcS2_EE, symObjAddr: 0x2C34, symBinAddr: 0x100006D7C, symSize: 0x34 }
  - { offsetInCU: 0x12F9B, offset: 0x12F9B, size: 0x8, addend: 0x0, symName: __ZNKSt3__18ios_base5flagsB7v160006Ev, symObjAddr: 0x2C68, symBinAddr: 0x100006DB0, symSize: 0x18 }
  - { offsetInCU: 0x12FC3, offset: 0x12FC3, size: 0x8, addend: 0x0, symName: __ZNKSt3__19basic_iosIcNS_11char_traitsIcEEE4fillB7v160006Ev, symObjAddr: 0x2C80, symBinAddr: 0x100006DC8, symSize: 0x64 }
  - { offsetInCU: 0x12FEB, offset: 0x12FEB, size: 0x8, addend: 0x0, symName: __ZNKSt3__119ostreambuf_iteratorIcNS_11char_traitsIcEEE6failedB7v160006Ev, symObjAddr: 0x2CE4, symBinAddr: 0x100006E2C, symSize: 0x24 }
  - { offsetInCU: 0x13011, offset: 0x13011, size: 0x8, addend: 0x0, symName: __ZNKSt3__18ios_base5widthB7v160006Ev, symObjAddr: 0x2D08, symBinAddr: 0x100006E50, symSize: 0x18 }
  - { offsetInCU: 0x13039, offset: 0x13039, size: 0x8, addend: 0x0, symName: __ZNSt3__115basic_streambufIcNS_11char_traitsIcEEE5sputnB7v160006EPKcl, symObjAddr: 0x2D20, symBinAddr: 0x100006E68, symSize: 0x3C }
  - { offsetInCU: 0x1307B, offset: 0x1307B, size: 0x8, addend: 0x0, symName: __ZNSt3__112basic_stringIcNS_11char_traitsIcEENS_9allocatorIcEEEC1B7v160006Emc, symObjAddr: 0x2D5C, symBinAddr: 0x100006EA4, symSize: 0x3C }
  - { offsetInCU: 0x130C3, offset: 0x130C3, size: 0x8, addend: 0x0, symName: __ZNSt3__18ios_base5widthB7v160006El, symObjAddr: 0x2D98, symBinAddr: 0x100006EE0, symSize: 0x2C }
  - { offsetInCU: 0x13109, offset: 0x13109, size: 0x8, addend: 0x0, symName: __ZNSt3__112basic_stringIcNS_11char_traitsIcEENS_9allocatorIcEEEC2B7v160006Emc, symObjAddr: 0x2DC4, symBinAddr: 0x100006F0C, symSize: 0x54 }
  - { offsetInCU: 0x13151, offset: 0x13151, size: 0x8, addend: 0x0, symName: __ZNSt3__119ostreambuf_iteratorIcNS_11char_traitsIcEEEC2B7v160006ERNS_13basic_ostreamIcS2_EE, symObjAddr: 0x2E18, symBinAddr: 0x100006F60, symSize: 0x54 }
  - { offsetInCU: 0x13189, offset: 0x13189, size: 0x8, addend: 0x0, symName: __ZNKSt3__19basic_iosIcNS_11char_traitsIcEEE5widenB7v160006Ec, symObjAddr: 0x2E6C, symBinAddr: 0x100006FB4, symSize: 0x84 }
  - { offsetInCU: 0x131F7, offset: 0x131F7, size: 0x8, addend: 0x0, symName: __ZNKSt3__15ctypeIcE5widenB7v160006Ec, symObjAddr: 0x2F1C, symBinAddr: 0x100007064, symSize: 0x38 }
  - { offsetInCU: 0x1322C, offset: 0x1322C, size: 0x8, addend: 0x0, symName: __ZNKSt3__112basic_stringIcNS_11char_traitsIcEENS_9allocatorIcEEE13__get_pointerB7v160006Ev, symObjAddr: 0x2F68, symBinAddr: 0x1000070B0, symSize: 0x54 }
  - { offsetInCU: 0x13252, offset: 0x13252, size: 0x8, addend: 0x0, symName: __ZNKSt3__112basic_stringIcNS_11char_traitsIcEENS_9allocatorIcEEE18__get_long_pointerB7v160006Ev, symObjAddr: 0x2FBC, symBinAddr: 0x100007104, symSize: 0x28 }
  - { offsetInCU: 0x13278, offset: 0x13278, size: 0x8, addend: 0x0, symName: __ZNKSt3__112basic_stringIcNS_11char_traitsIcEENS_9allocatorIcEEE19__get_short_pointerB7v160006Ev, symObjAddr: 0x2FE4, symBinAddr: 0x10000712C, symSize: 0x28 }
  - { offsetInCU: 0x1329E, offset: 0x1329E, size: 0x8, addend: 0x0, symName: __ZNSt3__114pointer_traitsIPKcE10pointer_toB7v160006ERS1_, symObjAddr: 0x300C, symBinAddr: 0x100007154, symSize: 0x14 }
  - { offsetInCU: 0x132C1, offset: 0x132C1, size: 0x8, addend: 0x0, symName: __ZNSt3__114basic_ifstreamIcNS_11char_traitsIcEEED2Ev, symObjAddr: 0x3020, symBinAddr: 0x100007168, symSize: 0x64 }
  - { offsetInCU: 0x132FB, offset: 0x132FB, size: 0x8, addend: 0x0, symName: __ZTv0_n24_NSt3__114basic_ifstreamIcNS_11char_traitsIcEEED1Ev, symObjAddr: 0x3084, symBinAddr: 0x1000071CC, symSize: 0x28 }
  - { offsetInCU: 0x13312, offset: 0x13312, size: 0x8, addend: 0x0, symName: __ZNSt3__14listI7UsuarioNS_9allocatorIS1_EEED2Ev, symObjAddr: 0x30AC, symBinAddr: 0x1000071F4, symSize: 0x2C }
  - { offsetInCU: 0x1333F, offset: 0x1333F, size: 0x8, addend: 0x0, symName: __ZNSt3__110__list_impI7UsuarioNS_9allocatorIS1_EEED2Ev, symObjAddr: 0x30D8, symBinAddr: 0x100007220, symSize: 0x3C }
  - { offsetInCU: 0x1336B, offset: 0x1336B, size: 0x8, addend: 0x0, symName: __ZNSt3__110__list_impI7UsuarioNS_9allocatorIS1_EEE5clearEv, symObjAddr: 0x3114, symBinAddr: 0x10000725C, symSize: 0xEC }
  - { offsetInCU: 0x133DB, offset: 0x133DB, size: 0x8, addend: 0x0, symName: __ZNKSt3__110__list_impI7UsuarioNS_9allocatorIS1_EEE5emptyB7v160006Ev, symObjAddr: 0x3210, symBinAddr: 0x100007358, symSize: 0x34 }
  - { offsetInCU: 0x13401, offset: 0x13401, size: 0x8, addend: 0x0, symName: __ZNSt3__110__list_impI7UsuarioNS_9allocatorIS1_EEE12__node_allocB7v160006Ev, symObjAddr: 0x3244, symBinAddr: 0x10000738C, symSize: 0x28 }
  - { offsetInCU: 0x13427, offset: 0x13427, size: 0x8, addend: 0x0, symName: __ZNKSt3__110__list_impI7UsuarioNS_9allocatorIS1_EEE13__end_as_linkB7v160006Ev, symObjAddr: 0x326C, symBinAddr: 0x1000073B4, symSize: 0x28 }
  - { offsetInCU: 0x1344D, offset: 0x1344D, size: 0x8, addend: 0x0, symName: __ZNSt3__110__list_impI7UsuarioNS_9allocatorIS1_EEE14__unlink_nodesEPNS_16__list_node_baseIS1_PvEES8_, symObjAddr: 0x3294, symBinAddr: 0x1000073DC, symSize: 0x3C }
  - { offsetInCU: 0x13482, offset: 0x13482, size: 0x8, addend: 0x0, symName: __ZNSt3__110__list_impI7UsuarioNS_9allocatorIS1_EEE4__szB7v160006Ev, symObjAddr: 0x32D0, symBinAddr: 0x100007418, symSize: 0x28 }
  - { offsetInCU: 0x134A8, offset: 0x134A8, size: 0x8, addend: 0x0, symName: __ZNSt3__116__list_node_baseI7UsuarioPvE9__as_nodeB7v160006Ev, symObjAddr: 0x32F8, symBinAddr: 0x100007440, symSize: 0x24 }
  - { offsetInCU: 0x134CE, offset: 0x134CE, size: 0x8, addend: 0x0, symName: __ZNSt3__116allocator_traitsINS_9allocatorINS_11__list_nodeI7UsuarioPvEEEEE7destroyB7v160006IS3_vvEEvRS6_PT_, symObjAddr: 0x331C, symBinAddr: 0x100007464, symSize: 0x28 }
  - { offsetInCU: 0x13509, offset: 0x13509, size: 0x8, addend: 0x0, symName: __ZNSt3__116allocator_traitsINS_9allocatorINS_11__list_nodeI7UsuarioPvEEEEE10deallocateB7v160006ERS6_PS5_m, symObjAddr: 0x3344, symBinAddr: 0x10000748C, symSize: 0x34 }
  - { offsetInCU: 0x1354B, offset: 0x1354B, size: 0x8, addend: 0x0, symName: __ZNKSt3__110__list_impI7UsuarioNS_9allocatorIS1_EEE4__szB7v160006Ev, symObjAddr: 0x3388, symBinAddr: 0x1000074D0, symSize: 0x28 }
  - { offsetInCU: 0x13571, offset: 0x13571, size: 0x8, addend: 0x0, symName: __ZNKSt3__117__compressed_pairImNS_9allocatorINS_11__list_nodeI7UsuarioPvEEEEE5firstB7v160006Ev, symObjAddr: 0x33B0, symBinAddr: 0x1000074F8, symSize: 0x24 }
  - { offsetInCU: 0x13597, offset: 0x13597, size: 0x8, addend: 0x0, symName: __ZNKSt3__122__compressed_pair_elemImLi0ELb0EE5__getB7v160006Ev, symObjAddr: 0x33D4, symBinAddr: 0x10000751C, symSize: 0x14 }
  - { offsetInCU: 0x135BD, offset: 0x135BD, size: 0x8, addend: 0x0, symName: __ZNSt3__117__compressed_pairImNS_9allocatorINS_11__list_nodeI7UsuarioPvEEEEE6secondB7v160006Ev, symObjAddr: 0x33E8, symBinAddr: 0x100007530, symSize: 0x24 }
  - { offsetInCU: 0x135E3, offset: 0x135E3, size: 0x8, addend: 0x0, symName: __ZNSt3__122__compressed_pair_elemINS_9allocatorINS_11__list_nodeI7UsuarioPvEEEELi1ELb1EE5__getB7v160006Ev, symObjAddr: 0x340C, symBinAddr: 0x100007554, symSize: 0x14 }
  - { offsetInCU: 0x13609, offset: 0x13609, size: 0x8, addend: 0x0, symName: __ZNSt3__117__compressed_pairImNS_9allocatorINS_11__list_nodeI7UsuarioPvEEEEE5firstB7v160006Ev, symObjAddr: 0x3420, symBinAddr: 0x100007568, symSize: 0x24 }
  - { offsetInCU: 0x1362F, offset: 0x1362F, size: 0x8, addend: 0x0, symName: __ZNSt3__122__compressed_pair_elemImLi0ELb0EE5__getB7v160006Ev, symObjAddr: 0x3444, symBinAddr: 0x10000758C, symSize: 0x14 }
  - { offsetInCU: 0x13655, offset: 0x13655, size: 0x8, addend: 0x0, symName: __ZNSt3__19allocatorINS_11__list_nodeI7UsuarioPvEEE10deallocateB7v160006EPS4_m, symObjAddr: 0x3458, symBinAddr: 0x1000075A0, symSize: 0x44 }
  - { offsetInCU: 0x13697, offset: 0x13697, size: 0x8, addend: 0x0, symName: __ZNSt3__14listI7UsuarioNS_9allocatorIS1_EEE5beginB7v160006Ev, symObjAddr: 0x3518, symBinAddr: 0x100007660, symSize: 0x2C }
  - { offsetInCU: 0x136BD, offset: 0x136BD, size: 0x8, addend: 0x0, symName: __ZNSt3__14listI7UsuarioNS_9allocatorIS1_EEE3endB7v160006Ev, symObjAddr: 0x3578, symBinAddr: 0x1000076C0, symSize: 0x2C }
  - { offsetInCU: 0x136E3, offset: 0x136E3, size: 0x8, addend: 0x0, symName: __ZNKSt3__115__list_iteratorI7UsuarioPvEptB7v160006Ev, symObjAddr: 0x36EC, symBinAddr: 0x100007834, symSize: 0x30 }
  - { offsetInCU: 0x13709, offset: 0x13709, size: 0x8, addend: 0x0, symName: __ZNK7Usuario10getUsuarioEv, symObjAddr: 0x371C, symBinAddr: 0x100007864, symSize: 0x38 }
  - { offsetInCU: 0x1372F, offset: 0x1372F, size: 0x8, addend: 0x0, symName: __ZNSt3__115__list_iteratorI7UsuarioPvEppB7v160006Ei, symObjAddr: 0x3754, symBinAddr: 0x10000789C, symSize: 0x34 }
  - { offsetInCU: 0x13770, offset: 0x13770, size: 0x8, addend: 0x0, symName: __ZNSt3__110__list_impI7UsuarioNS_9allocatorIS1_EEE5beginB7v160006Ev, symObjAddr: 0x3788, symBinAddr: 0x1000078D0, symSize: 0x30 }
  - { offsetInCU: 0x13796, offset: 0x13796, size: 0x8, addend: 0x0, symName: __ZNSt3__115__list_iteratorI7UsuarioPvEC1B7v160006EPNS_16__list_node_baseIS1_S2_EEPKv, symObjAddr: 0x37B8, symBinAddr: 0x100007900, symSize: 0x3C }
  - { offsetInCU: 0x137DE, offset: 0x137DE, size: 0x8, addend: 0x0, symName: __ZNSt3__115__list_iteratorI7UsuarioPvEC2B7v160006EPNS_16__list_node_baseIS1_S2_EEPKv, symObjAddr: 0x37F4, symBinAddr: 0x10000793C, symSize: 0x24 }
  - { offsetInCU: 0x13826, offset: 0x13826, size: 0x8, addend: 0x0, symName: __ZNSt3__110__list_impI7UsuarioNS_9allocatorIS1_EEE3endB7v160006Ev, symObjAddr: 0x3848, symBinAddr: 0x100007990, symSize: 0x3C }
  - { offsetInCU: 0x1384C, offset: 0x1384C, size: 0x8, addend: 0x0, symName: __ZNSt3__111char_traitsIcE7compareEPKcS3_m, symObjAddr: 0x3884, symBinAddr: 0x1000079CC, symSize: 0x6C }
  - { offsetInCU: 0x1388B, offset: 0x1388B, size: 0x8, addend: 0x0, symName: __ZNSt3__114pointer_traitsIP7UsuarioE10pointer_toB7v160006ERS1_, symObjAddr: 0x3924, symBinAddr: 0x100007A6C, symSize: 0x14 }
  - { offsetInCU: 0x138AE, offset: 0x138AE, size: 0x8, addend: 0x0, symName: __ZNSt3__115__list_iteratorI7UsuarioPvEppB7v160006Ev, symObjAddr: 0x3938, symBinAddr: 0x100007A80, symSize: 0x20 }
  - { offsetInCU: 0x138D4, offset: 0x138D4, size: 0x8, addend: 0x0, symName: __ZN7testing7MessageD2Ev, symObjAddr: 0x3958, symBinAddr: 0x100007AA0, symSize: 0x2C }
  - { offsetInCU: 0x13900, offset: 0x13900, size: 0x8, addend: 0x0, symName: __ZNSt3__110unique_ptrINS_18basic_stringstreamIcNS_11char_traitsIcEENS_9allocatorIcEEEENS_14default_deleteIS6_EEED1B7v160006Ev, symObjAddr: 0x3984, symBinAddr: 0x100007ACC, symSize: 0x2C }
  - { offsetInCU: 0x1392A, offset: 0x1392A, size: 0x8, addend: 0x0, symName: __ZNSt3__110unique_ptrINS_18basic_stringstreamIcNS_11char_traitsIcEENS_9allocatorIcEEEENS_14default_deleteIS6_EEED2B7v160006Ev, symObjAddr: 0x39B0, symBinAddr: 0x100007AF8, symSize: 0x30 }
  - { offsetInCU: 0x13954, offset: 0x13954, size: 0x8, addend: 0x0, symName: __ZNSt3__110unique_ptrINS_18basic_stringstreamIcNS_11char_traitsIcEENS_9allocatorIcEEEENS_14default_deleteIS6_EEE5resetB7v160006EPS6_, symObjAddr: 0x39E0, symBinAddr: 0x100007B28, symSize: 0x78 }
  - { offsetInCU: 0x13998, offset: 0x13998, size: 0x8, addend: 0x0, symName: __ZNSt3__117__compressed_pairIPNS_18basic_stringstreamIcNS_11char_traitsIcEENS_9allocatorIcEEEENS_14default_deleteIS6_EEE5firstB7v160006Ev, symObjAddr: 0x3A58, symBinAddr: 0x100007BA0, symSize: 0x24 }
  - { offsetInCU: 0x139BE, offset: 0x139BE, size: 0x8, addend: 0x0, symName: __ZNSt3__117__compressed_pairIPNS_18basic_stringstreamIcNS_11char_traitsIcEENS_9allocatorIcEEEENS_14default_deleteIS6_EEE6secondB7v160006Ev, symObjAddr: 0x3A7C, symBinAddr: 0x100007BC4, symSize: 0x24 }
  - { offsetInCU: 0x139E4, offset: 0x139E4, size: 0x8, addend: 0x0, symName: __ZNKSt3__114default_deleteINS_18basic_stringstreamIcNS_11char_traitsIcEENS_9allocatorIcEEEEEclB7v160006EPS6_, symObjAddr: 0x3AA0, symBinAddr: 0x100007BE8, symSize: 0x4C }
  - { offsetInCU: 0x13A18, offset: 0x13A18, size: 0x8, addend: 0x0, symName: __ZNSt3__122__compressed_pair_elemIPNS_18basic_stringstreamIcNS_11char_traitsIcEENS_9allocatorIcEEEELi0ELb0EE5__getB7v160006Ev, symObjAddr: 0x3AEC, symBinAddr: 0x100007C34, symSize: 0x14 }
  - { offsetInCU: 0x13A3E, offset: 0x13A3E, size: 0x8, addend: 0x0, symName: __ZNSt3__122__compressed_pair_elemINS_14default_deleteINS_18basic_stringstreamIcNS_11char_traitsIcEENS_9allocatorIcEEEEEELi1ELb1EE5__getB7v160006Ev, symObjAddr: 0x3B00, symBinAddr: 0x100007C48, symSize: 0x14 }
  - { offsetInCU: 0x13A64, offset: 0x13A64, size: 0x8, addend: 0x0, symName: __ZN7testing15AssertionResultD2Ev, symObjAddr: 0x3B14, symBinAddr: 0x100007C5C, symSize: 0x30 }
  - { offsetInCU: 0x13A91, offset: 0x13A91, size: 0x8, addend: 0x0, symName: __ZNSt3__110unique_ptrINS_12basic_stringIcNS_11char_traitsIcEENS_9allocatorIcEEEENS_14default_deleteIS6_EEED1B7v160006Ev, symObjAddr: 0x3B44, symBinAddr: 0x100007C8C, symSize: 0x2C }
  - { offsetInCU: 0x13ABB, offset: 0x13ABB, size: 0x8, addend: 0x0, symName: __ZNSt3__110unique_ptrINS_12basic_stringIcNS_11char_traitsIcEENS_9allocatorIcEEEENS_14default_deleteIS6_EEED2B7v160006Ev, symObjAddr: 0x3B70, symBinAddr: 0x100007CB8, symSize: 0x30 }
  - { offsetInCU: 0x13AE5, offset: 0x13AE5, size: 0x8, addend: 0x0, symName: __ZNSt3__110unique_ptrINS_12basic_stringIcNS_11char_traitsIcEENS_9allocatorIcEEEENS_14default_deleteIS6_EEE5resetB7v160006EPS6_, symObjAddr: 0x3BA0, symBinAddr: 0x100007CE8, symSize: 0x78 }
  - { offsetInCU: 0x13B29, offset: 0x13B29, size: 0x8, addend: 0x0, symName: __ZNSt3__117__compressed_pairIPNS_12basic_stringIcNS_11char_traitsIcEENS_9allocatorIcEEEENS_14default_deleteIS6_EEE5firstB7v160006Ev, symObjAddr: 0x3C18, symBinAddr: 0x100007D60, symSize: 0x24 }
  - { offsetInCU: 0x13B4F, offset: 0x13B4F, size: 0x8, addend: 0x0, symName: __ZNSt3__117__compressed_pairIPNS_12basic_stringIcNS_11char_traitsIcEENS_9allocatorIcEEEENS_14default_deleteIS6_EEE6secondB7v160006Ev, symObjAddr: 0x3C3C, symBinAddr: 0x100007D84, symSize: 0x24 }
  - { offsetInCU: 0x13B75, offset: 0x13B75, size: 0x8, addend: 0x0, symName: __ZNKSt3__114default_deleteINS_12basic_stringIcNS_11char_traitsIcEENS_9allocatorIcEEEEEclB7v160006EPS6_, symObjAddr: 0x3C60, symBinAddr: 0x100007DA8, symSize: 0x4C }
  - { offsetInCU: 0x13BA9, offset: 0x13BA9, size: 0x8, addend: 0x0, symName: __ZNSt3__122__compressed_pair_elemIPNS_12basic_stringIcNS_11char_traitsIcEENS_9allocatorIcEEEELi0ELb0EE5__getB7v160006Ev, symObjAddr: 0x3CAC, symBinAddr: 0x100007DF4, symSize: 0x14 }
  - { offsetInCU: 0x13BCF, offset: 0x13BCF, size: 0x8, addend: 0x0, symName: __ZNSt3__122__compressed_pair_elemINS_14default_deleteINS_12basic_stringIcNS_11char_traitsIcEENS_9allocatorIcEEEEEELi1ELb1EE5__getB7v160006Ev, symObjAddr: 0x3CC0, symBinAddr: 0x100007E08, symSize: 0x14 }
  - { offsetInCU: 0x13BF5, offset: 0x13BF5, size: 0x8, addend: 0x0, symName: __ZN7UsuarioC2Ev, symObjAddr: 0x3CD4, symBinAddr: 0x100007E1C, symSize: 0x44 }
  - { offsetInCU: 0x13C1F, offset: 0x13C1F, size: 0x8, addend: 0x0, symName: __ZNSt3__14listI7UsuarioNS_9allocatorIS1_EEE9push_backERKS1_, symObjAddr: 0x3D18, symBinAddr: 0x100007E60, symSize: 0xF4 }
  - { offsetInCU: 0x13C74, offset: 0x13C74, size: 0x8, addend: 0x0, symName: __ZNSt3__14listI7UsuarioNS_9allocatorIS1_EEE15__allocate_nodeB7v160006ERNS2_INS_11__list_nodeIS1_PvEEEE, symObjAddr: 0x3E0C, symBinAddr: 0x100007F54, symSize: 0x70 }
  - { offsetInCU: 0x13CB8, offset: 0x13CB8, size: 0x8, addend: 0x0, symName: __ZNSt3__116allocator_traitsINS_9allocatorINS_11__list_nodeI7UsuarioPvEEEEE9constructB7v160006IS3_JRKS3_EvEEvRS6_PT_DpOT0_, symObjAddr: 0x3E7C, symBinAddr: 0x100007FC4, symSize: 0x34 }
  - { offsetInCU: 0x13D0F, offset: 0x13D0F, size: 0x8, addend: 0x0, symName: __ZNKSt3__110unique_ptrINS_11__list_nodeI7UsuarioPvEENS_22__allocator_destructorINS_9allocatorIS4_EEEEEptB7v160006Ev, symObjAddr: 0x3EB0, symBinAddr: 0x100007FF8, symSize: 0x28 }
  - { offsetInCU: 0x13D35, offset: 0x13D35, size: 0x8, addend: 0x0, symName: __ZNSt3__14listI7UsuarioNS_9allocatorIS1_EEE20__link_nodes_at_backEPNS_16__list_node_baseIS1_PvEES8_, symObjAddr: 0x3ED8, symBinAddr: 0x100008020, symSize: 0x60 }
  - { offsetInCU: 0x13D7B, offset: 0x13D7B, size: 0x8, addend: 0x0, symName: __ZNKSt3__110unique_ptrINS_11__list_nodeI7UsuarioPvEENS_22__allocator_destructorINS_9allocatorIS4_EEEEE3getB7v160006Ev, symObjAddr: 0x3F38, symBinAddr: 0x100008080, symSize: 0x28 }
  - { offsetInCU: 0x13DA1, offset: 0x13DA1, size: 0x8, addend: 0x0, symName: __ZNSt3__111__list_nodeI7UsuarioPvE9__as_linkB7v160006Ev, symObjAddr: 0x3F60, symBinAddr: 0x1000080A8, symSize: 0x24 }
  - { offsetInCU: 0x13DC7, offset: 0x13DC7, size: 0x8, addend: 0x0, symName: __ZNSt3__110unique_ptrINS_11__list_nodeI7UsuarioPvEENS_22__allocator_destructorINS_9allocatorIS4_EEEEE7releaseB7v160006Ev, symObjAddr: 0x3F84, symBinAddr: 0x1000080CC, symSize: 0x44 }
  - { offsetInCU: 0x13DFC, offset: 0x13DFC, size: 0x8, addend: 0x0, symName: __ZNSt3__110unique_ptrINS_11__list_nodeI7UsuarioPvEENS_22__allocator_destructorINS_9allocatorIS4_EEEEED1B7v160006Ev, symObjAddr: 0x3FC8, symBinAddr: 0x100008110, symSize: 0x2C }
  - { offsetInCU: 0x13E26, offset: 0x13E26, size: 0x8, addend: 0x0, symName: __ZNSt3__116allocator_traitsINS_9allocatorINS_11__list_nodeI7UsuarioPvEEEEE8allocateB7v160006ERS6_m, symObjAddr: 0x3FF4, symBinAddr: 0x10000813C, symSize: 0x2C }
  - { offsetInCU: 0x13E59, offset: 0x13E59, size: 0x8, addend: 0x0, symName: __ZNSt3__122__allocator_destructorINS_9allocatorINS_11__list_nodeI7UsuarioPvEEEEEC1B7v160006ERS6_m, symObjAddr: 0x4020, symBinAddr: 0x100008168, symSize: 0x3C }
  - { offsetInCU: 0x13EA4, offset: 0x13EA4, size: 0x8, addend: 0x0, symName: __ZNSt3__110unique_ptrINS_11__list_nodeI7UsuarioPvEENS_22__allocator_destructorINS_9allocatorIS4_EEEEEC1B7v160006ILb1EvEEPS4_NS_16__dependent_typeINS_27__unique_ptr_deleter_sfinaeIS8_EEXT_EE20__good_rval_ref_typeE, symObjAddr: 0x405C, symBinAddr: 0x1000081A4, symSize: 0x3C }
  - { offsetInCU: 0x13EF5, offset: 0x13EF5, size: 0x8, addend: 0x0, symName: __ZNSt3__19allocatorINS_11__list_nodeI7UsuarioPvEEE8allocateB7v160006Em, symObjAddr: 0x4098, symBinAddr: 0x1000081E0, symSize: 0x5C }
  - { offsetInCU: 0x13F33, offset: 0x13F33, size: 0x8, addend: 0x0, symName: __ZNSt3__116allocator_traitsINS_9allocatorINS_11__list_nodeI7UsuarioPvEEEEE8max_sizeB7v160006IS6_vEEmRKS6_, symObjAddr: 0x40F4, symBinAddr: 0x10000823C, symSize: 0x24 }
  - { offsetInCU: 0x13F61, offset: 0x13F61, size: 0x8, addend: 0x0, symName: __ZNKSt3__19allocatorINS_11__list_nodeI7UsuarioPvEEE8max_sizeB7v160006Ev, symObjAddr: 0x4174, symBinAddr: 0x1000082BC, symSize: 0x18 }
  - { offsetInCU: 0x13F87, offset: 0x13F87, size: 0x8, addend: 0x0, symName: __ZNSt3__122__allocator_destructorINS_9allocatorINS_11__list_nodeI7UsuarioPvEEEEEC2B7v160006ERS6_m, symObjAddr: 0x41B0, symBinAddr: 0x1000082F8, symSize: 0x2C }
  - { offsetInCU: 0x13FCD, offset: 0x13FCD, size: 0x8, addend: 0x0, symName: __ZNSt3__110unique_ptrINS_11__list_nodeI7UsuarioPvEENS_22__allocator_destructorINS_9allocatorIS4_EEEEEC2B7v160006ILb1EvEEPS4_NS_16__dependent_typeINS_27__unique_ptr_deleter_sfinaeIS8_EEXT_EE20__good_rval_ref_typeE, symObjAddr: 0x41DC, symBinAddr: 0x100008324, symSize: 0x48 }
  - { offsetInCU: 0x1401E, offset: 0x1401E, size: 0x8, addend: 0x0, symName: __ZNSt3__117__compressed_pairIPNS_11__list_nodeI7UsuarioPvEENS_22__allocator_destructorINS_9allocatorIS4_EEEEEC1B7v160006IRS5_S9_EEOT_OT0_, symObjAddr: 0x4224, symBinAddr: 0x10000836C, symSize: 0x3C }
  - { offsetInCU: 0x14076, offset: 0x14076, size: 0x8, addend: 0x0, symName: __ZNSt3__117__compressed_pairIPNS_11__list_nodeI7UsuarioPvEENS_22__allocator_destructorINS_9allocatorIS4_EEEEEC2B7v160006IRS5_S9_EEOT_OT0_, symObjAddr: 0x4260, symBinAddr: 0x1000083A8, symSize: 0x48 }
  - { offsetInCU: 0x140CE, offset: 0x140CE, size: 0x8, addend: 0x0, symName: __ZNSt3__122__compressed_pair_elemIPNS_11__list_nodeI7UsuarioPvEELi0ELb0EEC2B7v160006IRS5_vEEOT_, symObjAddr: 0x42A8, symBinAddr: 0x1000083F0, symSize: 0x24 }
  - { offsetInCU: 0x14110, offset: 0x14110, size: 0x8, addend: 0x0, symName: __ZNSt3__122__compressed_pair_elemINS_22__allocator_destructorINS_9allocatorINS_11__list_nodeI7UsuarioPvEEEEEELi1ELb0EEC2B7v160006IS8_vEEOT_, symObjAddr: 0x42CC, symBinAddr: 0x100008414, symSize: 0x24 }
  - { offsetInCU: 0x14152, offset: 0x14152, size: 0x8, addend: 0x0, symName: __ZNSt3__19allocatorINS_11__list_nodeI7UsuarioPvEEE9constructB7v160006IS2_JRKS2_EEEvPT_DpOT0_, symObjAddr: 0x42F0, symBinAddr: 0x100008438, symSize: 0x30 }
  - { offsetInCU: 0x141A8, offset: 0x141A8, size: 0x8, addend: 0x0, symName: __ZNKSt3__117__compressed_pairIPNS_11__list_nodeI7UsuarioPvEENS_22__allocator_destructorINS_9allocatorIS4_EEEEE5firstB7v160006Ev, symObjAddr: 0x4320, symBinAddr: 0x100008468, symSize: 0x24 }
  - { offsetInCU: 0x141CE, offset: 0x141CE, size: 0x8, addend: 0x0, symName: __ZNKSt3__122__compressed_pair_elemIPNS_11__list_nodeI7UsuarioPvEELi0ELb0EE5__getB7v160006Ev, symObjAddr: 0x4344, symBinAddr: 0x10000848C, symSize: 0x14 }
  - { offsetInCU: 0x141F4, offset: 0x141F4, size: 0x8, addend: 0x0, symName: __ZNSt3__117__compressed_pairIPNS_11__list_nodeI7UsuarioPvEENS_22__allocator_destructorINS_9allocatorIS4_EEEEE5firstB7v160006Ev, symObjAddr: 0x4358, symBinAddr: 0x1000084A0, symSize: 0x24 }
  - { offsetInCU: 0x1421A, offset: 0x1421A, size: 0x8, addend: 0x0, symName: __ZNSt3__122__compressed_pair_elemIPNS_11__list_nodeI7UsuarioPvEELi0ELb0EE5__getB7v160006Ev, symObjAddr: 0x437C, symBinAddr: 0x1000084C4, symSize: 0x14 }
  - { offsetInCU: 0x14240, offset: 0x14240, size: 0x8, addend: 0x0, symName: __ZNSt3__110unique_ptrINS_11__list_nodeI7UsuarioPvEENS_22__allocator_destructorINS_9allocatorIS4_EEEEED2B7v160006Ev, symObjAddr: 0x4390, symBinAddr: 0x1000084D8, symSize: 0x30 }
  - { offsetInCU: 0x1426A, offset: 0x1426A, size: 0x8, addend: 0x0, symName: __ZNSt3__110unique_ptrINS_11__list_nodeI7UsuarioPvEENS_22__allocator_destructorINS_9allocatorIS4_EEEEE5resetB7v160006EPS4_, symObjAddr: 0x43C0, symBinAddr: 0x100008508, symSize: 0x78 }
  - { offsetInCU: 0x142AE, offset: 0x142AE, size: 0x8, addend: 0x0, symName: __ZNSt3__117__compressed_pairIPNS_11__list_nodeI7UsuarioPvEENS_22__allocator_destructorINS_9allocatorIS4_EEEEE6secondB7v160006Ev, symObjAddr: 0x4438, symBinAddr: 0x100008580, symSize: 0x28 }
  - { offsetInCU: 0x142D4, offset: 0x142D4, size: 0x8, addend: 0x0, symName: __ZNSt3__122__allocator_destructorINS_9allocatorINS_11__list_nodeI7UsuarioPvEEEEEclB7v160006EPS5_, symObjAddr: 0x4460, symBinAddr: 0x1000085A8, symSize: 0x34 }
  - { offsetInCU: 0x14308, offset: 0x14308, size: 0x8, addend: 0x0, symName: __ZNSt3__122__compressed_pair_elemINS_22__allocator_destructorINS_9allocatorINS_11__list_nodeI7UsuarioPvEEEEEELi1ELb0EE5__getB7v160006Ev, symObjAddr: 0x4494, symBinAddr: 0x1000085DC, symSize: 0x14 }
  - { offsetInCU: 0x1432E, offset: 0x1432E, size: 0x8, addend: 0x0, symName: __ZN7UsuarioC2ERKS_, symObjAddr: 0x44A8, symBinAddr: 0x1000085F0, symSize: 0xB4 }
  - { offsetInCU: 0x14363, offset: 0x14363, size: 0x8, addend: 0x0, symName: __ZN7UsuarioD2Ev, symObjAddr: 0x455C, symBinAddr: 0x1000086A4, symSize: 0x44 }
  - { offsetInCU: 0x1438F, offset: 0x1438F, size: 0x8, addend: 0x0, symName: __ZN13GestorUsuarioD2Ev, symObjAddr: 0x45A0, symBinAddr: 0x1000086E8, symSize: 0x284 }
  - { offsetInCU: 0x14408, offset: 0x14408, size: 0x8, addend: 0x0, symName: __ZNSt3__114basic_ofstreamIcNS_11char_traitsIcEEEC1ERKNS_12basic_stringIcS2_NS_9allocatorIcEEEEj, symObjAddr: 0x4824, symBinAddr: 0x10000896C, symSize: 0x16C }
  - { offsetInCU: 0x14452, offset: 0x14452, size: 0x8, addend: 0x0, symName: __ZNKSt3__114basic_ofstreamIcNS_11char_traitsIcEEE7is_openEv, symObjAddr: 0x4990, symBinAddr: 0x100008AD8, symSize: 0x2C }
  - { offsetInCU: 0x1447A, offset: 0x1447A, size: 0x8, addend: 0x0, symName: __ZNK7Usuario7getPassEv, symObjAddr: 0x49BC, symBinAddr: 0x100008B04, symSize: 0x3C }
  - { offsetInCU: 0x144A0, offset: 0x144A0, size: 0x8, addend: 0x0, symName: __ZNK7Usuario9getNombreEv, symObjAddr: 0x49F8, symBinAddr: 0x100008B40, symSize: 0x3C }
  - { offsetInCU: 0x144C6, offset: 0x144C6, size: 0x8, addend: 0x0, symName: __ZNK7Usuario12getRolCadenaEv, symObjAddr: 0x4A34, symBinAddr: 0x100008B7C, symSize: 0x90 }
  - { offsetInCU: 0x144EC, offset: 0x144EC, size: 0x8, addend: 0x0, symName: __ZNSt3__114basic_ofstreamIcNS_11char_traitsIcEEE5closeEv, symObjAddr: 0x4AC4, symBinAddr: 0x100008C0C, symSize: 0x58 }
  - { offsetInCU: 0x14519, offset: 0x14519, size: 0x8, addend: 0x0, symName: __ZNSt3__114basic_ofstreamIcNS_11char_traitsIcEEED1Ev, symObjAddr: 0x4B1C, symBinAddr: 0x100008C64, symSize: 0x40 }
  - { offsetInCU: 0x14546, offset: 0x14546, size: 0x8, addend: 0x0, symName: __ZNSt3__113basic_ostreamIcNS_11char_traitsIcEEEC2B7v160006EPNS_15basic_streambufIcS2_EE, symObjAddr: 0x4B5C, symBinAddr: 0x100008CA4, symSize: 0x60 }
  - { offsetInCU: 0x1458B, offset: 0x1458B, size: 0x8, addend: 0x0, symName: __ZNSt3__114basic_ofstreamIcNS_11char_traitsIcEEED2Ev, symObjAddr: 0x4BBC, symBinAddr: 0x100008D04, symSize: 0x64 }
  - { offsetInCU: 0x145C5, offset: 0x145C5, size: 0x8, addend: 0x0, symName: __ZTv0_n24_NSt3__114basic_ofstreamIcNS_11char_traitsIcEEED1Ev, symObjAddr: 0x4C20, symBinAddr: 0x100008D68, symSize: 0x28 }
  - { offsetInCU: 0x145DC, offset: 0x145DC, size: 0x8, addend: 0x0, symName: __ZN30GestorUsuario_AltaUsuario_TestD2Ev, symObjAddr: 0x4C48, symBinAddr: 0x100008D90, symSize: 0x2C }
  - { offsetInCU: 0x14608, offset: 0x14608, size: 0x8, addend: 0x0, symName: __ZNSt3__112basic_stringIcNS_11char_traitsIcEENS_9allocatorIcEEEC2B7v160006IDnEEPKc, symObjAddr: 0x4C74, symBinAddr: 0x100008DBC, symSize: 0x60 }
  - { offsetInCU: 0x14646, offset: 0x14646, size: 0x8, addend: 0x0, symName: __ZNSt3__112basic_stringIcNS_11char_traitsIcEENS_9allocatorIcEEEC1B7v160006EOS5_, symObjAddr: 0x4CD4, symBinAddr: 0x100008E1C, symSize: 0x34 }
  - { offsetInCU: 0x1467F, offset: 0x1467F, size: 0x8, addend: 0x0, symName: __ZNSt3__112basic_stringIcNS_11char_traitsIcEENS_9allocatorIcEEEC2B7v160006EOS5_, symObjAddr: 0x4D08, symBinAddr: 0x100008E50, symSize: 0x80 }
  - { offsetInCU: 0x146B8, offset: 0x146B8, size: 0x8, addend: 0x0, symName: __ZN7testing15AssertionResultC2IbEERKT_PNS_8internal8EnableIfIXntsr8internal21ImplicitlyConvertibleIS2_S0_EE5valueEE4typeE, symObjAddr: 0x4D9C, symBinAddr: 0x100008EE4, symSize: 0x48 }
  - { offsetInCU: 0x14706, offset: 0x14706, size: 0x8, addend: 0x0, symName: __ZNSt3__110unique_ptrINS_12basic_stringIcNS_11char_traitsIcEENS_9allocatorIcEEEENS_14default_deleteIS6_EEEC1B7v160006ILb1EvEEv, symObjAddr: 0x4DE4, symBinAddr: 0x100008F2C, symSize: 0x2C }
  - { offsetInCU: 0x1473B, offset: 0x1473B, size: 0x8, addend: 0x0, symName: __ZNSt3__110unique_ptrINS_12basic_stringIcNS_11char_traitsIcEENS_9allocatorIcEEEENS_14default_deleteIS6_EEEC2B7v160006ILb1EvEEv, symObjAddr: 0x4E10, symBinAddr: 0x100008F58, symSize: 0x3C }
  - { offsetInCU: 0x14775, offset: 0x14775, size: 0x8, addend: 0x0, symName: __ZNSt3__117__compressed_pairIPNS_12basic_stringIcNS_11char_traitsIcEENS_9allocatorIcEEEENS_14default_deleteIS6_EEEC1B7v160006INS_16__value_init_tagESC_EEOT_OT0_, symObjAddr: 0x4E4C, symBinAddr: 0x100008F94, symSize: 0x3C }
  - { offsetInCU: 0x147CD, offset: 0x147CD, size: 0x8, addend: 0x0, symName: __ZNSt3__117__compressed_pairIPNS_12basic_stringIcNS_11char_traitsIcEENS_9allocatorIcEEEENS_14default_deleteIS6_EEEC2B7v160006INS_16__value_init_tagESC_EEOT_OT0_, symObjAddr: 0x4E88, symBinAddr: 0x100008FD0, symSize: 0x3C }
  - { offsetInCU: 0x14825, offset: 0x14825, size: 0x8, addend: 0x0, symName: __ZNSt3__122__compressed_pair_elemIPNS_12basic_stringIcNS_11char_traitsIcEENS_9allocatorIcEEEELi0ELb0EEC2B7v160006ENS_16__value_init_tagE, symObjAddr: 0x4EC4, symBinAddr: 0x10000900C, symSize: 0x18 }
  - { offsetInCU: 0x1485A, offset: 0x1485A, size: 0x8, addend: 0x0, symName: __ZNSt3__122__compressed_pair_elemINS_14default_deleteINS_12basic_stringIcNS_11char_traitsIcEENS_9allocatorIcEEEEEELi1ELb1EEC2B7v160006ENS_16__value_init_tagE, symObjAddr: 0x4EDC, symBinAddr: 0x100009024, symSize: 0x14 }
  - { offsetInCU: 0x49, offset: 0x149D6, size: 0x8, addend: 0x0, symName: __ZN7testing8internal17kStackTraceMarkerE, symObjAddr: 0x5B7E0, symBinAddr: 0x100067060, symSize: 0x0 }
  - { offsetInCU: 0x63, offset: 0x149F0, size: 0x8, addend: 0x0, symName: __ZN7testing8internal11g_help_flagE, symObjAddr: 0x23E1C0, symBinAddr: 0x100070010, symSize: 0x0 }
  - { offsetInCU: 0xB9, offset: 0x14A46, size: 0x8, addend: 0x0, symName: __ZN7testing8internalL7g_argvsE, symObjAddr: 0x23E2C0, symBinAddr: 0x100070110, symSize: 0x0 }
  - { offsetInCU: 0xD4, offset: 0x14A61, size: 0x8, addend: 0x0, symName: __ZN7testing8internal23kTestTypeIdInGoogleTestE, symObjAddr: 0x23E268, symBinAddr: 0x1000700B8, symSize: 0x0 }
  - { offsetInCU: 0x12B, offset: 0x14AB8, size: 0x8, addend: 0x0, symName: __ZN7testing8internal13ColoredPrintfENS0_10GTestColorEPKcz, symObjAddr: 0xF5C4, symBinAddr: 0x1000184CC, symSize: 0x180 }
  - { offsetInCU: 0x152, offset: 0x14ADF, size: 0x8, addend: 0x0, symName: __ZZN7testing8internal13ColoredPrintfENS0_10GTestColorEPKczE13in_color_mode, symObjAddr: 0x23E2D8, symBinAddr: 0x100070128, symSize: 0x0 }
  - { offsetInCU: 0x1A1, offset: 0x14B2E, size: 0x8, addend: 0x0, symName: __ZN7testing8internal27OsStackTraceGetterInterface19kElidedFramesMarkerE, symObjAddr: 0x5F340, symBinAddr: 0x10006D9F0, symSize: 0x0 }
  - { offsetInCU: 0x1D6F, offset: 0x166FC, size: 0x8, addend: 0x0, symName: __ZN7testing8internal35FLAGS_gtest_internal_run_death_testE, symObjAddr: 0x23E270, symBinAddr: 0x1000700C0, symSize: 0x0 }
  - { offsetInCU: 0x1D83, offset: 0x16710, size: 0x8, addend: 0x0, symName: __ZN7testing8internal9DeathTest24last_death_test_message_E, symObjAddr: 0x23E2A8, symBinAddr: 0x1000700F8, symSize: 0x0 }
  - { offsetInCU: 0x1DED, offset: 0x1677A, size: 0x8, addend: 0x0, symName: __ZN7testing8internalL15kTypeParamLabelE, symObjAddr: 0x5B826, symBinAddr: 0x1000670A6, symSize: 0x0 }
  - { offsetInCU: 0x1E17, offset: 0x167A4, size: 0x8, addend: 0x0, symName: __ZN7testing8internalL16kValueParamLabelE, symObjAddr: 0x5B8A8, symBinAddr: 0x100067128, symSize: 0x0 }
  - { offsetInCU: 0x1E31, offset: 0x167BE, size: 0x8, addend: 0x0, symName: __ZN7testing8internalL26g_in_fast_death_test_childE, symObjAddr: 0x23E350, symBinAddr: 0x1000701A0, symSize: 0x0 }
  - { offsetInCU: 0x1E59, offset: 0x167E6, size: 0x8, addend: 0x0, symName: __ZN7testing8internalL11kFilterFlagE, symObjAddr: 0x5B8F3, symBinAddr: 0x100067173, symSize: 0x0 }
  - { offsetInCU: 0x1E73, offset: 0x16800, size: 0x8, addend: 0x0, symName: __ZN7testing8internalL25kInternalRunDeathTestFlagE, symObjAddr: 0x5B8FA, symBinAddr: 0x10006717A, symSize: 0x0 }
  - { offsetInCU: 0x1E8D, offset: 0x1681A, size: 0x8, addend: 0x0, symName: __ZN7testing8internalL23kCurrentDirectoryStringE, symObjAddr: 0x5B912, symBinAddr: 0x100067192, symSize: 0x0 }
  - { offsetInCU: 0x1EA8, offset: 0x16835, size: 0x8, addend: 0x0, symName: __ZN7testing8internalL12kUnknownFileE, symObjAddr: 0x5B915, symBinAddr: 0x100067195, symSize: 0x0 }
  - { offsetInCU: 0x1EC3, offset: 0x16850, size: 0x8, addend: 0x0, symName: __ZN7testing8internalL17g_captured_stdoutE, symObjAddr: 0x23E358, symBinAddr: 0x1000701A8, symSize: 0x0 }
  - { offsetInCU: 0x1F74, offset: 0x16901, size: 0x8, addend: 0x0, symName: __ZN7testing8internalL17g_captured_stderrE, symObjAddr: 0x23E360, symBinAddr: 0x1000701B0, symSize: 0x0 }
  - { offsetInCU: 0x1F8F, offset: 0x1691C, size: 0x8, addend: 0x0, symName: __ZN7testing8internalL21g_injected_test_argvsE, symObjAddr: 0x23E368, symBinAddr: 0x1000701B8, symSize: 0x0 }
  - { offsetInCU: 0x1FA3, offset: 0x16930, size: 0x8, addend: 0x0, symName: __ZN7testing8internal12TypeIdHelperINS_4TestEE6dummy_E, symObjAddr: 0x5FF88, symBinAddr: 0x100070000, symSize: 0x0 }
  - { offsetInCU: 0x1FDD, offset: 0x1696A, size: 0x8, addend: 0x0, symName: __ZN7testing8internalL25kAlsoRunDisabledTestsFlagE, symObjAddr: 0x5CA72, symBinAddr: 0x1000682F2, symSize: 0x0 }
  - { offsetInCU: 0x1FF7, offset: 0x16984, size: 0x8, addend: 0x0, symName: __ZN7testing8internalL19kBreakOnFailureFlagE, symObjAddr: 0x5CA8A, symBinAddr: 0x10006830A, symSize: 0x0 }
  - { offsetInCU: 0x2011, offset: 0x1699E, size: 0x8, addend: 0x0, symName: __ZN7testing8internalL20kCatchExceptionsFlagE, symObjAddr: 0x5CA9B, symBinAddr: 0x10006831B, symSize: 0x0 }
  - { offsetInCU: 0x202B, offset: 0x169B8, size: 0x8, addend: 0x0, symName: __ZN7testing8internalL10kColorFlagE, symObjAddr: 0x5CAAC, symBinAddr: 0x10006832C, symSize: 0x0 }
  - { offsetInCU: 0x2045, offset: 0x169D2, size: 0x8, addend: 0x0, symName: __ZN7testing8internalL19kDeathTestStyleFlagE, symObjAddr: 0x5CAB2, symBinAddr: 0x100068332, symSize: 0x0 }
  - { offsetInCU: 0x205F, offset: 0x169EC, size: 0x8, addend: 0x0, symName: __ZN7testing8internalL17kDeathTestUseForkE, symObjAddr: 0x5CAC3, symBinAddr: 0x100068343, symSize: 0x0 }
  - { offsetInCU: 0x2079, offset: 0x16A06, size: 0x8, addend: 0x0, symName: __ZN7testing8internalL14kListTestsFlagE, symObjAddr: 0x5CAD7, symBinAddr: 0x100068357, symSize: 0x0 }
  - { offsetInCU: 0x2093, offset: 0x16A20, size: 0x8, addend: 0x0, symName: __ZN7testing8internalL11kOutputFlagE, symObjAddr: 0x5CAE2, symBinAddr: 0x100068362, symSize: 0x0 }
  - { offsetInCU: 0x20AD, offset: 0x16A3A, size: 0x8, addend: 0x0, symName: __ZN7testing8internalL14kPrintTimeFlagE, symObjAddr: 0x5CAE9, symBinAddr: 0x100068369, symSize: 0x0 }
  - { offsetInCU: 0x20C7, offset: 0x16A54, size: 0x8, addend: 0x0, symName: __ZN7testing8internalL14kPrintUTF8FlagE, symObjAddr: 0x5CAF4, symBinAddr: 0x100068374, symSize: 0x0 }
  - { offsetInCU: 0x20E1, offset: 0x16A6E, size: 0x8, addend: 0x0, symName: __ZN7testing8internalL15kRandomSeedFlagE, symObjAddr: 0x5CAFF, symBinAddr: 0x10006837F, symSize: 0x0 }
  - { offsetInCU: 0x20FB, offset: 0x16A88, size: 0x8, addend: 0x0, symName: __ZN7testing8internalL11kRepeatFlagE, symObjAddr: 0x5CB0B, symBinAddr: 0x10006838B, symSize: 0x0 }
  - { offsetInCU: 0x2115, offset: 0x16AA2, size: 0x8, addend: 0x0, symName: __ZN7testing8internalL12kShuffleFlagE, symObjAddr: 0x5CB12, symBinAddr: 0x100068392, symSize: 0x0 }
  - { offsetInCU: 0x212F, offset: 0x16ABC, size: 0x8, addend: 0x0, symName: __ZN7testing8internalL20kStackTraceDepthFlagE, symObjAddr: 0x5CB1A, symBinAddr: 0x10006839A, symSize: 0x0 }
  - { offsetInCU: 0x2149, offset: 0x16AD6, size: 0x8, addend: 0x0, symName: __ZN7testing8internalL19kStreamResultToFlagE, symObjAddr: 0x5CB2C, symBinAddr: 0x1000683AC, symSize: 0x0 }
  - { offsetInCU: 0x2163, offset: 0x16AF0, size: 0x8, addend: 0x0, symName: __ZN7testing8internalL19kThrowOnFailureFlagE, symObjAddr: 0x5CB3D, symBinAddr: 0x1000683BD, symSize: 0x0 }
  - { offsetInCU: 0x217D, offset: 0x16B0A, size: 0x8, addend: 0x0, symName: __ZN7testing8internalL13kFlagfileFlagE, symObjAddr: 0x5C0E6, symBinAddr: 0x100067966, symSize: 0x0 }
  - { offsetInCU: 0x2198, offset: 0x16B25, size: 0x8, addend: 0x0, symName: __ZN7testing8internalL24kColorEncodedHelpMessageE, symObjAddr: 0x5C0EF, symBinAddr: 0x10006796F, symSize: 0x0 }
  - { offsetInCU: 0x21F6, offset: 0x16B83, size: 0x8, addend: 0x0, symName: __ZN7testing8internal13edit_distance21CalculateOptimalEditsERKNSt3__16vectorImNS2_9allocatorImEEEES8_, symObjAddr: 0x4F74, symBinAddr: 0x10000DF38, symSize: 0x69C }
  - { offsetInCU: 0x2362, offset: 0x16CEF, size: 0x8, addend: 0x0, symName: __ZN7testing8internal13edit_distance21CalculateOptimalEditsERKNSt3__16vectorINS2_12basic_stringIcNS2_11char_traitsIcEENS2_9allocatorIcEEEENS7_IS9_EEEESD_, symObjAddr: 0x5A10, symBinAddr: 0x10000E9D4, symSize: 0x1A0 }
  - { offsetInCU: 0x2583, offset: 0x16F10, size: 0x8, addend: 0x0, symName: __ZN7testing8internal13edit_distance17CreateUnifiedDiffERKNSt3__16vectorINS2_12basic_stringIcNS2_11char_traitsIcEENS2_9allocatorIcEEEENS7_IS9_EEEESD_m, symObjAddr: 0x5DD0, symBinAddr: 0x10000ED94, symSize: 0x574 }
  - { offsetInCU: 0x3506, offset: 0x17E93, size: 0x8, addend: 0x0, symName: __ZN7testing8internal15GetUnitTestImplEv, symObjAddr: 0x29C8, symBinAddr: 0x10000BA74, symSize: 0x18 }
  - { offsetInCU: 0x3525, offset: 0x17EB2, size: 0x8, addend: 0x0, symName: __ZN7testing8internal16BoolFromGTestEnvEPKcb, symObjAddr: 0x0, symBinAddr: 0x100009178, symSize: 0xD4 }
  - { offsetInCU: 0x3580, offset: 0x17F0D, size: 0x8, addend: 0x0, symName: __ZN7testing8internal18StringFromGTestEnvEPKcS2_, symObjAddr: 0xD4, symBinAddr: 0x10000924C, symSize: 0xAC }
  - { offsetInCU: 0x35DB, offset: 0x17F68, size: 0x8, addend: 0x0, symName: __ZN7testing8internal25OutputFlagAlsoCheckEnvVarEv, symObjAddr: 0x210, symBinAddr: 0x100009354, symSize: 0x128 }
  - { offsetInCU: 0x3619, offset: 0x17FA6, size: 0x8, addend: 0x0, symName: __ZN7testing8internal17Int32FromGTestEnvEPKci, symObjAddr: 0x35C, symBinAddr: 0x10000947C, symSize: 0x1F8 }
  - { offsetInCU: 0x3684, offset: 0x18011, size: 0x8, addend: 0x0, symName: __ZN7testing8internal6IsTrueEb, symObjAddr: 0x778, symBinAddr: 0x100009898, symSize: 0x20 }
  - { offsetInCU: 0x385C, offset: 0x181E9, size: 0x8, addend: 0x0, symName: __ZN7testing8internal17AppendUserMessageERKNSt3__112basic_stringIcNS1_11char_traitsIcEENS1_9allocatorIcEEEERKNS_7MessageE, symObjAddr: 0x1008, symBinAddr: 0x10000A0E0, symSize: 0xE8 }
  - { offsetInCU: 0x38A8, offset: 0x18235, size: 0x8, addend: 0x0, symName: __ZN7testing8internal8GetArgvsEv, symObjAddr: 0x11B0, symBinAddr: 0x10000A288, symSize: 0x30 }
  - { offsetInCU: 0x38C7, offset: 0x18254, size: 0x8, addend: 0x0, symName: __ZN7testing8internal24GetCurrentExecutableNameEv, symObjAddr: 0x1214, symBinAddr: 0x10000A2EC, symSize: 0xE0 }
  - { offsetInCU: 0x3976, offset: 0x18303, size: 0x8, addend: 0x0, symName: __ZN7testing8internal13GetTestTypeIdEv, symObjAddr: 0x2C44, symBinAddr: 0x10000BCE4, symSize: 0x14 }
  - { offsetInCU: 0x3995, offset: 0x18322, size: 0x8, addend: 0x0, symName: __ZN7testing8internal9GetTypeIdINS_4TestEEEPKvv, symObjAddr: 0x2C58, symBinAddr: 0x10000BCF8, symSize: 0xC }
  - { offsetInCU: 0x3A3E, offset: 0x183CB, size: 0x8, addend: 0x0, symName: __ZN7testing8internalL13HasOneFailureEPKcS2_S2_RKNS_19TestPartResultArrayENS_14TestPartResult4TypeERKNSt3__112basic_stringIcNS8_11char_traitsIcEENS8_9allocatorIcEEEE, symObjAddr: 0x2DF0, symBinAddr: 0x10000BE90, symSize: 0x488 }
  - { offsetInCU: 0x3B64, offset: 0x184F1, size: 0x8, addend: 0x0, symName: __ZN7testing8internal7CountIfINSt3__16vectorIPNS_8TestCaseENS2_9allocatorIS5_EEEEPFbPKS4_EEEiRKT_T0_, symObjAddr: 0x36D4, symBinAddr: 0x10000C700, symSize: 0x9C }
  - { offsetInCU: 0x3BE0, offset: 0x1856D, size: 0x8, addend: 0x0, symName: __ZN7testing8internalL14TestCasePassedEPKNS_8TestCaseE, symObjAddr: 0x3770, symBinAddr: 0x10000C79C, symSize: 0x4C }
  - { offsetInCU: 0x3C0F, offset: 0x1859C, size: 0x8, addend: 0x0, symName: __ZN7testing8internalL14TestCaseFailedEPKNS_8TestCaseE, symObjAddr: 0x37EC, symBinAddr: 0x10000C818, symSize: 0x4C }
  - { offsetInCU: 0x3C3E, offset: 0x185CB, size: 0x8, addend: 0x0, symName: __ZN7testing8internalL17ShouldRunTestCaseEPKNS_8TestCaseE, symObjAddr: 0x38B8, symBinAddr: 0x10000C8E4, symSize: 0x28 }
  - { offsetInCU: 0x3C6D, offset: 0x185FA, size: 0x8, addend: 0x0, symName: __ZN7testing8internalL19SumOverTestCaseListERKNSt3__16vectorIPNS_8TestCaseENS1_9allocatorIS4_EEEEMS3_KFivE, symObjAddr: 0x3920, symBinAddr: 0x10000C94C, symSize: 0xEC }
  - { offsetInCU: 0x3CD8, offset: 0x18665, size: 0x8, addend: 0x0, symName: __ZN7testing8internal15GetTimeInMillisEv, symObjAddr: 0x3DCC, symBinAddr: 0x10000CDF8, symSize: 0x40 }
  - { offsetInCU: 0x3E12, offset: 0x1879F, size: 0x8, addend: 0x0, symName: __ZN7testing8internal11SplitStringERKNSt3__112basic_stringIcNS1_11char_traitsIcEENS1_9allocatorIcEEEEcPNS1_6vectorIS7_NS5_IS7_EEEE, symObjAddr: 0x3EB0, symBinAddr: 0x10000CEDC, symSize: 0x160 }
  - { offsetInCU: 0x3E8E, offset: 0x1881B, size: 0x8, addend: 0x0, symName: __ZN7testing8internal10AlwaysTrueEv, symObjAddr: 0x4010, symBinAddr: 0x10000D03C, symSize: 0x44 }
  - { offsetInCU: 0x3EB2, offset: 0x1883F, size: 0x8, addend: 0x0, symName: __ZN7testing8internalL24StreamWideCharsToMessageEPKwmPNS_7MessageE, symObjAddr: 0x4660, symBinAddr: 0x10000D660, symSize: 0x14C }
  - { offsetInCU: 0x3F10, offset: 0x1889D, size: 0x8, addend: 0x0, symName: __ZN7testing8internal20StringStreamToStringEPNSt3__118basic_stringstreamIcNS1_11char_traitsIcEENS1_9allocatorIcEEEE, symObjAddr: 0x4828, symBinAddr: 0x10000D828, symSize: 0x17C }
  - { offsetInCU: 0x3F91, offset: 0x1891E, size: 0x8, addend: 0x0, symName: __ZN7testing8internal9EqFailureEPKcS2_RKNSt3__112basic_stringIcNS3_11char_traitsIcEENS3_9allocatorIcEEEESB_b, symObjAddr: 0x68C4, symBinAddr: 0x10000F888, symSize: 0x2E8 }
  - { offsetInCU: 0x4032, offset: 0x189BF, size: 0x8, addend: 0x0, symName: __ZN7testing8internal12_GLOBAL__N_118SplitEscapedStringERKNSt3__112basic_stringIcNS2_11char_traitsIcEENS2_9allocatorIcEEEE, symObjAddr: 0x6D4C, symBinAddr: 0x10000FD10, symSize: 0x260 }
  - { offsetInCU: 0x40BC, offset: 0x18A49, size: 0x8, addend: 0x0, symName: __ZN7testing8internal12_GLOBAL__N_122ConditionalPrintAsTextEPKcmPNSt3__113basic_ostreamIcNS4_11char_traitsIcEEEE, symObjAddr: 0x25530, symBinAddr: 0x10002E28C, symSize: 0x74 }
  - { offsetInCU: 0x4105, offset: 0x18A92, size: 0x8, addend: 0x0, symName: __ZN7testing8internal12_GLOBAL__N_131ContainsUnprintableControlCodesEPKcm, symObjAddr: 0x333D8, symBinAddr: 0x10003B29C, symSize: 0xF0 }
  - { offsetInCU: 0x418E, offset: 0x18B1B, size: 0x8, addend: 0x0, symName: __ZN7testing8internal12_GLOBAL__N_111IsValidUTF8EPKcm, symObjAddr: 0x334C8, symBinAddr: 0x10003B38C, symSize: 0x330 }
  - { offsetInCU: 0x4217, offset: 0x18BA4, size: 0x8, addend: 0x0, symName: __ZN7testing8internal12_GLOBAL__N_115IsUTF8TrailByteEh, symObjAddr: 0x338D0, symBinAddr: 0x10003B794, symSize: 0x4C }
  - { offsetInCU: 0x4247, offset: 0x18BD4, size: 0x8, addend: 0x0, symName: __ZN7testing8internal30GetBoolAssertionFailureMessageERKNS_15AssertionResultEPKcS5_S5_, symObjAddr: 0x6FE8, symBinAddr: 0x10000FFAC, symSize: 0x158 }
  - { offsetInCU: 0x42C0, offset: 0x18C4D, size: 0x8, addend: 0x0, symName: __ZN7testing8internal20DoubleNearPredFormatEPKcS2_S2_ddd, symObjAddr: 0x7298, symBinAddr: 0x10001025C, symSize: 0x28C }
  - { offsetInCU: 0x434A, offset: 0x18CD7, size: 0x8, addend: 0x0, symName: __ZN7testing8internal15FloatingPointLEIfEENS_15AssertionResultEPKcS4_T_S5_, symObjAddr: 0x7B14, symBinAddr: 0x100010AD8, symSize: 0x304 }
  - { offsetInCU: 0x43EC, offset: 0x18D79, size: 0x8, addend: 0x0, symName: __ZN7testing8internal15FloatingPointLEIdEENS_15AssertionResultEPKcS4_T_S5_, symObjAddr: 0x7E5C, symBinAddr: 0x100010E20, symSize: 0x304 }
  - { offsetInCU: 0x448F, offset: 0x18E1C, size: 0x8, addend: 0x0, symName: __ZN7testing8internal11CmpHelperEQEPKcS2_xx, symObjAddr: 0x8160, symBinAddr: 0x100011124, symSize: 0x104 }
  - { offsetInCU: 0x44EA, offset: 0x18E77, size: 0x8, addend: 0x0, symName: __ZN7testing8internal33FormatForComparisonFailureMessageIxxEENSt3__112basic_stringIcNS2_11char_traitsIcEENS2_9allocatorIcEEEERKT_RKT0_, symObjAddr: 0x8264, symBinAddr: 0x100011228, symSize: 0x30 }
  - { offsetInCU: 0x4536, offset: 0x18EC3, size: 0x8, addend: 0x0, symName: __ZN7testing8internal11CmpHelperNEEPKcS2_xx, symObjAddr: 0x8294, symBinAddr: 0x100011258, symSize: 0x1BC }
  - { offsetInCU: 0x4591, offset: 0x18F1E, size: 0x8, addend: 0x0, symName: __ZN7testing8internal11CmpHelperLEEPKcS2_xx, symObjAddr: 0x84D4, symBinAddr: 0x100011498, symSize: 0x1BC }
  - { offsetInCU: 0x45EC, offset: 0x18F79, size: 0x8, addend: 0x0, symName: __ZN7testing8internal11CmpHelperLTEPKcS2_xx, symObjAddr: 0x8690, symBinAddr: 0x100011654, symSize: 0x1BC }
  - { offsetInCU: 0x4647, offset: 0x18FD4, size: 0x8, addend: 0x0, symName: __ZN7testing8internal11CmpHelperGEEPKcS2_xx, symObjAddr: 0x884C, symBinAddr: 0x100011810, symSize: 0x1BC }
  - { offsetInCU: 0x46A2, offset: 0x1902F, size: 0x8, addend: 0x0, symName: __ZN7testing8internal11CmpHelperGTEPKcS2_xx, symObjAddr: 0x8A08, symBinAddr: 0x1000119CC, symSize: 0x1BC }
  - { offsetInCU: 0x46FD, offset: 0x1908A, size: 0x8, addend: 0x0, symName: __ZN7testing8internal14CmpHelperSTREQEPKcS2_S2_S2_, symObjAddr: 0x8BC4, symBinAddr: 0x100011B88, symSize: 0xF0 }
  - { offsetInCU: 0x4758, offset: 0x190E5, size: 0x8, addend: 0x0, symName: __ZN7testing8internal18CmpHelperSTRCASEEQEPKcS2_S2_S2_, symObjAddr: 0x8D80, symBinAddr: 0x100011D44, symSize: 0xF0 }
  - { offsetInCU: 0x47B3, offset: 0x19140, size: 0x8, addend: 0x0, symName: __ZN7testing8internal14CmpHelperSTRNEEPKcS2_S2_S2_, symObjAddr: 0x8F14, symBinAddr: 0x100011ED8, symSize: 0x160 }
  - { offsetInCU: 0x480E, offset: 0x1919B, size: 0x8, addend: 0x0, symName: __ZN7testing8internal18CmpHelperSTRCASENEEPKcS2_S2_S2_, symObjAddr: 0x90F8, symBinAddr: 0x1000120BC, symSize: 0x160 }
  - { offsetInCU: 0x4869, offset: 0x191F6, size: 0x8, addend: 0x0, symName: __ZN7testing8internal15CodePointToUtf8Ej, symObjAddr: 0x9EC4, symBinAddr: 0x100012E88, symSize: 0x228 }
  - { offsetInCU: 0x48A6, offset: 0x19233, size: 0x8, addend: 0x0, symName: __ZN7testing8internal11ChopLowBitsEPji, symObjAddr: 0xA1E4, symBinAddr: 0x100013164, symSize: 0x4C }
  - { offsetInCU: 0x48F2, offset: 0x1927F, size: 0x8, addend: 0x0, symName: __ZN7testing8internal16WideStringToUtf8EPKwi, symObjAddr: 0xA230, symBinAddr: 0x1000131B0, symSize: 0x1E4 }
  - { offsetInCU: 0x4974, offset: 0x19301, size: 0x8, addend: 0x0, symName: __ZN7testing8internal20IsUtf16SurrogatePairEww, symObjAddr: 0xA414, symBinAddr: 0x100013394, symSize: 0x1C }
  - { offsetInCU: 0x49B1, offset: 0x1933E, size: 0x8, addend: 0x0, symName: __ZN7testing8internal37CreateCodePointFromUtf16SurrogatePairEww, symObjAddr: 0xA430, symBinAddr: 0x1000133B0, symSize: 0x20 }
  - { offsetInCU: 0x49FD, offset: 0x1938A, size: 0x8, addend: 0x0, symName: __ZN7testing8internal14CmpHelperSTREQEPKcS2_PKwS4_, symObjAddr: 0xA540, symBinAddr: 0x100013474, symSize: 0xF0 }
  - { offsetInCU: 0x4A58, offset: 0x193E5, size: 0x8, addend: 0x0, symName: __ZN7testing8internal14CmpHelperSTRNEEPKcS2_PKwS4_, symObjAddr: 0xA6FC, symBinAddr: 0x100013630, symSize: 0x1B0 }
  - { offsetInCU: 0x4AB8, offset: 0x19445, size: 0x8, addend: 0x0, symName: __ZN7testing8internal5posix10StrCaseCmpEPKcS3_, symObjAddr: 0xA8AC, symBinAddr: 0x1000137E0, symSize: 0x2C }
  - { offsetInCU: 0x4AF5, offset: 0x19482, size: 0x8, addend: 0x0, symName: __ZN7testing8internal5posix5AbortEv, symObjAddr: 0xB150, symBinAddr: 0x100014084, symSize: 0xC }
  - { offsetInCU: 0x4B10, offset: 0x1949D, size: 0x8, addend: 0x0, symName: __ZN7testing8internal5posix6GetEnvEPKc, symObjAddr: 0xF5A0, symBinAddr: 0x1000184A8, symSize: 0x24 }
  - { offsetInCU: 0x4B3E, offset: 0x194CB, size: 0x8, addend: 0x0, symName: __ZN7testing8internal5posix6IsATTYEi, symObjAddr: 0xF744, symBinAddr: 0x10001864C, symSize: 0x24 }
  - { offsetInCU: 0x4B6C, offset: 0x194F9, size: 0x8, addend: 0x0, symName: __ZN7testing8internal5posix6FileNoEP7__sFILE, symObjAddr: 0xF768, symBinAddr: 0x100018670, symSize: 0x24 }
  - { offsetInCU: 0x4B9A, offset: 0x19527, size: 0x8, addend: 0x0, symName: __ZN7testing8internal5posix5FOpenEPKcS3_, symObjAddr: 0x1C6B8, symBinAddr: 0x1000254C0, symSize: 0x2C }
  - { offsetInCU: 0x4BD7, offset: 0x19564, size: 0x8, addend: 0x0, symName: __ZN7testing8internal5posix8StrErrorEi, symObjAddr: 0x1E1C0, symBinAddr: 0x100026FC8, symSize: 0x24 }
  - { offsetInCU: 0x4C05, offset: 0x19592, size: 0x8, addend: 0x0, symName: __ZN7testing8internal5posix4ReadEiPvj, symObjAddr: 0x1E99C, symBinAddr: 0x1000277A4, symSize: 0x38 }
  - { offsetInCU: 0x4C51, offset: 0x195DE, size: 0x8, addend: 0x0, symName: __ZN7testing8internal5posix5CloseEi, symObjAddr: 0x1ECE0, symBinAddr: 0x100027AE8, symSize: 0x24 }
  - { offsetInCU: 0x4C7F, offset: 0x1960C, size: 0x8, addend: 0x0, symName: __ZN7testing8internal5posix5WriteEiPKvj, symObjAddr: 0x1F084, symBinAddr: 0x100027E8C, symSize: 0x38 }
  - { offsetInCU: 0x4CCB, offset: 0x19658, size: 0x8, addend: 0x0, symName: __ZN7testing8internal5posix4StatEPKcP4stat, symObjAddr: 0x22F64, symBinAddr: 0x10002BD6C, symSize: 0x2C }
  - { offsetInCU: 0x4D08, offset: 0x19695, size: 0x8, addend: 0x0, symName: __ZN7testing8internal5posix5IsDirERK4stat, symObjAddr: 0x23008, symBinAddr: 0x10002BE10, symSize: 0x28 }
  - { offsetInCU: 0x4D36, offset: 0x196C3, size: 0x8, addend: 0x0, symName: __ZN7testing8internal5posix6StrDupEPKc, symObjAddr: 0x23F78, symBinAddr: 0x10002CD80, symSize: 0x24 }
  - { offsetInCU: 0x4D64, offset: 0x196F1, size: 0x8, addend: 0x0, symName: __ZN7testing8internal5posix6FDOpenEiPKc, symObjAddr: 0x2F048, symBinAddr: 0x100036F0C, symSize: 0x2C }
  - { offsetInCU: 0x4DA1, offset: 0x1972E, size: 0x8, addend: 0x0, symName: __ZN7testing8internal5posix6FCloseEP7__sFILE, symObjAddr: 0x33214, symBinAddr: 0x10003B0D8, symSize: 0x24 }
  - { offsetInCU: 0x4DDC, offset: 0x19769, size: 0x8, addend: 0x0, symName: __ZN7testing8internal7CountIfINSt3__16vectorINS_14TestPartResultENS2_9allocatorIS4_EEEEPFbRKS4_EEEiRKT_T0_, symObjAddr: 0xBDE0, symBinAddr: 0x100014D14, symSize: 0x98 }
  - { offsetInCU: 0x4E58, offset: 0x197E5, size: 0x8, addend: 0x0, symName: __ZN7testing8internal30ReportFailureInUnknownLocationENS_14TestPartResult4TypeERKNSt3__112basic_stringIcNS3_11char_traitsIcEENS3_9allocatorIcEEEE, symObjAddr: 0xC374, symBinAddr: 0x1000152A8, symSize: 0x94 }
  - { offsetInCU: 0x4E91, offset: 0x1981E, size: 0x8, addend: 0x0, symName: __ZN7testing8internalL27PrintTestPartResultToStringERKNS_14TestPartResultE, symObjAddr: 0xCCD8, symBinAddr: 0x100015C0C, symSize: 0x150 }
  - { offsetInCU: 0x4EC0, offset: 0x1984D, size: 0x8, addend: 0x0, symName: __ZN7testing8internal35HandleExceptionsInMethodIfSupportedINS_4TestEvEET0_PT_MS4_FS3_vEPKc, symObjAddr: 0xCF6C, symBinAddr: 0x100015EA0, symSize: 0x264 }
  - { offsetInCU: 0x4F44, offset: 0x198D1, size: 0x8, addend: 0x0, symName: __ZN7testing8internal23MakeAndRegisterTestInfoEPKcS2_S2_S2_NS0_12CodeLocationEPKvPFvvES7_PNS0_15TestFactoryBaseE, symObjAddr: 0xD6D0, symBinAddr: 0x1000165D8, symSize: 0x1AC }
  - { offsetInCU: 0x4FFC, offset: 0x19989, size: 0x8, addend: 0x0, symName: __ZN7testing8internal25ReportInvalidTestCaseTypeEPKcNS0_12CodeLocationE, symObjAddr: 0xD9D8, symBinAddr: 0x1000168E0, symSize: 0x26C }
  - { offsetInCU: 0x5045, offset: 0x199D2, size: 0x8, addend: 0x0, symName: __ZN7testing8internal18FormatFileLocationEPKci, symObjAddr: 0xDCBC, symBinAddr: 0x100016BC4, symSize: 0x190 }
  - { offsetInCU: 0x5091, offset: 0x19A1E, size: 0x8, addend: 0x0, symName: __ZN7testing8internal35HandleExceptionsInMethodIfSupportedINS0_15TestFactoryBaseEPNS_4TestEEET0_PT_MS6_FS5_vEPKc, symObjAddr: 0xE0C0, symBinAddr: 0x100016FC8, symSize: 0x27C }
  - { offsetInCU: 0x511D, offset: 0x19AAA, size: 0x8, addend: 0x0, symName: __ZN7testing8internal7CountIfINSt3__16vectorIPNS_8TestInfoENS2_9allocatorIS5_EEEEPFbPKS4_EEEiRKT_T0_, symObjAddr: 0xE3A4, symBinAddr: 0x1000172AC, symSize: 0x9C }
  - { offsetInCU: 0x5199, offset: 0x19B26, size: 0x8, addend: 0x0, symName: __ZN7testing8internal7ForEachINSt3__16vectorIPNS_8TestInfoENS2_9allocatorIS5_EEEEPFvS5_EEEvRKT_T0_, symObjAddr: 0xE944, symBinAddr: 0x10001784C, symSize: 0x48 }
  - { offsetInCU: 0x51E4, offset: 0x19B71, size: 0x8, addend: 0x0, symName: __ZN7testing8internalL6DeleteINS_8TestInfoEEEvPT_, symObjAddr: 0xE98C, symBinAddr: 0x100017894, symSize: 0x48 }
  - { offsetInCU: 0x5218, offset: 0x19BA5, size: 0x8, addend: 0x0, symName: __ZN7testing8internal12GetElementOrIiEET_RKNSt3__16vectorIS2_NS3_9allocatorIS2_EEEEiS2_, symObjAddr: 0xEAAC, symBinAddr: 0x1000179B4, symSize: 0x88 }
  - { offsetInCU: 0x526D, offset: 0x19BFA, size: 0x8, addend: 0x0, symName: __ZN7testing8internal35HandleExceptionsInMethodIfSupportedINS_8TestCaseEvEET0_PT_MS4_FS3_vEPKc, symObjAddr: 0xEED4, symBinAddr: 0x100017DDC, symSize: 0x264 }
  - { offsetInCU: 0x52F1, offset: 0x19C7E, size: 0x8, addend: 0x0, symName: __ZN7testing8internal7ShuffleIiEEvPNS0_6RandomEPNSt3__16vectorIT_NS4_9allocatorIS6_EEEE, symObjAddr: 0xF220, symBinAddr: 0x100018128, symSize: 0x48 }
  - { offsetInCU: 0x5333, offset: 0x19CC0, size: 0x8, addend: 0x0, symName: __ZN7testing8internal14ShouldUseColorEb, symObjAddr: 0xF314, symBinAddr: 0x10001821C, symSize: 0x28C }
  - { offsetInCU: 0x539D, offset: 0x19D2A, size: 0x8, addend: 0x0, symName: __ZN7testing8internalL16GetAnsiColorCodeENS0_10GTestColorE, symObjAddr: 0xF78C, symBinAddr: 0x100018694, symSize: 0x8C }
  - { offsetInCU: 0x55EB, offset: 0x19F78, size: 0x8, addend: 0x0, symName: __ZN7testing8internal11ShouldShardEPKcS2_b, symObjAddr: 0xFA50, symBinAddr: 0x100018958, symSize: 0x650 }
  - { offsetInCU: 0x56A8, offset: 0x1A035, size: 0x8, addend: 0x0, symName: __ZN7testing8internal17Int32FromEnvOrDieEPKci, symObjAddr: 0x100A0, symBinAddr: 0x100018FA8, symSize: 0xE8 }
  - { offsetInCU: 0x5703, offset: 0x1A090, size: 0x8, addend: 0x0, symName: __ZN7testing8internalL19PrintTestPartResultERKNS_14TestPartResultE, symObjAddr: 0x106AC, symBinAddr: 0x1000195B4, symSize: 0x90 }
  - { offsetInCU: 0x573D, offset: 0x1A0CA, size: 0x8, addend: 0x0, symName: __ZN7testing8internalL29PrintFullTestCommentIfPresentERKNS_8TestInfoE, symObjAddr: 0x10910, symBinAddr: 0x100019818, symSize: 0x108 }
  - { offsetInCU: 0x5786, offset: 0x1A113, size: 0x8, addend: 0x0, symName: __ZN7testing8internal18StreamableToStringIxEENSt3__112basic_stringIcNS2_11char_traitsIcEENS2_9allocatorIcEEEERKT_, symObjAddr: 0x10A18, symBinAddr: 0x100019920, symSize: 0x7C }
  - { offsetInCU: 0x57BB, offset: 0x1A148, size: 0x8, addend: 0x0, symName: __ZN7testing8internal7ForEachINSt3__16vectorIPNS_17TestEventListenerENS2_9allocatorIS5_EEEEPFvS5_EEEvRKT_T0_, symObjAddr: 0x11580, symBinAddr: 0x10001A488, symSize: 0x48 }
  - { offsetInCU: 0x5806, offset: 0x1A193, size: 0x8, addend: 0x0, symName: __ZN7testing8internalL6DeleteINS_17TestEventListenerEEEvPT_, symObjAddr: 0x115C8, symBinAddr: 0x10001A4D0, symSize: 0x48 }
  - { offsetInCU: 0x583A, offset: 0x1A1C7, size: 0x8, addend: 0x0, symName: __ZN7testing8internalL18OpenFileForWritingERKNSt3__112basic_stringIcNS1_11char_traitsIcEENS1_9allocatorIcEEEE, symObjAddr: 0x124F0, symBinAddr: 0x10001B3F8, symSize: 0x178 }
  - { offsetInCU: 0x5895, offset: 0x1A222, size: 0x8, addend: 0x0, symName: __ZN7testing8internal27FormatTimeInMillisAsSecondsEx, symObjAddr: 0x13914, symBinAddr: 0x10001C7C8, symSize: 0xA8 }
  - { offsetInCU: 0x58D2, offset: 0x1A25F, size: 0x8, addend: 0x0, symName: __ZN7testing8internal32FormatEpochTimeInMillisAsIso8601Ex, symObjAddr: 0x139BC, symBinAddr: 0x10001C870, symSize: 0x3CC }
  - { offsetInCU: 0x5910, offset: 0x1A29D, size: 0x8, addend: 0x0, symName: __ZN7testing8internalL17PortableLocaltimeElP2tm, symObjAddr: 0x13D88, symBinAddr: 0x10001CC3C, symSize: 0x3C }
  - { offsetInCU: 0x594E, offset: 0x1A2DB, size: 0x8, addend: 0x0, symName: __ZN7testing8internal18StreamableToStringIiEENSt3__112basic_stringIcNS2_11char_traitsIcEENS2_9allocatorIcEEEERKT_, symObjAddr: 0x13E04, symBinAddr: 0x10001CCB8, symSize: 0x7C }
  - { offsetInCU: 0x5983, offset: 0x1A310, size: 0x8, addend: 0x0, symName: __ZN7testing8internal37FormatCompilerIndependentFileLocationEPKci, symObjAddr: 0x14DE4, symBinAddr: 0x10001DC98, symSize: 0x14C }
  - { offsetInCU: 0x59CF, offset: 0x1A35C, size: 0x8, addend: 0x0, symName: __ZN7testing8internalL6IndentEi, symObjAddr: 0x17810, symBinAddr: 0x1000206C4, symSize: 0x3C }
  - { offsetInCU: 0x59FE, offset: 0x1A38B, size: 0x8, addend: 0x0, symName: __ZN7testing8internalL28FormatTimeInMillisAsDurationEx, symObjAddr: 0x1784C, symBinAddr: 0x100020700, symSize: 0xC0 }
  - { offsetInCU: 0x5A3C, offset: 0x1A3C9, size: 0x8, addend: 0x0, symName: __ZN7testing8internalL32FormatEpochTimeInMillisAsRFC3339Ex, symObjAddr: 0x18160, symBinAddr: 0x100021014, symSize: 0x408 }
  - { offsetInCU: 0x5B87, offset: 0x1A514, size: 0x8, addend: 0x0, symName: __ZN7testing8internal35HandleExceptionsInMethodIfSupportedINS0_12UnitTestImplEbEET0_PT_MS4_FS3_vEPKc, symObjAddr: 0x19580, symBinAddr: 0x100022434, symSize: 0x29C }
  - { offsetInCU: 0x5C80, offset: 0x1A60D, size: 0x8, addend: 0x0, symName: __ZN7testing8internal7ForEachINSt3__16vectorIPNS_8TestCaseENS2_9allocatorIS5_EEEEPFvS5_EEEvRKT_T0_, symObjAddr: 0x1A908, symBinAddr: 0x1000237BC, symSize: 0x48 }
  - { offsetInCU: 0x5CCB, offset: 0x1A658, size: 0x8, addend: 0x0, symName: __ZN7testing8internalL6DeleteINS_8TestCaseEEEvPT_, symObjAddr: 0x1A950, symBinAddr: 0x100023804, symSize: 0x48 }
  - { offsetInCU: 0x5CFF, offset: 0x1A68C, size: 0x8, addend: 0x0, symName: __ZN7testing8internal7ForEachINSt3__16vectorIPNS_11EnvironmentENS2_9allocatorIS5_EEEEPFvS5_EEEvRKT_T0_, symObjAddr: 0x1A998, symBinAddr: 0x10002384C, symSize: 0x48 }
  - { offsetInCU: 0x5D4A, offset: 0x1A6D7, size: 0x8, addend: 0x0, symName: __ZN7testing8internalL6DeleteINS_11EnvironmentEEEvPT_, symObjAddr: 0x1A9E0, symBinAddr: 0x100023894, symSize: 0x48 }
  - { offsetInCU: 0x5D7E, offset: 0x1A70B, size: 0x8, addend: 0x0, symName: __ZN7testing8internalL18GTestIsInitializedEv, symObjAddr: 0x1B70C, symBinAddr: 0x100024514, symSize: 0x4C }
  - { offsetInCU: 0x5D9D, offset: 0x1A72A, size: 0x8, addend: 0x0, symName: __ZN7testing8internal30WriteToShardStatusFileIfNeededEv, symObjAddr: 0x1B758, symBinAddr: 0x100024560, symSize: 0xB4 }
  - { offsetInCU: 0x5DE5, offset: 0x1A772, size: 0x8, addend: 0x0, symName: __ZN7testing8internal21GetRandomSeedFromFlagEi, symObjAddr: 0x1C164, symBinAddr: 0x100024F6C, symSize: 0x7C }
  - { offsetInCU: 0x5E2F, offset: 0x1A7BC, size: 0x8, addend: 0x0, symName: __ZN7testing8internalL16SetUpEnvironmentEPNS_11EnvironmentE, symObjAddr: 0x1C33C, symBinAddr: 0x100025144, symSize: 0x2C }
  - { offsetInCU: 0x5E5A, offset: 0x1A7E7, size: 0x8, addend: 0x0, symName: __ZN7testing8internalL19TearDownEnvironmentEPNS_11EnvironmentE, symObjAddr: 0x1C464, symBinAddr: 0x10002526C, symSize: 0x2C }
  - { offsetInCU: 0x5E85, offset: 0x1A812, size: 0x8, addend: 0x0, symName: __ZN7testing8internal17GetNextRandomSeedEi, symObjAddr: 0x1C530, symBinAddr: 0x100025338, symSize: 0x188 }
  - { offsetInCU: 0x5EC0, offset: 0x1A84D, size: 0x8, addend: 0x0, symName: __ZN7testing8internal10ParseInt32ERKNS_7MessageEPKcPi, symObjAddr: 0x1C844, symBinAddr: 0x10002564C, symSize: 0x334 }
  - { offsetInCU: 0x5F66, offset: 0x1A8F3, size: 0x8, addend: 0x0, symName: __ZN7testing8internal20ShouldRunTestOnShardEiii, symObjAddr: 0x1CB78, symBinAddr: 0x100025980, symSize: 0x3C }
  - { offsetInCU: 0x5FB2, offset: 0x1A93F, size: 0x8, addend: 0x0, symName: __ZN7testing8internalL14PrintOnOneLineEPKci, symObjAddr: 0x1CC1C, symBinAddr: 0x100025A24, symSize: 0xF8 }
  - { offsetInCU: 0x600A, offset: 0x1A997, size: 0x8, addend: 0x0, symName: __ZN7testing8internal12ShuffleRangeIiEEvPNS0_6RandomEiiPNSt3__16vectorIT_NS4_9allocatorIS6_EEEE, symObjAddr: 0x1CE18, symBinAddr: 0x100025C20, symSize: 0x334 }
  - { offsetInCU: 0x60C4, offset: 0x1AA51, size: 0x8, addend: 0x0, symName: __ZN7testing8internal31GetCurrentOsStackTraceExceptTopEPNS_8UnitTestEi, symObjAddr: 0x1D14C, symBinAddr: 0x100025F54, symSize: 0x3C }
  - { offsetInCU: 0x60FE, offset: 0x1AA8B, size: 0x8, addend: 0x0, symName: __ZN7testing8internal10SkipPrefixEPKcPS2_, symObjAddr: 0x1D188, symBinAddr: 0x100025F90, symSize: 0x94 }
  - { offsetInCU: 0x614A, offset: 0x1AAD7, size: 0x8, addend: 0x0, symName: __ZN7testing8internal14ParseInt32FlagEPKcS2_Pi, symObjAddr: 0x1D21C, symBinAddr: 0x100026024, symSize: 0xF8 }
  - { offsetInCU: 0x61A5, offset: 0x1AB32, size: 0x8, addend: 0x0, symName: __ZN7testing8internalL14ParseFlagValueEPKcS2_b, symObjAddr: 0x1D314, symBinAddr: 0x10002611C, symSize: 0x1F8 }
  - { offsetInCU: 0x621F, offset: 0x1ABAC, size: 0x8, addend: 0x0, symName: __ZN7testing8internal24ParseGoogleTestFlagsOnlyEPiPPc, symObjAddr: 0x1D548, symBinAddr: 0x100026350, symSize: 0x64 }
  - { offsetInCU: 0x6258, offset: 0x1ABE5, size: 0x8, addend: 0x0, symName: __ZN7testing8internal28ParseGoogleTestFlagsOnlyImplIcEEvPiPPT_, symObjAddr: 0x1D5AC, symBinAddr: 0x1000263B4, symSize: 0x254 }
  - { offsetInCU: 0x6310, offset: 0x1AC9D, size: 0x8, addend: 0x0, symName: __ZN7testing8internalL13ParseBoolFlagEPKcS2_Pb, symObjAddr: 0x52D4C, symBinAddr: 0x10005A1D4, symSize: 0xEC }
  - { offsetInCU: 0x636C, offset: 0x1ACF9, size: 0x8, addend: 0x0, symName: __ZN7testing8internal24ParseGoogleTestFlagsOnlyEPiPPw, symObjAddr: 0x1D800, symBinAddr: 0x100026608, symSize: 0x2C }
  - { offsetInCU: 0x63A5, offset: 0x1AD32, size: 0x8, addend: 0x0, symName: __ZN7testing8internal28ParseGoogleTestFlagsOnlyImplIwEEvPiPPT_, symObjAddr: 0x1D82C, symBinAddr: 0x100026634, symSize: 0x254 }
  - { offsetInCU: 0x645D, offset: 0x1ADEA, size: 0x8, addend: 0x0, symName: __ZN7testing8internal18InitGoogleTestImplIcEEvPiPPT_, symObjAddr: 0x1DAAC, symBinAddr: 0x1000268B4, symSize: 0xFC }
  - { offsetInCU: 0x64B4, offset: 0x1AE41, size: 0x8, addend: 0x0, symName: __ZN7testing8internal18InitGoogleTestImplIwEEvPiPPT_, symObjAddr: 0x1DBD4, symBinAddr: 0x1000269DC, symSize: 0xFC }
  - { offsetInCU: 0x650B, offset: 0x1AE98, size: 0x8, addend: 0x0, symName: __ZN7testing8internal16InDeathTestChildEv, symObjAddr: 0x1DF18, symBinAddr: 0x100026D20, symSize: 0x78 }
  - { offsetInCU: 0x6529, offset: 0x1AEB6, size: 0x8, addend: 0x0, symName: __ZN7testing8internal20ExitedUnsuccessfullyEi, symObjAddr: 0x1E118, symBinAddr: 0x100026F20, symSize: 0x40 }
  - { offsetInCU: 0x6555, offset: 0x1AEE2, size: 0x8, addend: 0x0, symName: __ZN7testing8internal23GetLastErrnoDescriptionEv, symObjAddr: 0x1E158, symBinAddr: 0x100026F60, symSize: 0x68 }
  - { offsetInCU: 0x6574, offset: 0x1AF01, size: 0x8, addend: 0x0, symName: __ZN7testing8internalL14DeathTestAbortERKNSt3__112basic_stringIcNS1_11char_traitsIcEENS1_9allocatorIcEEEE, symObjAddr: 0x1E28C, symBinAddr: 0x100027094, symSize: 0xD8 }
  - { offsetInCU: 0x67FC, offset: 0x1B189, size: 0x8, addend: 0x0, symName: __ZN7testing8internalL21FailFromInternalErrorEi, symObjAddr: 0x1EA0C, symBinAddr: 0x100027814, symSize: 0x2D4 }
  - { offsetInCU: 0x6877, offset: 0x1B204, size: 0x8, addend: 0x0, symName: __ZN7testing8internal11AlwaysFalseEv, symObjAddr: 0x1ED04, symBinAddr: 0x100027B0C, symSize: 0x1C }
  - { offsetInCU: 0x6896, offset: 0x1B223, size: 0x8, addend: 0x0, symName: __ZN7testing8internal17GetCapturedStderrEv, symObjAddr: 0x1ED68, symBinAddr: 0x100027B70, symSize: 0x2C }
  - { offsetInCU: 0x68B5, offset: 0x1B242, size: 0x8, addend: 0x0, symName: __ZN7testing8internalL21FormatDeathTestOutputERKNSt3__112basic_stringIcNS1_11char_traitsIcEENS1_9allocatorIcEEEE, symObjAddr: 0x1F740, symBinAddr: 0x100028548, symSize: 0x188 }
  - { offsetInCU: 0x6927, offset: 0x1B2B4, size: 0x8, addend: 0x0, symName: __ZN7testing8internalL11ExitSummaryEi, symObjAddr: 0x1FA2C, symBinAddr: 0x100028834, symSize: 0x148 }
  - { offsetInCU: 0x6A4C, offset: 0x1B3D9, size: 0x8, addend: 0x0, symName: __ZN7testing8internal14GetThreadCountEv, symObjAddr: 0x20A50, symBinAddr: 0x100029858, symSize: 0x84 }
  - { offsetInCU: 0x6AA6, offset: 0x1B433, size: 0x8, addend: 0x0, symName: __ZN7testing8internalL22DeathTestThreadWarningEm, symObjAddr: 0x20AD4, symBinAddr: 0x1000298DC, symSize: 0x178 }
  - { offsetInCU: 0x6AE2, offset: 0x1B46F, size: 0x8, addend: 0x0, symName: __ZN7testing8internal13CaptureStderrEv, symObjAddr: 0x20C4C, symBinAddr: 0x100029A54, symSize: 0x28 }
  - { offsetInCU: 0x6AFD, offset: 0x1B48A, size: 0x8, addend: 0x0, symName: __ZN7testing8internal12FlushInfoLogEv, symObjAddr: 0x20C74, symBinAddr: 0x100029A7C, symSize: 0x18 }
  - { offsetInCU: 0x6B18, offset: 0x1B4A5, size: 0x8, addend: 0x0, symName: __ZN7testing8internal11LogToStderrEv, symObjAddr: 0x20CCC, symBinAddr: 0x100029AD4, symSize: 0x4 }
  - { offsetInCU: 0x6C4F, offset: 0x1B5DC, size: 0x8, addend: 0x0, symName: __ZN7testing8internalL23ExecDeathTestSpawnChildEPKPci, symObjAddr: 0x21D68, symBinAddr: 0x10002AB70, symSize: 0x258 }
  - { offsetInCU: 0x6CBA, offset: 0x1B647, size: 0x8, addend: 0x0, symName: __ZN7testing8internal29ParseInternalRunDeathTestFlagEv, symObjAddr: 0x22524, symBinAddr: 0x10002B32C, symSize: 0x214 }
  - { offsetInCU: 0x6D15, offset: 0x1B6A2, size: 0x8, addend: 0x0, symName: __ZN7testing8internal18ParseNaturalNumberIiEEbRKNSt3__112basic_stringIcNS2_11char_traitsIcEENS2_9allocatorIcEEEEPT_, symObjAddr: 0x22738, symBinAddr: 0x10002B540, symSize: 0x1A4 }
  - { offsetInCU: 0x6D97, offset: 0x1B724, size: 0x8, addend: 0x0, symName: __ZN7testing8internalL15IsPathSeparatorEc, symObjAddr: 0x23090, symBinAddr: 0x10002BE98, symSize: 0x20 }
  - { offsetInCU: 0x6DC4, offset: 0x1B751, size: 0x8, addend: 0x0, symName: __ZN7testing8internal13CaptureStdoutEv, symObjAddr: 0x24258, symBinAddr: 0x10002CFDC, symSize: 0x28 }
  - { offsetInCU: 0x6DDF, offset: 0x1B76C, size: 0x8, addend: 0x0, symName: __ZN7testing8internalL13CaptureStreamEiPKcPPNS0_14CapturedStreamE, symObjAddr: 0x24280, symBinAddr: 0x10002D004, symSize: 0x108 }
  - { offsetInCU: 0x6E28, offset: 0x1B7B5, size: 0x8, addend: 0x0, symName: __ZN7testing8internal17GetCapturedStdoutEv, symObjAddr: 0x24388, symBinAddr: 0x10002D10C, symSize: 0x2C }
  - { offsetInCU: 0x6E47, offset: 0x1B7D4, size: 0x8, addend: 0x0, symName: __ZN7testing8internalL17GetCapturedStreamEPPNS0_14CapturedStreamE, symObjAddr: 0x243B4, symBinAddr: 0x10002D138, symSize: 0xA4 }
  - { offsetInCU: 0x6E86, offset: 0x1B813, size: 0x8, addend: 0x0, symName: __ZN7testing8internal11GetFileSizeEP7__sFILE, symObjAddr: 0x24458, symBinAddr: 0x10002D1DC, symSize: 0x34 }
  - { offsetInCU: 0x6EB4, offset: 0x1B841, size: 0x8, addend: 0x0, symName: __ZN7testing8internal14ReadEntireFileEP7__sFILE, symObjAddr: 0x2448C, symBinAddr: 0x10002D210, symSize: 0x140 }
  - { offsetInCU: 0x6F2E, offset: 0x1B8BB, size: 0x8, addend: 0x0, symName: __ZN7testing8internal18GetInjectableArgvsEv, symObjAddr: 0x245CC, symBinAddr: 0x10002D350, symSize: 0x58 }
  - { offsetInCU: 0x6F4D, offset: 0x1B8DA, size: 0x8, addend: 0x0, symName: __ZN7testing8internal18SetInjectableArgvsEPKNSt3__16vectorINS1_12basic_stringIcNS1_11char_traitsIcEENS1_9allocatorIcEEEENS6_IS8_EEEE, symObjAddr: 0x24624, symBinAddr: 0x10002D3A8, symSize: 0x78 }
  - { offsetInCU: 0x6F77, offset: 0x1B904, size: 0x8, addend: 0x0, symName: __ZN7testing8internal18SetInjectableArgvsERKNSt3__16vectorINS1_12basic_stringIcNS1_11char_traitsIcEENS1_9allocatorIcEEEENS6_IS8_EEEE, symObjAddr: 0x2469C, symBinAddr: 0x10002D420, symSize: 0x84 }
  - { offsetInCU: 0x6FA1, offset: 0x1B92E, size: 0x8, addend: 0x0, symName: __ZN7testing8internal20ClearInjectableArgvsEv, symObjAddr: 0x2475C, symBinAddr: 0x10002D4E0, symSize: 0x50 }
  - { offsetInCU: 0x6FBC, offset: 0x1B949, size: 0x8, addend: 0x0, symName: __ZN7testing8internalL12FlagToEnvVarEPKc, symObjAddr: 0x2489C, symBinAddr: 0x10002D620, symSize: 0x168 }
  - { offsetInCU: 0x7020, offset: 0x1B9AD, size: 0x8, addend: 0x0, symName: __ZN7testing8internal7PrintToEhPNSt3__113basic_ostreamIcNS1_11char_traitsIcEEEE, symObjAddr: 0x24B5C, symBinAddr: 0x10002D8E0, symSize: 0x2C }
  - { offsetInCU: 0x7057, offset: 0x1B9E4, size: 0x8, addend: 0x0, symName: __ZN7testing8internal18PrintCharAndCodeToIhhEEvT0_PNSt3__113basic_ostreamIcNS3_11char_traitsIcEEEE, symObjAddr: 0x24B88, symBinAddr: 0x10002D90C, symSize: 0x138 }
  - { offsetInCU: 0x70AF, offset: 0x1BA3C, size: 0x8, addend: 0x0, symName: __ZN7testing8internal7PrintToEaPNSt3__113basic_ostreamIcNS1_11char_traitsIcEEEE, symObjAddr: 0x24CC0, symBinAddr: 0x10002DA44, symSize: 0x2C }
  - { offsetInCU: 0x70E6, offset: 0x1BA73, size: 0x8, addend: 0x0, symName: __ZN7testing8internal18PrintCharAndCodeToIhaEEvT0_PNSt3__113basic_ostreamIcNS3_11char_traitsIcEEEE, symObjAddr: 0x24CEC, symBinAddr: 0x10002DA70, symSize: 0x138 }
  - { offsetInCU: 0x713E, offset: 0x1BACB, size: 0x8, addend: 0x0, symName: __ZN7testing8internal7PrintToEwPNSt3__113basic_ostreamIcNS1_11char_traitsIcEEEE, symObjAddr: 0x24E24, symBinAddr: 0x10002DBA8, symSize: 0x2C }
  - { offsetInCU: 0x7175, offset: 0x1BB02, size: 0x8, addend: 0x0, symName: __ZN7testing8internal18PrintCharAndCodeToIwwEEvT0_PNSt3__113basic_ostreamIcNS3_11char_traitsIcEEEE, symObjAddr: 0x24E50, symBinAddr: 0x10002DBD4, symSize: 0x138 }
  - { offsetInCU: 0x71CD, offset: 0x1BB5A, size: 0x8, addend: 0x0, symName: __ZN7testing8internal19UniversalPrintArrayEPKcmPNSt3__113basic_ostreamIcNS3_11char_traitsIcEEEE, symObjAddr: 0x24F88, symBinAddr: 0x10002DD0C, symSize: 0x34 }
  - { offsetInCU: 0x7215, offset: 0x1BBA2, size: 0x8, addend: 0x0, symName: __ZN7testing8internalL23UniversalPrintCharArrayIcEEvPKT_mPNSt3__113basic_ostreamIcNS5_11char_traitsIcEEEE, symObjAddr: 0x24FBC, symBinAddr: 0x10002DD40, symSize: 0x94 }
  - { offsetInCU: 0x7267, offset: 0x1BBF4, size: 0x8, addend: 0x0, symName: __ZN7testing8internal19UniversalPrintArrayEPKwmPNSt3__113basic_ostreamIcNS3_11char_traitsIcEEEE, symObjAddr: 0x25050, symBinAddr: 0x10002DDD4, symSize: 0x34 }
  - { offsetInCU: 0x72AF, offset: 0x1BC3C, size: 0x8, addend: 0x0, symName: __ZN7testing8internalL23UniversalPrintCharArrayIwEEvPKT_mPNSt3__113basic_ostreamIcNS5_11char_traitsIcEEEE, symObjAddr: 0x25084, symBinAddr: 0x10002DE08, symSize: 0x94 }
  - { offsetInCU: 0x7301, offset: 0x1BC8E, size: 0x8, addend: 0x0, symName: __ZN7testing8internal7PrintToEPKcPNSt3__113basic_ostreamIcNS3_11char_traitsIcEEEE, symObjAddr: 0x25118, symBinAddr: 0x10002DE9C, symSize: 0x94 }
  - { offsetInCU: 0x733A, offset: 0x1BCC7, size: 0x8, addend: 0x0, symName: __ZN7testing8internal13ImplicitCast_IPKvEET_S4_, symObjAddr: 0x251AC, symBinAddr: 0x10002DF30, symSize: 0x14 }
  - { offsetInCU: 0x7371, offset: 0x1BCFE, size: 0x8, addend: 0x0, symName: __ZN7testing8internalL20PrintCharsAsStringToIcEENS0_10CharFormatEPKT_mPNSt3__113basic_ostreamIcNS6_11char_traitsIcEEEE, symObjAddr: 0x251C0, symBinAddr: 0x10002DF44, symSize: 0x114 }
  - { offsetInCU: 0x7430, offset: 0x1BDBD, size: 0x8, addend: 0x0, symName: __ZN7testing8internal7PrintToEPKwPNSt3__113basic_ostreamIcNS3_11char_traitsIcEEEE, symObjAddr: 0x252D4, symBinAddr: 0x10002E058, symSize: 0x94 }
  - { offsetInCU: 0x7469, offset: 0x1BDF6, size: 0x8, addend: 0x0, symName: __ZN7testing8internalL20PrintCharsAsStringToIwEENS0_10CharFormatEPKT_mPNSt3__113basic_ostreamIcNS6_11char_traitsIcEEEE, symObjAddr: 0x25368, symBinAddr: 0x10002E0EC, symSize: 0x110 }
  - { offsetInCU: 0x7528, offset: 0x1BEB5, size: 0x8, addend: 0x0, symName: __ZN7testing8internal13PrintStringToERKNSt3__112basic_stringIcNS1_11char_traitsIcEENS1_9allocatorIcEEEEPNS1_13basic_ostreamIcS4_EE, symObjAddr: 0x25478, symBinAddr: 0x10002E1FC, symSize: 0x90 }
  - { offsetInCU: 0x7561, offset: 0x1BEEE, size: 0x8, addend: 0x0, symName: __ZN7testing8internal17PrintWideStringToERKNSt3__112basic_stringIwNS1_11char_traitsIwEENS1_9allocatorIwEEEEPNS1_13basic_ostreamIcNS3_IcEEEE, symObjAddr: 0x255A4, symBinAddr: 0x10002E300, symSize: 0x44 }
  - { offsetInCU: 0x7712, offset: 0x1C09F, size: 0x8, addend: 0x0, symName: __ZN7testing8internalL18SplitIntoTestNamesEPKc, symObjAddr: 0x25FC4, symBinAddr: 0x10002ED20, symSize: 0x154 }
  - { offsetInCU: 0x774F, offset: 0x1C0DC, size: 0x8, addend: 0x0, symName: __ZN7testing8internal27CheckedDowncastToActualTypeINS0_11ThreadLocalINSt3__16vectorINS0_9TraceInfoENS3_9allocatorIS5_EEEEE11ValueHolderENS0_26ThreadLocalValueHolderBaseEEEPT_PT0_, symObjAddr: 0x2DB7C, symBinAddr: 0x100035A40, symSize: 0x110 }
  - { offsetInCU: 0x778F, offset: 0x1C11C, size: 0x8, addend: 0x0, symName: __ZN7testing8internalL22ExecDeathTestChildMainEPv, symObjAddr: 0x3223C, symBinAddr: 0x10003A100, symSize: 0x5BC }
  - { offsetInCU: 0x77F2, offset: 0x1C17F, size: 0x8, addend: 0x0, symName: __ZN7testing8internal10GetEnvironEv, symObjAddr: 0x327F8, symBinAddr: 0x10003A6BC, symSize: 0x18 }
  - { offsetInCU: 0x7811, offset: 0x1C19E, size: 0x8, addend: 0x0, symName: __ZN7testing8internal7ToUpperEc, symObjAddr: 0x33280, symBinAddr: 0x10003B144, symSize: 0x28 }
  - { offsetInCU: 0x783F, offset: 0x1C1CC, size: 0x8, addend: 0x0, symName: __ZN7testing8internalL10SkipSpacesEPKc, symObjAddr: 0x3391C, symBinAddr: 0x10003B7E0, symSize: 0x48 }
  - { offsetInCU: 0x786C, offset: 0x1C1F9, size: 0x8, addend: 0x0, symName: __ZN7testing8internal19StripTrailingSpacesENSt3__112basic_stringIcNS1_11char_traitsIcEENS1_9allocatorIcEEEE, symObjAddr: 0x33964, symBinAddr: 0x10003B828, symSize: 0xC0 }
  - { offsetInCU: 0x78AA, offset: 0x1C237, size: 0x8, addend: 0x0, symName: __ZN7testing8internal19GetPrefixUntilCommaEPKc, symObjAddr: 0x33A24, symBinAddr: 0x10003B8E8, symSize: 0x6C }
  - { offsetInCU: 0x78E7, offset: 0x1C274, size: 0x8, addend: 0x0, symName: __ZN7testing8internal9SkipCommaEPKc, symObjAddr: 0x33A90, symBinAddr: 0x10003B954, symSize: 0x7C }
  - { offsetInCU: 0x7924, offset: 0x1C2B1, size: 0x8, addend: 0x0, symName: __ZN7testing8internal7IsSpaceEc, symObjAddr: 0x33B0C, symBinAddr: 0x10003B9D0, symSize: 0x30 }
  - { offsetInCU: 0x797E, offset: 0x1C30B, size: 0x8, addend: 0x0, symName: __ZN7testing8internal14UniversalPrintINSt3__112basic_stringIcNS2_11char_traitsIcEENS2_9allocatorIcEEEEEEvRKT_PNS2_13basic_ostreamIcS5_EE, symObjAddr: 0x35288, symBinAddr: 0x10003C9D8, symSize: 0x2C }
  - { offsetInCU: 0x79EC, offset: 0x1C379, size: 0x8, addend: 0x0, symName: __ZN7testing8internal7PrintToERKNSt3__112basic_stringIcNS1_11char_traitsIcEENS1_9allocatorIcEEEEPNS1_13basic_ostreamIcS4_EE, symObjAddr: 0x352E0, symBinAddr: 0x10003CA30, symSize: 0x2C }
  - { offsetInCU: 0x7A51, offset: 0x1C3DE, size: 0x8, addend: 0x0, symName: __ZN7testing8internal14UniversalPrintINSt3__112basic_stringIwNS2_11char_traitsIwEENS2_9allocatorIwEEEEEEvRKT_PNS2_13basic_ostreamIcNS4_IcEEEE, symObjAddr: 0x353A0, symBinAddr: 0x10003CAF0, symSize: 0x2C }
  - { offsetInCU: 0x7ABF, offset: 0x1C44C, size: 0x8, addend: 0x0, symName: __ZN7testing8internal7PrintToERKNSt3__112basic_stringIwNS1_11char_traitsIwEENS1_9allocatorIwEEEEPNS1_13basic_ostreamIcNS3_IcEEEE, symObjAddr: 0x3542C, symBinAddr: 0x10003CB7C, symSize: 0x2C }
  - { offsetInCU: 0x7AF8, offset: 0x1C485, size: 0x8, addend: 0x0, symName: __ZN7testing8internal27CheckedDowncastToActualTypeINS0_11ThreadLocalIPNS_31TestPartResultReporterInterfaceEE11ValueHolderENS0_26ThreadLocalValueHolderBaseEEEPT_PT0_, symObjAddr: 0x37294, symBinAddr: 0x10003E984, symSize: 0x110 }
  - { offsetInCU: 0x7B98, offset: 0x1C525, size: 0x8, addend: 0x0, symName: __ZN7testing8internal14UniversalPrintIxEEvRKT_PNSt3__113basic_ostreamIcNS5_11char_traitsIcEEEE, symObjAddr: 0x3FEE4, symBinAddr: 0x100047424, symSize: 0x2C }
  - { offsetInCU: 0x7C06, offset: 0x1C593, size: 0x8, addend: 0x0, symName: __ZN7testing8internal7PrintToIxEEvRKT_PNSt3__113basic_ostreamIcNS5_11char_traitsIcEEEE, symObjAddr: 0x3FF3C, symBinAddr: 0x10004747C, symSize: 0x2C }
  - { offsetInCU: 0x7C48, offset: 0x1C5D5, size: 0x8, addend: 0x0, symName: __ZN7testing8internal14DefaultPrintToIxEEvNS0_15WrapPrinterTypeILNS0_18DefaultPrinterTypeE3EEERKT_PNSt3__113basic_ostreamIcNS8_11char_traitsIcEEEE, symObjAddr: 0x3FF68, symBinAddr: 0x1000474A8, symSize: 0x2C }
  - { offsetInCU: 0x7C96, offset: 0x1C623, size: 0x8, addend: 0x0, symName: __ZN7testing8internal38HandleSehExceptionsInMethodIfSupportedINS_4TestEvEET0_PT_MS4_FS3_vEPKc, symObjAddr: 0x44870, symBinAddr: 0x10004BDB0, symSize: 0x90 }
  - { offsetInCU: 0x7CEC, offset: 0x1C679, size: 0x8, addend: 0x0, symName: __ZN7testing8internalL25FormatCxxExceptionMessageEPKcS2_, symObjAddr: 0x44900, symBinAddr: 0x10004BE40, symSize: 0x118 }
  - { offsetInCU: 0x7D39, offset: 0x1C6C6, size: 0x8, addend: 0x0, symName: __ZN7testing8internal38HandleSehExceptionsInMethodIfSupportedINS0_15TestFactoryBaseEPNS_4TestEEET0_PT_MS6_FS5_vEPKc, symObjAddr: 0x44C74, symBinAddr: 0x10004C1B4, symSize: 0x90 }
  - { offsetInCU: 0x7D97, offset: 0x1C724, size: 0x8, addend: 0x0, symName: __ZN7testing8internal38HandleSehExceptionsInMethodIfSupportedINS_8TestCaseEvEET0_PT_MS4_FS3_vEPKc, symObjAddr: 0x481E0, symBinAddr: 0x10004F720, symSize: 0x90 }
  - { offsetInCU: 0x7DED, offset: 0x1C77A, size: 0x8, addend: 0x0, symName: __ZN7testing8internal38HandleSehExceptionsInMethodIfSupportedINS0_12UnitTestImplEbEET0_PT_MS4_FS3_vEPKc, symObjAddr: 0x4BBF4, symBinAddr: 0x10005307C, symSize: 0x94 }
  - { offsetInCU: 0x7E4B, offset: 0x1C7D8, size: 0x8, addend: 0x0, symName: __ZN7testing8internal18StreamableToStringIPcEENSt3__112basic_stringIcNS3_11char_traitsIcEENS3_9allocatorIcEEEERKT_, symObjAddr: 0x5246C, symBinAddr: 0x1000598F4, symSize: 0x7C }
  - { offsetInCU: 0x7E80, offset: 0x1C80D, size: 0x8, addend: 0x0, symName: __ZN7testing8internalL19ParseGoogleTestFlagEPKc, symObjAddr: 0x524E8, symBinAddr: 0x100059970, symSize: 0x2EC }
  - { offsetInCU: 0x7EAF, offset: 0x1C83C, size: 0x8, addend: 0x0, symName: __ZN7testing8internalL15ParseStringFlagINSt3__112basic_stringIcNS2_11char_traitsIcEENS2_9allocatorIcEEEEEEbPKcSA_PT_, symObjAddr: 0x527D4, symBinAddr: 0x100059C5C, symSize: 0x8C }
  - { offsetInCU: 0x7F14, offset: 0x1C8A1, size: 0x8, addend: 0x0, symName: __ZN7testing8internalL17LoadFlagsFromFileERKNSt3__112basic_stringIcNS1_11char_traitsIcEENS1_9allocatorIcEEEE, symObjAddr: 0x52860, symBinAddr: 0x100059CE8, symSize: 0x1E8 }
  - { offsetInCU: 0x7F81, offset: 0x1C90E, size: 0x8, addend: 0x0, symName: __ZN7testing8internalL23HasGoogleTestFlagPrefixEPKc, symObjAddr: 0x52A48, symBinAddr: 0x100059ED0, symSize: 0xD8 }
  - { offsetInCU: 0x7FB0, offset: 0x1C93D, size: 0x8, addend: 0x0, symName: __ZN7testing8internalL17PrintColorEncodedEPKc, symObjAddr: 0x52B20, symBinAddr: 0x100059FA8, symSize: 0x1B0 }
  - { offsetInCU: 0x800E, offset: 0x1C99B, size: 0x8, addend: 0x0, symName: __ZN7testing8internal18StreamableToStringIPwEENSt3__112basic_stringIcNS3_11char_traitsIcEENS3_9allocatorIcEEEERKT_, symObjAddr: 0x52E38, symBinAddr: 0x10005A2C0, symSize: 0x80 }
  - { offsetInCU: 0x8043, offset: 0x1C9D0, size: 0x8, addend: 0x0, symName: __ZN7testing8internal7IsDigitEc, symObjAddr: 0x530B4, symBinAddr: 0x10005A52C, symSize: 0x30 }
  - { offsetInCU: 0x8155, offset: 0x1CAE2, size: 0x8, addend: 0x0, symName: __ZN7testing8internalL20PrintAsCharLiteralToIhhEENS0_10CharFormatET0_PNSt3__113basic_ostreamIcNS4_11char_traitsIcEEEE, symObjAddr: 0x5574C, symBinAddr: 0x10005CBC4, symSize: 0x1BC }
  - { offsetInCU: 0x81C0, offset: 0x1CB4D, size: 0x8, addend: 0x0, symName: __ZN7testing8internal16IsPrintableAsciiEw, symObjAddr: 0x55A7C, symBinAddr: 0x10005CEF4, symSize: 0x4C }
  - { offsetInCU: 0x81EC, offset: 0x1CB79, size: 0x8, addend: 0x0, symName: __ZN7testing8internalL20PrintAsCharLiteralToIhaEENS0_10CharFormatET0_PNSt3__113basic_ostreamIcNS4_11char_traitsIcEEEE, symObjAddr: 0x55AF4, symBinAddr: 0x10005CF6C, symSize: 0x1BC }
  - { offsetInCU: 0x8257, offset: 0x1CBE4, size: 0x8, addend: 0x0, symName: __ZN7testing8internalL20PrintAsCharLiteralToIwwEENS0_10CharFormatET0_PNSt3__113basic_ostreamIcNS4_11char_traitsIcEEEE, symObjAddr: 0x55E24, symBinAddr: 0x10005D29C, symSize: 0x1C0 }
  - { offsetInCU: 0x82C2, offset: 0x1CC4F, size: 0x8, addend: 0x0, symName: __ZN7testing8internal8IsXDigitEc, symObjAddr: 0x56158, symBinAddr: 0x10005D5D0, symSize: 0x30 }
  - { offsetInCU: 0x82F0, offset: 0x1CC7D, size: 0x8, addend: 0x0, symName: __ZN7testing8internalL22PrintAsStringLiteralToEcPNSt3__113basic_ostreamIcNS1_11char_traitsIcEEEE, symObjAddr: 0x56188, symBinAddr: 0x10005D600, symSize: 0x2C }
  - { offsetInCU: 0x832B, offset: 0x1CCB8, size: 0x8, addend: 0x0, symName: __ZN7testing8internalL22PrintAsStringLiteralToEwPNSt3__113basic_ostreamIcNS1_11char_traitsIcEEEE, symObjAddr: 0x561DC, symBinAddr: 0x10005D654, symSize: 0x98 }
  - { offsetInCU: 0x8366, offset: 0x1CCF3, size: 0x8, addend: 0x0, symName: __ZN7testing8internal8IsXDigitEw, symObjAddr: 0x56274, symBinAddr: 0x10005D6EC, symSize: 0x64 }
  - { offsetInCU: 0x83DD, offset: 0x1CD6A, size: 0x8, addend: 0x0, symName: __ZN7testing35FLAGS_gtest_also_run_disabled_testsE, symObjAddr: 0x23E1C1, symBinAddr: 0x100070011, symSize: 0x0 }
  - { offsetInCU: 0x83F7, offset: 0x1CD84, size: 0x8, addend: 0x0, symName: __ZN7testing28FLAGS_gtest_break_on_failureE, symObjAddr: 0x23E1C2, symBinAddr: 0x100070012, symSize: 0x0 }
  - { offsetInCU: 0x8411, offset: 0x1CD9E, size: 0x8, addend: 0x0, symName: __ZN7testing28FLAGS_gtest_catch_exceptionsE, symObjAddr: 0x23E1C3, symBinAddr: 0x100070013, symSize: 0x0 }
  - { offsetInCU: 0x842B, offset: 0x1CDB8, size: 0x8, addend: 0x0, symName: __ZN7testing17FLAGS_gtest_colorE, symObjAddr: 0x23E1C8, symBinAddr: 0x100070018, symSize: 0x0 }
  - { offsetInCU: 0x8445, offset: 0x1CDD2, size: 0x8, addend: 0x0, symName: __ZN7testing18FLAGS_gtest_filterE, symObjAddr: 0x23E1E0, symBinAddr: 0x100070030, symSize: 0x0 }
  - { offsetInCU: 0x8460, offset: 0x1CDED, size: 0x8, addend: 0x0, symName: __ZN7testing42FLAGS_gtest_install_failure_signal_handlerE, symObjAddr: 0x23E1F8, symBinAddr: 0x100070048, symSize: 0x0 }
  - { offsetInCU: 0x847B, offset: 0x1CE08, size: 0x8, addend: 0x0, symName: __ZN7testing22FLAGS_gtest_list_testsE, symObjAddr: 0x23E1F9, symBinAddr: 0x100070049, symSize: 0x0 }
  - { offsetInCU: 0x8496, offset: 0x1CE23, size: 0x8, addend: 0x0, symName: __ZN7testing18FLAGS_gtest_outputE, symObjAddr: 0x23E200, symBinAddr: 0x100070050, symSize: 0x0 }
  - { offsetInCU: 0x84B1, offset: 0x1CE3E, size: 0x8, addend: 0x0, symName: __ZN7testing22FLAGS_gtest_print_timeE, symObjAddr: 0x23E218, symBinAddr: 0x100070068, symSize: 0x0 }
  - { offsetInCU: 0x84CC, offset: 0x1CE59, size: 0x8, addend: 0x0, symName: __ZN7testing22FLAGS_gtest_print_utf8E, symObjAddr: 0x23E219, symBinAddr: 0x100070069, symSize: 0x0 }
  - { offsetInCU: 0x84E7, offset: 0x1CE74, size: 0x8, addend: 0x0, symName: __ZN7testing23FLAGS_gtest_random_seedE, symObjAddr: 0x23E21C, symBinAddr: 0x10007006C, symSize: 0x0 }
  - { offsetInCU: 0x8502, offset: 0x1CE8F, size: 0x8, addend: 0x0, symName: __ZN7testing18FLAGS_gtest_repeatE, symObjAddr: 0x23E220, symBinAddr: 0x100070070, symSize: 0x0 }
  - { offsetInCU: 0x851D, offset: 0x1CEAA, size: 0x8, addend: 0x0, symName: __ZN7testing38FLAGS_gtest_show_internal_stack_framesE, symObjAddr: 0x23E224, symBinAddr: 0x100070074, symSize: 0x0 }
  - { offsetInCU: 0x8538, offset: 0x1CEC5, size: 0x8, addend: 0x0, symName: __ZN7testing19FLAGS_gtest_shuffleE, symObjAddr: 0x23E225, symBinAddr: 0x100070075, symSize: 0x0 }
  - { offsetInCU: 0x8560, offset: 0x1CEED, size: 0x8, addend: 0x0, symName: __ZN7testing29FLAGS_gtest_stack_trace_depthE, symObjAddr: 0x23E228, symBinAddr: 0x100070078, symSize: 0x0 }
  - { offsetInCU: 0x857B, offset: 0x1CF08, size: 0x8, addend: 0x0, symName: __ZN7testing28FLAGS_gtest_stream_result_toE, symObjAddr: 0x23E230, symBinAddr: 0x100070080, symSize: 0x0 }
  - { offsetInCU: 0x8596, offset: 0x1CF23, size: 0x8, addend: 0x0, symName: __ZN7testing28FLAGS_gtest_throw_on_failureE, symObjAddr: 0x23E248, symBinAddr: 0x100070098, symSize: 0x0 }
  - { offsetInCU: 0x85B1, offset: 0x1CF3E, size: 0x8, addend: 0x0, symName: __ZN7testing20FLAGS_gtest_flagfileE, symObjAddr: 0x23E250, symBinAddr: 0x1000700A0, symSize: 0x0 }
  - { offsetInCU: 0x9A43, offset: 0x1E3D0, size: 0x8, addend: 0x0, symName: __ZN7testing28FLAGS_gtest_death_test_styleE, symObjAddr: 0x23E288, symBinAddr: 0x1000700D8, symSize: 0x0 }
  - { offsetInCU: 0x9A5D, offset: 0x1E3EA, size: 0x8, addend: 0x0, symName: __ZN7testing31FLAGS_gtest_death_test_use_forkE, symObjAddr: 0x23E2A0, symBinAddr: 0x1000700F0, symSize: 0x0 }
  - { offsetInCU: 0x9A77, offset: 0x1E404, size: 0x8, addend: 0x0, symName: __ZN7testingL20kDefaultOutputFormatE, symObjAddr: 0x5B7EF, symBinAddr: 0x10006706F, symSize: 0x0 }
  - { offsetInCU: 0x9A91, offset: 0x1E41E, size: 0x8, addend: 0x0, symName: __ZN7testingL18kDefaultOutputFileE, symObjAddr: 0x5B7F3, symBinAddr: 0x100067073, symSize: 0x0 }
  - { offsetInCU: 0x9AAB, offset: 0x1E438, size: 0x8, addend: 0x0, symName: __ZN7testingL16kUniversalFilterE, symObjAddr: 0x5B7FF, symBinAddr: 0x10006707F, symSize: 0x0 }
  - { offsetInCU: 0x9AC6, offset: 0x1E453, size: 0x8, addend: 0x0, symName: __ZN7testingL29kReservedTestSuitesAttributesE, symObjAddr: 0x5F8C8, symBinAddr: 0x10006DF78, symSize: 0x0 }
  - { offsetInCU: 0x9AE1, offset: 0x1E46E, size: 0x8, addend: 0x0, symName: __ZN7testingL28kReservedTestSuiteAttributesE, symObjAddr: 0x5F908, symBinAddr: 0x10006DFB8, symSize: 0x0 }
  - { offsetInCU: 0x9AFC, offset: 0x1E489, size: 0x8, addend: 0x0, symName: __ZN7testingL27kReservedTestCaseAttributesE, symObjAddr: 0x5F938, symBinAddr: 0x10006DFE8, symSize: 0x0 }
  - { offsetInCU: 0x9B16, offset: 0x1E4A3, size: 0x8, addend: 0x0, symName: __ZN7testingL16kTestTotalShardsE, symObjAddr: 0x5B801, symBinAddr: 0x100067081, symSize: 0x0 }
  - { offsetInCU: 0x9B30, offset: 0x1E4BD, size: 0x8, addend: 0x0, symName: __ZN7testingL15kTestShardIndexE, symObjAddr: 0x5B814, symBinAddr: 0x100067094, symSize: 0x0 }
  - { offsetInCU: 0x9B4A, offset: 0x1E4D7, size: 0x8, addend: 0x0, symName: __ZN7testingL20kDeathTestCaseFilterE, symObjAddr: 0x5B860, symBinAddr: 0x1000670E0, symSize: 0x0 }
  - { offsetInCU: 0x9B64, offset: 0x1E4F1, size: 0x8, addend: 0x0, symName: __ZN7testingL20kTestShardStatusFileE, symObjAddr: 0x5B878, symBinAddr: 0x1000670F8, symSize: 0x0 }
  - { offsetInCU: 0x9B7E, offset: 0x1E50B, size: 0x8, addend: 0x0, symName: __ZN7testingL18kDisableTestFilterE, symObjAddr: 0x5B890, symBinAddr: 0x100067110, symSize: 0x0 }
  - { offsetInCU: 0x9B98, offset: 0x1E525, size: 0x8, addend: 0x0, symName: __ZN7testingL22kDefaultDeathTestStyleE, symObjAddr: 0x5B8EE, symBinAddr: 0x10006716E, symSize: 0x0 }
  - { offsetInCU: 0xB029, offset: 0x1F9B6, size: 0x8, addend: 0x0, symName: __ZN7testing12_GLOBAL__N_115IsSubstringImplIPKcEENS_15AssertionResultEbS3_S3_RKT_S7_, symObjAddr: 0x932C, symBinAddr: 0x1000122F0, symSize: 0x260 }
  - { offsetInCU: 0xB0BD, offset: 0x1FA4A, size: 0x8, addend: 0x0, symName: __ZN7testing12_GLOBAL__N_115IsSubstringImplIPKwEENS_15AssertionResultEbPKcS6_RKT_S9_, symObjAddr: 0x95DC, symBinAddr: 0x1000125A0, symSize: 0x264 }
  - { offsetInCU: 0xB151, offset: 0x1FADE, size: 0x8, addend: 0x0, symName: __ZN7testing12_GLOBAL__N_115IsSubstringImplINSt3__112basic_stringIcNS2_11char_traitsIcEENS2_9allocatorIcEEEEEENS_15AssertionResultEbPKcSB_RKT_SE_, symObjAddr: 0x992C, symBinAddr: 0x1000128F0, symSize: 0x258 }
  - { offsetInCU: 0xB1E5, offset: 0x1FB72, size: 0x8, addend: 0x0, symName: __ZN7testing12_GLOBAL__N_115IsSubstringImplINSt3__112basic_stringIwNS2_11char_traitsIwEENS2_9allocatorIwEEEEEENS_15AssertionResultEbPKcSB_RKT_SE_, symObjAddr: 0x9C1C, symBinAddr: 0x100012BE0, symSize: 0x25C }
  - { offsetInCU: 0xB279, offset: 0x1FC06, size: 0x8, addend: 0x0, symName: __ZN7testing12_GLOBAL__N_124PrintBytesInObjectToImplEPKhmPNSt3__113basic_ostreamIcNS3_11char_traitsIcEEEE, symObjAddr: 0x24A74, symBinAddr: 0x10002D7F8, symSize: 0xE8 }
  - { offsetInCU: 0xB2FA, offset: 0x1FC87, size: 0x8, addend: 0x0, symName: __ZN7testing12_GLOBAL__N_126PrintByteSegmentInObjectToEPKhmmPNSt3__113basic_ostreamIcNS3_11char_traitsIcEEEE, symObjAddr: 0x332CC, symBinAddr: 0x10003B190, symSize: 0x10C }
  - { offsetInCU: 0xB398, offset: 0x1FD25, size: 0x8, addend: 0x0, symName: __ZN7testing12_GLOBAL__N_115IsSubstringPredEPKcS2_, symObjAddr: 0x40000, symBinAddr: 0x100047540, symSize: 0x94 }
  - { offsetInCU: 0xB3D6, offset: 0x1FD63, size: 0x8, addend: 0x0, symName: __ZN7testing12_GLOBAL__N_115IsSubstringPredEPKwS2_, symObjAddr: 0x40118, symBinAddr: 0x100047658, symSize: 0x94 }
  - { offsetInCU: 0xB414, offset: 0x1FDA1, size: 0x8, addend: 0x0, symName: __ZN7testing12_GLOBAL__N_115IsSubstringPredINSt3__112basic_stringIcNS2_11char_traitsIcEENS2_9allocatorIcEEEEEEbRKT_SB_, symObjAddr: 0x4028C, symBinAddr: 0x1000477CC, symSize: 0x3C }
  - { offsetInCU: 0xB45B, offset: 0x1FDE8, size: 0x8, addend: 0x0, symName: __ZN7testing12_GLOBAL__N_115IsSubstringPredINSt3__112basic_stringIwNS2_11char_traitsIwEENS2_9allocatorIwEEEEEEbRKT_SB_, symObjAddr: 0x4061C, symBinAddr: 0x100047B5C, symSize: 0x3C }
  - { offsetInCU: 0xB4AA, offset: 0x1FE37, size: 0x8, addend: 0x0, symName: __ZN7testingL16GetDefaultFilterEv, symObjAddr: 0x1B4, symBinAddr: 0x1000092F8, symSize: 0x5C }
  - { offsetInCU: 0xB4D8, offset: 0x1FE65, size: 0x8, addend: 0x0, symName: __ZN7testing16AssertionSuccessEv, symObjAddr: 0x4E08, symBinAddr: 0x10000DDCC, symSize: 0x38 }
  - { offsetInCU: 0xB4F7, offset: 0x1FE84, size: 0x8, addend: 0x0, symName: __ZN7testing16AssertionFailureEv, symObjAddr: 0x4E40, symBinAddr: 0x10000DE04, symSize: 0x34 }
  - { offsetInCU: 0xB516, offset: 0x1FEA3, size: 0x8, addend: 0x0, symName: __ZN7testing16AssertionFailureERKNS_7MessageE, symObjAddr: 0x4E74, symBinAddr: 0x10000DE38, symSize: 0x7C }
  - { offsetInCU: 0xB544, offset: 0x1FED1, size: 0x8, addend: 0x0, symName: __ZN7testing7FloatLEEPKcS1_ff, symObjAddr: 0x7AD0, symBinAddr: 0x100010A94, symSize: 0x44 }
  - { offsetInCU: 0xB59F, offset: 0x1FF2C, size: 0x8, addend: 0x0, symName: __ZN7testing8DoubleLEEPKcS1_dd, symObjAddr: 0x7E18, symBinAddr: 0x100010DDC, symSize: 0x44 }
  - { offsetInCU: 0xB5FA, offset: 0x1FF87, size: 0x8, addend: 0x0, symName: __ZN7testing13PrintToStringIPKcEENSt3__112basic_stringIcNS3_11char_traitsIcEENS3_9allocatorIcEEEERKT_, symObjAddr: 0x8CB4, symBinAddr: 0x100011C78, symSize: 0xCC }
  - { offsetInCU: 0xB63F, offset: 0x1FFCC, size: 0x8, addend: 0x0, symName: __ZN7testing11IsSubstringEPKcS1_S1_S1_, symObjAddr: 0x92DC, symBinAddr: 0x1000122A0, symSize: 0x50 }
  - { offsetInCU: 0xB69A, offset: 0x20027, size: 0x8, addend: 0x0, symName: __ZN7testing11IsSubstringEPKcS1_PKwS3_, symObjAddr: 0x958C, symBinAddr: 0x100012550, symSize: 0x50 }
  - { offsetInCU: 0xB6F5, offset: 0x20082, size: 0x8, addend: 0x0, symName: __ZN7testing14IsNotSubstringEPKcS1_S1_S1_, symObjAddr: 0x9840, symBinAddr: 0x100012804, symSize: 0x50 }
  - { offsetInCU: 0xB750, offset: 0x200DD, size: 0x8, addend: 0x0, symName: __ZN7testing14IsNotSubstringEPKcS1_PKwS3_, symObjAddr: 0x9890, symBinAddr: 0x100012854, symSize: 0x50 }
  - { offsetInCU: 0xB7AB, offset: 0x20138, size: 0x8, addend: 0x0, symName: __ZN7testing11IsSubstringEPKcS1_RKNSt3__112basic_stringIcNS2_11char_traitsIcEENS2_9allocatorIcEEEESA_, symObjAddr: 0x98E0, symBinAddr: 0x1000128A4, symSize: 0x4C }
  - { offsetInCU: 0xB806, offset: 0x20193, size: 0x8, addend: 0x0, symName: __ZN7testing14IsNotSubstringEPKcS1_RKNSt3__112basic_stringIcNS2_11char_traitsIcEENS2_9allocatorIcEEEESA_, symObjAddr: 0x9B84, symBinAddr: 0x100012B48, symSize: 0x4C }
  - { offsetInCU: 0xB861, offset: 0x201EE, size: 0x8, addend: 0x0, symName: __ZN7testing11IsSubstringEPKcS1_RKNSt3__112basic_stringIwNS2_11char_traitsIwEENS2_9allocatorIwEEEESA_, symObjAddr: 0x9BD0, symBinAddr: 0x100012B94, symSize: 0x4C }
  - { offsetInCU: 0xB8BC, offset: 0x20249, size: 0x8, addend: 0x0, symName: __ZN7testing14IsNotSubstringEPKcS1_RKNSt3__112basic_stringIwNS2_11char_traitsIwEENS2_9allocatorIwEEEESA_, symObjAddr: 0x9E78, symBinAddr: 0x100012E3C, symSize: 0x4C }
  - { offsetInCU: 0xB917, offset: 0x202A4, size: 0x8, addend: 0x0, symName: __ZN7testing13PrintToStringIPKwEENSt3__112basic_stringIcNS3_11char_traitsIcEENS3_9allocatorIcEEEERKT_, symObjAddr: 0xA630, symBinAddr: 0x100013564, symSize: 0xCC }
  - { offsetInCU: 0xB95C, offset: 0x202E9, size: 0x8, addend: 0x0, symName: __ZN7testingL24ValidateTestPropertyNameERKNSt3__112basic_stringIcNS0_11char_traitsIcEENS0_9allocatorIcEEEERKNS0_6vectorIS6_NS4_IS6_EEEE, symObjAddr: 0xB8D4, symBinAddr: 0x100014808, symSize: 0x208 }
  - { offsetInCU: 0xB99A, offset: 0x20327, size: 0x8, addend: 0x0, symName: __ZN7testingL31GetReservedAttributesForElementERKNSt3__112basic_stringIcNS0_11char_traitsIcEENS0_9allocatorIcEEEE, symObjAddr: 0xBADC, symBinAddr: 0x100014A10, symSize: 0x164 }
  - { offsetInCU: 0xB9C9, offset: 0x20356, size: 0x8, addend: 0x0, symName: __ZN7testingL15TestPartSkippedERKNS_14TestPartResultE, symObjAddr: 0xBE78, symBinAddr: 0x100014DAC, symSize: 0x28 }
  - { offsetInCU: 0xB9F8, offset: 0x20385, size: 0x8, addend: 0x0, symName: __ZN7testingL21TestPartFatallyFailedERKNS_14TestPartResultE, symObjAddr: 0xBF2C, symBinAddr: 0x100014E60, symSize: 0x28 }
  - { offsetInCU: 0xBA27, offset: 0x203B4, size: 0x8, addend: 0x0, symName: __ZN7testingL24TestPartNonfatallyFailedERKNS_14TestPartResultE, symObjAddr: 0xBF90, symBinAddr: 0x100014EC4, symSize: 0x28 }
  - { offsetInCU: 0xBA56, offset: 0x203E3, size: 0x8, addend: 0x0, symName: __ZN7testingL15FormatTestCountEi, symObjAddr: 0x101B0, symBinAddr: 0x1000190B8, symSize: 0x3C }
  - { offsetInCU: 0xBA85, offset: 0x20412, size: 0x8, addend: 0x0, symName: __ZN7testingL19FormatTestCaseCountEi, symObjAddr: 0x10214, symBinAddr: 0x10001911C, symSize: 0x3C }
  - { offsetInCU: 0xBAB4, offset: 0x20441, size: 0x8, addend: 0x0, symName: __ZN7testingL19FormatCountableNounEiPKcS1_, symObjAddr: 0x10408, symBinAddr: 0x100019310, symSize: 0xE8 }
  - { offsetInCU: 0xBB01, offset: 0x2048E, size: 0x8, addend: 0x0, symName: __ZN7testing14InitGoogleTestEPiPPc, symObjAddr: 0x1DA80, symBinAddr: 0x100026888, symSize: 0x2C }
  - { offsetInCU: 0xBB3A, offset: 0x204C7, size: 0x8, addend: 0x0, symName: __ZN7testing14InitGoogleTestEPiPPw, symObjAddr: 0x1DBA8, symBinAddr: 0x1000269B0, symSize: 0x2C }
  - { offsetInCU: 0xBB73, offset: 0x20500, size: 0x8, addend: 0x0, symName: __ZN7testing7TempDirEv, symObjAddr: 0x1DCD0, symBinAddr: 0x100026AD8, symSize: 0x30 }
  - { offsetInCU: 0xBC77, offset: 0x20604, size: 0x8, addend: 0x0, symName: __ZN7testing2EqINSt3__112basic_stringIcNS1_11char_traitsIcEENS1_9allocatorIcEEEEEENS_8internal9EqMatcherIT_EESA_, symObjAddr: 0x2350C, symBinAddr: 0x10002C314, symSize: 0x38 }
  - { offsetInCU: 0xBCB4, offset: 0x20641, size: 0x8, addend: 0x0, symName: __ZN7testing9internal220PrintBytesInObjectToEPKhmPNSt3__113basic_ostreamIcNS3_11char_traitsIcEEEE, symObjAddr: 0x24A40, symBinAddr: 0x10002D7C4, symSize: 0x34 }
  - { offsetInCU: 0xBCFA, offset: 0x20687, size: 0x8, addend: 0x0, symName: __ZN7testinglsERNSt3__113basic_ostreamIcNS0_11char_traitsIcEEEERKNS_14TestPartResultE, symObjAddr: 0x256D4, symBinAddr: 0x10002E430, symSize: 0x13C }
  - { offsetInCU: 0xBD34, offset: 0x206C1, size: 0x8, addend: 0x0, symName: __ZN7testingL14FormatWordListERKNSt3__16vectorINS0_12basic_stringIcNS0_11char_traitsIcEENS0_9allocatorIcEEEENS5_IS7_EEEE, symObjAddr: 0x2BB38, symBinAddr: 0x100033A28, symSize: 0x174 }
  - { offsetInCU: 0xBD87, offset: 0x20714, size: 0x8, addend: 0x0, symName: __ZN7testing13ArrayAsVectorILi8EEENSt3__16vectorINS1_12basic_stringIcNS1_11char_traitsIcEENS1_9allocatorIcEEEENS6_IS8_EEEERAT__KPKc, symObjAddr: 0x2BCAC, symBinAddr: 0x100033B9C, symSize: 0x40 }
  - { offsetInCU: 0xBDBF, offset: 0x2074C, size: 0x8, addend: 0x0, symName: __ZN7testing13ArrayAsVectorILi6EEENSt3__16vectorINS1_12basic_stringIcNS1_11char_traitsIcEENS1_9allocatorIcEEEENS6_IS8_EEEERAT__KPKc, symObjAddr: 0x2BCEC, symBinAddr: 0x100033BDC, symSize: 0x40 }
  - { offsetInCU: 0xBDF7, offset: 0x20784, size: 0x8, addend: 0x0, symName: __ZN7testingL26TestPartResultTypeToStringENS_14TestPartResult4TypeE, symObjAddr: 0x2D58C, symBinAddr: 0x100035450, symSize: 0x98 }
  - { offsetInCU: 0xBE26, offset: 0x207B3, size: 0x8, addend: 0x0, symName: __ZN7testing13PrintToStringIxEENSt3__112basic_stringIcNS1_11char_traitsIcEENS1_9allocatorIcEEEERKT_, symObjAddr: 0x3FDF0, symBinAddr: 0x100047330, symSize: 0xC8 }
  - { offsetInCU: 0xBE6B, offset: 0x207F8, size: 0x8, addend: 0x0, symName: __ZN7testing11MakeMatcherIRKNSt3__112basic_stringIcNS1_11char_traitsIcEENS1_9allocatorIcEEEEEENS_7MatcherIT_EEPKNS_16MatcherInterfaceISB_EE, symObjAddr: 0x53228, symBinAddr: 0x10005A6A0, symSize: 0x38 }
  - { offsetInCU: 0xBEA2, offset: 0x2082F, size: 0x8, addend: 0x0, symName: __ZN7testing11MakeMatcherINSt3__112basic_stringIcNS1_11char_traitsIcEENS1_9allocatorIcEEEEEENS_7MatcherIT_EEPKNS_16MatcherInterfaceIS9_EE, symObjAddr: 0x54210, symBinAddr: 0x10005B688, symSize: 0x38 }
  - { offsetInCU: 0xBED9, offset: 0x20866, size: 0x8, addend: 0x0, symName: __ZN7testinglsERNSt3__113basic_ostreamIcNS0_11char_traitsIcEEEERKNS_7MessageE, symObjAddr: 0x556D4, symBinAddr: 0x10005CB4C, symSize: 0x78 }
  - { offsetInCU: 0x1F15F, offset: 0x33AEC, size: 0x8, addend: 0x0, symName: __ZNSt3__1L19piecewise_constructE, symObjAddr: 0x5BE3D, symBinAddr: 0x1000676BD, symSize: 0x0 }
  - { offsetInCU: 0x2B61C, offset: 0x3FFA9, size: 0x8, addend: 0x0, symName: __ZNSt3__16copy_nB7v160006IPKcmPcEENS_9enable_ifIXsr33__is_cpp17_random_access_iteratorIT_EE5valueET1_E4typeES5_T0_S6_, symObjAddr: 0x369BC, symBinAddr: 0x10003E0C0, symSize: 0x44 }
  - { offsetInCU: 0x34AD1, offset: 0x4945E, size: 0x8, addend: 0x0, symName: __ZNSt3__1plB7v160006IcNS_11char_traitsIcEENS_9allocatorIcEEEENS_12basic_stringIT_T0_T1_EEOS9_PKS6_, symObjAddr: 0x25A4, symBinAddr: 0x10000B67C, symSize: 0x40 }
  - { offsetInCU: 0x34B29, offset: 0x494B6, size: 0x8, addend: 0x0, symName: __ZNSt3__1plB7v160006IcNS_11char_traitsIcEENS_9allocatorIcEEEENS_12basic_stringIT_T0_T1_EERKS9_PKS6_, symObjAddr: 0x25E4, symBinAddr: 0x10000B6BC, symSize: 0x11C }
  - { offsetInCU: 0x34BCA, offset: 0x49557, size: 0x8, addend: 0x0, symName: __ZNSt3__1lsB7v160006IcNS_11char_traitsIcEEEERNS_13basic_ostreamIT_T0_EES7_RKNS_8__iom_t5E, symObjAddr: 0x43C4, symBinAddr: 0x10000D3F0, symSize: 0x40 }
  - { offsetInCU: 0x34C16, offset: 0x495A3, size: 0x8, addend: 0x0, symName: __ZNSt3__112setprecisionB7v160006Ei, symObjAddr: 0x442C, symBinAddr: 0x10000D458, symSize: 0x2C }
  - { offsetInCU: 0x34C42, offset: 0x495CF, size: 0x8, addend: 0x0, symName: __ZNSt3__14swapB7v160006IbEENS_9enable_ifIXaasr21is_move_constructibleIT_EE5valuesr18is_move_assignableIS2_EE5valueEvE4typeERS2_S5_, symObjAddr: 0x4BD8, symBinAddr: 0x10000DBD8, symSize: 0x4C }
  - { offsetInCU: 0x34C94, offset: 0x49621, size: 0x8, addend: 0x0, symName: __ZNSt3__14swapB7v160006INS_12basic_stringIcNS_11char_traitsIcEENS_9allocatorIcEEEENS_14default_deleteIS6_EEEENS_9enable_ifIXsr14__is_swappableIT0_EE5valueEvE4typeERNS_10unique_ptrIT_SA_EESG_, symObjAddr: 0x4C24, symBinAddr: 0x10000DC24, symSize: 0x2C }
  - { offsetInCU: 0x34CE3, offset: 0x49670, size: 0x8, addend: 0x0, symName: __ZNSt3__17reverseB7v160006INS_11__wrap_iterIPN7testing8internal13edit_distance8EditTypeEEEEEvT_S8_, symObjAddr: 0x591C, symBinAddr: 0x10000E8E0, symSize: 0x3C }
  - { offsetInCU: 0x34D23, offset: 0x496B0, size: 0x8, addend: 0x0, symName: __ZNSt3__13minB7v160006ImEERKT_S3_S3_, symObjAddr: 0x6390, symBinAddr: 0x10000F354, symSize: 0x2C }
  - { offsetInCU: 0x364D8, offset: 0x4AE65, size: 0x8, addend: 0x0, symName: __ZNSt3__1neB7v160006IPKN7testing8internal13edit_distance8EditTypeEEEbRKNS_11__wrap_iterIT_EESB_, symObjAddr: 0x65BC, symBinAddr: 0x10000F580, symSize: 0x34 }
  - { offsetInCU: 0x3651B, offset: 0x4AEA8, size: 0x8, addend: 0x0, symName: __ZNSt3__1eqB7v160006IPKN7testing8internal13edit_distance8EditTypeEEEbRKNS_11__wrap_iterIT_EESB_, symObjAddr: 0x6658, symBinAddr: 0x10000F61C, symSize: 0x48 }
  - { offsetInCU: 0x3655E, offset: 0x4AEEB, size: 0x8, addend: 0x0, symName: __ZNSt3__1miB7v160006IPKN7testing8internal13edit_distance8EditTypeES6_EEDTmicldtfp_4baseEcldtfp0_4baseEERKNS_11__wrap_iterIT_EERKNS8_IT0_EE, symObjAddr: 0x66A0, symBinAddr: 0x10000F664, symSize: 0x48 }
  - { offsetInCU: 0x365AA, offset: 0x4AF37, size: 0x8, addend: 0x0, symName: __ZNSt3__1neB7v160006IcNS_11char_traitsIcEENS_9allocatorIcEEEEbRKNS_12basic_stringIT_T0_T1_EEPKS6_, symObjAddr: 0x6CA0, symBinAddr: 0x10000FC64, symSize: 0x34 }
  - { offsetInCU: 0x36602, offset: 0x4AF8F, size: 0x8, addend: 0x0, symName: __ZNSt3__1lsB7v160006IcNS_11char_traitsIcEEEERNS_13basic_ostreamIT_T0_EES7_RKNS_8__iom_t6E, symObjAddr: 0xABA8, symBinAddr: 0x100013ADC, symSize: 0x40 }
  - { offsetInCU: 0x36651, offset: 0x4AFDE, size: 0x8, addend: 0x0, symName: __ZNSt3__1lsB7v160006INS_11char_traitsIcEEEERNS_13basic_ostreamIcT_EES6_RKNS_8__iom_t4IcEE, symObjAddr: 0xABE8, symBinAddr: 0x100013B1C, symSize: 0x40 }
  - { offsetInCU: 0x36694, offset: 0x4B021, size: 0x8, addend: 0x0, symName: __ZNSt3__17setfillB7v160006IcEENS_8__iom_t4IT_EES2_, symObjAddr: 0xAC28, symBinAddr: 0x100013B5C, symSize: 0x2C }
  - { offsetInCU: 0x366C9, offset: 0x4B056, size: 0x8, addend: 0x0, symName: __ZNSt3__14setwB7v160006Ei, symObjAddr: 0xAC54, symBinAddr: 0x100013B88, symSize: 0x2C }
  - { offsetInCU: 0x366F7, offset: 0x4B084, size: 0x8, addend: 0x0, symName: __ZNSt3__13hexB7v160006ERNS_8ios_baseE, symObjAddr: 0xACC0, symBinAddr: 0x100013BF4, symSize: 0x30 }
  - { offsetInCU: 0x36725, offset: 0x4B0B2, size: 0x8, addend: 0x0, symName: __ZNSt3__19uppercaseB7v160006ERNS_8ios_baseE, symObjAddr: 0xACF0, symBinAddr: 0x100013C24, symSize: 0x2C }
  - { offsetInCU: 0x36753, offset: 0x4B0E0, size: 0x8, addend: 0x0, symName: __ZNSt3__1plB7v160006IcNS_11char_traitsIcEENS_9allocatorIcEEEENS_12basic_stringIT_T0_T1_EEOS9_RKS9_, symObjAddr: 0xAE84, symBinAddr: 0x100013DB8, symSize: 0x40 }
  - { offsetInCU: 0x367AB, offset: 0x4B138, size: 0x8, addend: 0x0, symName: __ZNSt3__17find_ifB7v160006INS_11__wrap_iterIPN7testing12TestPropertyEEENS2_8internal17TestPropertyKeyIsEEET_S8_S8_T0_, symObjAddr: 0xB640, symBinAddr: 0x100014574, symSize: 0x7C }
  - { offsetInCU: 0x36806, offset: 0x4B193, size: 0x8, addend: 0x0, symName: __ZNSt3__1eqB7v160006IPN7testing12TestPropertyEEEbRKNS_11__wrap_iterIT_EES8_, symObjAddr: 0xB7A0, symBinAddr: 0x1000146D4, symSize: 0x48 }
  - { offsetInCU: 0x36867, offset: 0x4B1F4, size: 0x8, addend: 0x0, symName: __ZNSt3__1neB7v160006IPKcEEbRKNS_11__wrap_iterIT_EES7_, symObjAddr: 0x13854, symBinAddr: 0x10001C708, symSize: 0x34 }
  - { offsetInCU: 0x368AA, offset: 0x4B237, size: 0x8, addend: 0x0, symName: __ZNSt3__1plB7v160006IcNS_11char_traitsIcEENS_9allocatorIcEEEENS_12basic_stringIT_T0_T1_EEOS9_SA_, symObjAddr: 0x13DC4, symBinAddr: 0x10001CC78, symSize: 0x40 }
  - { offsetInCU: 0x36902, offset: 0x4B28F, size: 0x8, addend: 0x0, symName: __ZNSt3__1neB7v160006IPKNS_12basic_stringIcNS_11char_traitsIcEENS_9allocatorIcEEEEEEbRKNS_11__wrap_iterIT_EESD_, symObjAddr: 0x141CC, symBinAddr: 0x10001D080, symSize: 0x34 }
  - { offsetInCU: 0x36945, offset: 0x4B2D2, size: 0x8, addend: 0x0, symName: __ZNSt3__14findB7v160006INS_11__wrap_iterIPKNS_12basic_stringIcNS_11char_traitsIcEENS_9allocatorIcEEEEEES7_EET_SB_SB_RKT0_, symObjAddr: 0x14200, symBinAddr: 0x10001D0B4, symSize: 0x74 }
  - { offsetInCU: 0x3699F, offset: 0x4B32C, size: 0x8, addend: 0x0, symName: __ZNSt3__17find_ifB7v160006INS_16reverse_iteratorINS_11__wrap_iterIPPN7testing8TestCaseEEEEENS3_8internal14TestCaseNameIsEEET_SB_SB_T0_, symObjAddr: 0x1B1CC, symBinAddr: 0x100023FD4, symSize: 0x8C }
  - { offsetInCU: 0x369FA, offset: 0x4B387, size: 0x8, addend: 0x0, symName: __ZNSt3__1neB7v160006INS_11__wrap_iterIPKPN7testing8TestCaseEEENS1_IPS4_EEEEbRKNS_16reverse_iteratorIT_EERKNSA_IT0_EE, symObjAddr: 0x1B374, symBinAddr: 0x10002417C, symSize: 0x54 }
  - { offsetInCU: 0x36A46, offset: 0x4B3D3, size: 0x8, addend: 0x0, symName: __ZNSt3__18for_eachB7v160006INS_16reverse_iteratorINS_11__wrap_iterIPPN7testing11EnvironmentEEEEEPFvS5_EEET0_T_SC_SB_, symObjAddr: 0x1C368, symBinAddr: 0x100025170, symSize: 0x74 }
  - { offsetInCU: 0x36AA0, offset: 0x4B42D, size: 0x8, addend: 0x0, symName: __ZNSt3__1plB7v160006IcNS_11char_traitsIcEENS_9allocatorIcEEEENS_12basic_stringIT_T0_T1_EERKS9_S6_, symObjAddr: 0x22E1C, symBinAddr: 0x10002BC24, symSize: 0x110 }
  - { offsetInCU: 0x37CC1, offset: 0x4C64E, size: 0x8, addend: 0x0, symName: __ZNSt3__1neB7v160006IPKNS_12basic_stringIcNS_11char_traitsIcEENS_9allocatorIcEEEEPS6_EEbRKNS_11__wrap_iterIT_EERKNSA_IT0_EE, symObjAddr: 0x261B0, symBinAddr: 0x10002EF0C, symSize: 0x34 }
  - { offsetInCU: 0x37D0D, offset: 0x4C69A, size: 0x8, addend: 0x0, symName: __ZNSt3__1neB7v160006ERKNS_20__map_const_iteratorINS_21__tree_const_iteratorINS_12__value_typeINS_12basic_stringIcNS_11char_traitsIcEENS_9allocatorIcEEEEN7testing8internal12CodeLocationEEEPNS_11__tree_nodeISC_PvEElEEEESK_, symObjAddr: 0x262C4, symBinAddr: 0x10002F020, symSize: 0x30 }
  - { offsetInCU: 0x37D7D, offset: 0x4C70A, size: 0x8, addend: 0x0, symName: __ZNSt3__1neB7v160006ERKNS_14__map_iteratorINS_15__tree_iteratorINS_12__value_typeINS_12basic_stringIcNS_11char_traitsIcEENS_9allocatorIcEEEEmEEPNS_11__tree_nodeIS9_PvEElEEEESH_, symObjAddr: 0x27858, symBinAddr: 0x100030248, symSize: 0x30 }
  - { offsetInCU: 0x37DBA, offset: 0x4C747, size: 0x8, addend: 0x0, symName: __ZNSt3__1neB7v160006ERKNS_15__tree_iteratorINS_12__value_typeINS_12basic_stringIcNS_11char_traitsIcEENS_9allocatorIcEEEEmEEPNS_11__tree_nodeIS8_PvEElEESF_, symObjAddr: 0x27B8C, symBinAddr: 0x10003057C, symSize: 0x34 }
  - { offsetInCU: 0x37DF7, offset: 0x4C784, size: 0x8, addend: 0x0, symName: __ZNSt3__1ltB7v160006IcNS_11char_traitsIcEENS_9allocatorIcEEEEbRKNS_12basic_stringIT_T0_T1_EESB_, symObjAddr: 0x27D58, symBinAddr: 0x100030748, symSize: 0x38 }
  - { offsetInCU: 0x37E73, offset: 0x4C800, size: 0x8, addend: 0x0, symName: __ZNSt3__1eqB7v160006ERKNS_15__tree_iteratorINS_12__value_typeINS_12basic_stringIcNS_11char_traitsIcEENS_9allocatorIcEEEEmEEPNS_11__tree_nodeIS8_PvEElEESF_, symObjAddr: 0x28114, symBinAddr: 0x100030A64, symSize: 0x30 }
  - { offsetInCU: 0x37F4D, offset: 0x4C8DA, size: 0x8, addend: 0x0, symName: __ZNSt3__116forward_as_tupleB7v160006IJRKNS_12basic_stringIcNS_11char_traitsIcEENS_9allocatorIcEEEEEEENS_5tupleIJDpOT_EEESC_, symObjAddr: 0x2837C, symBinAddr: 0x100030CB8, symSize: 0x2C }
  - { offsetInCU: 0x37F86, offset: 0x4C913, size: 0x8, addend: 0x0, symName: __ZNSt3__116forward_as_tupleB7v160006IJEEENS_5tupleIJDpOT_EEES4_, symObjAddr: 0x283A8, symBinAddr: 0x100030CE4, symSize: 0x4 }
  - { offsetInCU: 0x37FD4, offset: 0x4C961, size: 0x8, addend: 0x0, symName: __ZNSt3__13getB7v160006ILm0EJRKNS_12basic_stringIcNS_11char_traitsIcEENS_9allocatorIcEEEEEEERNS_13tuple_elementIXT_ENS_5tupleIJDpT0_EEEE4typeERSD_, symObjAddr: 0x28D6C, symBinAddr: 0x100031628, symSize: 0x24 }
  - { offsetInCU: 0x38017, offset: 0x4C9A4, size: 0x8, addend: 0x0, symName: __ZNSt3__127__tree_balance_after_insertB7v160006IPNS_16__tree_node_baseIPvEEEEvT_S5_, symObjAddr: 0x28E1C, symBinAddr: 0x1000316D8, symSize: 0x32C }
  - { offsetInCU: 0x38095, offset: 0x4CA22, size: 0x8, addend: 0x0, symName: __ZNSt3__120__tree_is_left_childB7v160006IPNS_16__tree_node_baseIPvEEEEbT_, symObjAddr: 0x29188, symBinAddr: 0x100031A44, symSize: 0x2C }
  - { offsetInCU: 0x380CA, offset: 0x4CA57, size: 0x8, addend: 0x0, symName: __ZNSt3__118__tree_left_rotateB7v160006IPNS_16__tree_node_baseIPvEEEEvT_, symObjAddr: 0x291B4, symBinAddr: 0x100031A70, symSize: 0xD8 }
  - { offsetInCU: 0x3810C, offset: 0x4CA99, size: 0x8, addend: 0x0, symName: __ZNSt3__119__tree_right_rotateB7v160006IPNS_16__tree_node_baseIPvEEEEvT_, symObjAddr: 0x2928C, symBinAddr: 0x100031B48, symSize: 0xCC }
  - { offsetInCU: 0x38173, offset: 0x4CB00, size: 0x8, addend: 0x0, symName: __ZNSt3__119__debug_db_insert_cB7v160006INS_4listINS_4pairIcPKcEENS_9allocatorIS5_EEEEEEvPT_, symObjAddr: 0x29A80, symBinAddr: 0x1000322AC, symSize: 0x10 }
  - { offsetInCU: 0x381D6, offset: 0x4CB63, size: 0x8, addend: 0x0, symName: __ZNSt3__19make_pairB7v160006IcRPKcEENS_4pairINS_18__unwrap_ref_decayIT_E4typeENS5_IT0_E4typeEEEOS6_OS9_, symObjAddr: 0x29DB8, symBinAddr: 0x1000325E4, symSize: 0x38 }
  - { offsetInCU: 0x38243, offset: 0x4CBD0, size: 0x8, addend: 0x0, symName: __ZNSt3__1neB7v160006ERKNS_21__list_const_iteratorINS_4pairIcPKcEEPvEES8_, symObjAddr: 0x2AA34, symBinAddr: 0x100033260, symSize: 0x34 }
  - { offsetInCU: 0x38280, offset: 0x4CC0D, size: 0x8, addend: 0x0, symName: __ZNSt3__1lsB7v160006INS_11char_traitsIcEEEERNS_13basic_ostreamIcT_EES6_c, symObjAddr: 0x2AA68, symBinAddr: 0x100033294, symSize: 0x34 }
  - { offsetInCU: 0x382C6, offset: 0x4CC53, size: 0x8, addend: 0x0, symName: __ZNSt3__1eqB7v160006ERKNS_21__list_const_iteratorINS_4pairIcPKcEEPvEES8_, symObjAddr: 0x2AB1C, symBinAddr: 0x100033348, symSize: 0x30 }
  - { offsetInCU: 0x38337, offset: 0x4CCC4, size: 0x8, addend: 0x0, symName: __ZNSt3__118__debug_db_erase_cB7v160006INS_10__list_impINS_4pairIcPKcEENS_9allocatorIS5_EEEEEEvPT_, symObjAddr: 0x2B67C, symBinAddr: 0x10003356C, symSize: 0x10 }
  - { offsetInCU: 0x38368, offset: 0x4CCF5, size: 0x8, addend: 0x0, symName: __ZNSt3__125__debug_db_invalidate_allB7v160006INS_10__list_impINS_4pairIcPKcEENS_9allocatorIS5_EEEEEEvPT_, symObjAddr: 0x2B6A0, symBinAddr: 0x100033590, symSize: 0x10 }
  - { offsetInCU: 0x38398, offset: 0x4CD25, size: 0x8, addend: 0x0, symName: __ZNSt3__122__make_exception_guardB7v160006INS_6vectorINS_12basic_stringIcNS_11char_traitsIcEENS_9allocatorIcEEEENS5_IS7_EEE16__destroy_vectorEEENS_28__exception_guard_exceptionsIT_EESC_, symObjAddr: 0x2BEAC, symBinAddr: 0x100033D9C, symSize: 0x40 }
  - { offsetInCU: 0x383CE, offset: 0x4CD5B, size: 0x8, addend: 0x0, symName: __ZNSt3__119__debug_db_insert_cB7v160006INS_6vectorINS_12basic_stringIcNS_11char_traitsIcEENS_9allocatorIcEEEENS5_IS7_EEEEEEvPT_, symObjAddr: 0x2BF20, symBinAddr: 0x100033E10, symSize: 0x10 }
  - { offsetInCU: 0x383FE, offset: 0x4CD8B, size: 0x8, addend: 0x0, symName: __ZNSt3__18distanceB7v160006IPKPKcEENS_15iterator_traitsIT_E15difference_typeES6_S6_, symObjAddr: 0x2BF30, symBinAddr: 0x100033E20, symSize: 0x2C }
  - { offsetInCU: 0x38441, offset: 0x4CDCE, size: 0x8, addend: 0x0, symName: __ZNSt3__110__distanceB7v160006IPKPKcEENS_15iterator_traitsIT_E15difference_typeES6_S6_NS_26random_access_iterator_tagE, symObjAddr: 0x2C224, symBinAddr: 0x100034114, symSize: 0x28 }
  - { offsetInCU: 0x3848F, offset: 0x4CE1C, size: 0x8, addend: 0x0, symName: __ZNSt3__119__allocate_at_leastB7v160006INS_9allocatorINS_12basic_stringIcNS_11char_traitsIcEENS1_IcEEEEEEEENS_19__allocation_resultINS_16allocator_traitsIT_E7pointerEEERSA_m, symObjAddr: 0x2C2C8, symBinAddr: 0x1000341B8, symSize: 0x40 }
  - { offsetInCU: 0x386D4, offset: 0x4D061, size: 0x8, addend: 0x0, symName: __ZNSt3__120__throw_length_errorB7v160006EPKc, symObjAddr: 0x2C4D8, symBinAddr: 0x1000343C8, symSize: 0x64 }
  - { offsetInCU: 0x386FC, offset: 0x4D089, size: 0x8, addend: 0x0, symName: __ZNSt3__112__to_addressB7v160006INS_12basic_stringIcNS_11char_traitsIcEENS_9allocatorIcEEEEEEPT_S8_, symObjAddr: 0x2C6FC, symBinAddr: 0x1000345EC, symSize: 0x14 }
  - { offsetInCU: 0x38731, offset: 0x4D0BE, size: 0x8, addend: 0x0, symName: __ZNSt3__130__uninitialized_allocator_copyB7v160006INS_9allocatorINS_12basic_stringIcNS_11char_traitsIcEENS1_IcEEEEEEPKPKcSB_PS6_EET2_RT_T0_T1_SD_, symObjAddr: 0x2C798, symBinAddr: 0x100034688, symSize: 0xF4 }
  - { offsetInCU: 0x387CF, offset: 0x4D15C, size: 0x8, addend: 0x0, symName: __ZNSt3__122__make_exception_guardB7v160006INS_29_AllocatorDestroyRangeReverseINS_9allocatorINS_12basic_stringIcNS_11char_traitsIcEENS2_IcEEEEEEPS7_EEEENS_28__exception_guard_exceptionsIT_EESC_, symObjAddr: 0x2C904, symBinAddr: 0x1000347F4, symSize: 0x4C }
  - { offsetInCU: 0x38805, offset: 0x4D192, size: 0x8, addend: 0x0, symName: __ZNSt3__119__allocator_destroyB7v160006INS_9allocatorINS_12basic_stringIcNS_11char_traitsIcEENS1_IcEEEEEENS_16reverse_iteratorIPS6_EESA_EEvRT_T0_T1_, symObjAddr: 0x2CB98, symBinAddr: 0x100034A88, symSize: 0x70 }
  - { offsetInCU: 0x38868, offset: 0x4D1F5, size: 0x8, addend: 0x0, symName: __ZNSt3__1neB7v160006IPNS_12basic_stringIcNS_11char_traitsIcEENS_9allocatorIcEEEES7_EEbRKNS_16reverse_iteratorIT_EERKNS8_IT0_EE, symObjAddr: 0x2CC3C, symBinAddr: 0x100034B2C, symSize: 0x48 }
  - { offsetInCU: 0x388B4, offset: 0x4D241, size: 0x8, addend: 0x0, symName: __ZNSt3__112__to_addressB7v160006INS_16reverse_iteratorIPNS_12basic_stringIcNS_11char_traitsIcEENS_9allocatorIcEEEEEEvEENS_5decayIDTclsr19__to_address_helperIT_EE6__callclsr3stdE7declvalIRKSB_EEEEE4typeESD_, symObjAddr: 0x2CCB0, symBinAddr: 0x100034BA0, symSize: 0x24 }
  - { offsetInCU: 0x38915, offset: 0x4D2A2, size: 0x8, addend: 0x0, symName: __ZNSt3__118__debug_db_erase_cB7v160006INS_6vectorINS_12basic_stringIcNS_11char_traitsIcEENS_9allocatorIcEEEENS5_IS7_EEEEEEvPT_, symObjAddr: 0x2CFC0, symBinAddr: 0x100034EB0, symSize: 0x10 }
  - { offsetInCU: 0x38945, offset: 0x4D2D2, size: 0x8, addend: 0x0, symName: __ZNSt3__1neB7v160006IPPN7testing8internal29ParameterizedTestCaseInfoBaseEEEbRKNS_11__wrap_iterIT_EESA_, symObjAddr: 0x2D3FC, symBinAddr: 0x1000352C0, symSize: 0x34 }
  - { offsetInCU: 0x38988, offset: 0x4D315, size: 0x8, addend: 0x0, symName: __ZNSt3__1eqB7v160006IPPN7testing8internal29ParameterizedTestCaseInfoBaseEEEbRKNS_11__wrap_iterIT_EESA_, symObjAddr: 0x2D52C, symBinAddr: 0x1000353F0, symSize: 0x48 }
  - { offsetInCU: 0x389CB, offset: 0x4D358, size: 0x8, addend: 0x0, symName: __ZNSt3__1eqB7v160006IPKcEEbRKNS_11__wrap_iterIT_EES7_, symObjAddr: 0x2D764, symBinAddr: 0x100035628, symSize: 0x48 }
  - { offsetInCU: 0x38A0E, offset: 0x4D39B, size: 0x8, addend: 0x0, symName: __ZNSt3__1eqB7v160006IPKNS_12basic_stringIcNS_11char_traitsIcEENS_9allocatorIcEEEEEEbRKNS_11__wrap_iterIT_EESD_, symObjAddr: 0x2D7C4, symBinAddr: 0x100035688, symSize: 0x48 }
  - { offsetInCU: 0x38A52, offset: 0x4D3DF, size: 0x8, addend: 0x0, symName: __ZNSt3__119__debug_db_insert_cB7v160006INS_6vectorIPN7testing17TestEventListenerENS_9allocatorIS4_EEEEEEvPT_, symObjAddr: 0x2D93C, symBinAddr: 0x100035800, symSize: 0x10 }
  - { offsetInCU: 0x38A83, offset: 0x4D410, size: 0x8, addend: 0x0, symName: __ZNSt3__119__debug_db_insert_cB7v160006INS_6vectorIPN7testing8internal29ParameterizedTestCaseInfoBaseENS_9allocatorIS5_EEEEEEvPT_, symObjAddr: 0x2E2EC, symBinAddr: 0x1000361B0, symSize: 0x10 }
  - { offsetInCU: 0x38AB4, offset: 0x4D441, size: 0x8, addend: 0x0, symName: __ZNSt3__118__debug_db_erase_cB7v160006INS_6vectorIPN7testing8internal29ParameterizedTestCaseInfoBaseENS_9allocatorIS5_EEEEEEvPT_, symObjAddr: 0x2E84C, symBinAddr: 0x100036710, symSize: 0x10 }
  - { offsetInCU: 0x38AE4, offset: 0x4D471, size: 0x8, addend: 0x0, symName: __ZNSt3__112__to_addressB7v160006IPN7testing8internal29ParameterizedTestCaseInfoBaseEEEPT_S6_, symObjAddr: 0x2E990, symBinAddr: 0x100036854, symSize: 0x14 }
  - { offsetInCU: 0x38B1A, offset: 0x4D4A7, size: 0x8, addend: 0x0, symName: __ZNSt3__119__debug_db_insert_cB7v160006INS_6vectorIPcNS_9allocatorIS2_EEEEEEvPT_, symObjAddr: 0x2F438, symBinAddr: 0x1000372FC, symSize: 0x10 }
  - { offsetInCU: 0x38B4A, offset: 0x4D4D7, size: 0x8, addend: 0x0, symName: __ZNSt3__112__to_addressB7v160006IPcEEPT_S3_, symObjAddr: 0x2F770, symBinAddr: 0x100037634, symSize: 0x14 }
  - { offsetInCU: 0x38B7F, offset: 0x4D50C, size: 0x8, addend: 0x0, symName: __ZNSt3__13maxB7v160006ImEERKT_S3_S3_, symObjAddr: 0x2FB94, symBinAddr: 0x100037A58, symSize: 0x2C }
  - { offsetInCU: 0x38BC2, offset: 0x4D54F, size: 0x8, addend: 0x0, symName: __ZNSt3__13maxB7v160006ImNS_6__lessImmEEEERKT_S5_S5_T0_, symObjAddr: 0x2FCB8, symBinAddr: 0x100037B7C, symSize: 0x54 }
  - { offsetInCU: 0x38C57, offset: 0x4D5E4, size: 0x8, addend: 0x0, symName: __ZNSt3__119__allocate_at_leastB7v160006INS_9allocatorIPcEEEENS_19__allocation_resultINS_16allocator_traitsIT_E7pointerEEERS6_m, symObjAddr: 0x2FE50, symBinAddr: 0x100037D14, symSize: 0x40 }
  - { offsetInCU: 0x38C9A, offset: 0x4D627, size: 0x8, addend: 0x0, symName: __ZNSt3__142__uninitialized_allocator_move_if_noexceptB7v160006INS_9allocatorIPcEENS_16reverse_iteratorIPS2_EES6_S2_vEET1_RT_T0_SA_S7_, symObjAddr: 0x300BC, symBinAddr: 0x100037F80, symSize: 0x78 }
  - { offsetInCU: 0x38D18, offset: 0x4D6A5, size: 0x8, addend: 0x0, symName: __ZNSt3__14swapB7v160006IPPcEENS_9enable_ifIXaasr21is_move_constructibleIT_EE5valuesr18is_move_assignableIS4_EE5valueEvE4typeERS4_S7_, symObjAddr: 0x30180, symBinAddr: 0x100038044, symSize: 0x3C }
  - { offsetInCU: 0x38D6B, offset: 0x4D6F8, size: 0x8, addend: 0x0, symName: __ZNSt3__125__debug_db_invalidate_allB7v160006INS_6vectorIPcNS_9allocatorIS2_EEEEEEvPT_, symObjAddr: 0x30268, symBinAddr: 0x10003812C, symSize: 0x10 }
  - { offsetInCU: 0x38D9B, offset: 0x4D728, size: 0x8, addend: 0x0, symName: __ZNSt3__14moveB7v160006INS_16reverse_iteratorIPPcEES4_EET0_T_S6_S5_, symObjAddr: 0x302C0, symBinAddr: 0x100038184, symSize: 0x78 }
  - { offsetInCU: 0x38DF5, offset: 0x4D782, size: 0x8, addend: 0x0, symName: __ZNSt3__16__moveB7v160006INS_17_ClassicAlgPolicyENS_16reverse_iteratorIPPcEES5_S5_EENS_4pairIT0_T2_EES7_T1_S8_, symObjAddr: 0x30338, symBinAddr: 0x1000381FC, symSize: 0x64 }
  - { offsetInCU: 0x38E61, offset: 0x4D7EE, size: 0x8, addend: 0x0, symName: __ZNSt3__123__dispatch_copy_or_moveB7v160006INS_17_ClassicAlgPolicyENS_11__move_loopIS1_EENS_14__move_trivialENS_16reverse_iteratorIPPcEES8_S8_EENS_4pairIT2_T4_EESA_T3_SB_, symObjAddr: 0x3039C, symBinAddr: 0x100038260, symSize: 0x64 }
  - { offsetInCU: 0x38EDF, offset: 0x4D86C, size: 0x8, addend: 0x0, symName: __ZNSt3__121__unwrap_and_dispatchB7v160006INS_10__overloadINS_11__move_loopINS_17_ClassicAlgPolicyEEENS_14__move_trivialEEENS_16reverse_iteratorIPPcEESA_SA_Li0EEENS_4pairIT0_T2_EESC_T1_SD_, symObjAddr: 0x30400, symBinAddr: 0x1000382C4, symSize: 0x12C }
  - { offsetInCU: 0x38F72, offset: 0x4D8FF, size: 0x8, addend: 0x0, symName: __ZNSt3__114__unwrap_rangeB7v160006INS_16reverse_iteratorIPPcEES4_EENS_4pairIT0_S6_EET_S8_, symObjAddr: 0x3052C, symBinAddr: 0x1000383F0, symSize: 0x84 }
  - { offsetInCU: 0x392A6, offset: 0x4DC33, size: 0x8, addend: 0x0, symName: __ZNSt3__113__unwrap_iterB7v160006INS_16reverse_iteratorIPPcEENS_18__unwrap_iter_implIS4_Lb0EEELi0EEEDTclsrT0_8__unwrapclsr3stdE7declvalIT_EEEES8_, symObjAddr: 0x30650, symBinAddr: 0x100038514, symSize: 0x44 }
  - { offsetInCU: 0x392EB, offset: 0x4DC78, size: 0x8, addend: 0x0, symName: __ZNSt3__19make_pairB7v160006INS_16reverse_iteratorIPPcEES4_EENS_4pairINS_18__unwrap_ref_decayIT_E4typeENS6_IT0_E4typeEEEOS7_OSA_, symObjAddr: 0x30694, symBinAddr: 0x100038558, symSize: 0x38 }
  - { offsetInCU: 0x3933A, offset: 0x4DCC7, size: 0x8, addend: 0x0, symName: __ZNSt3__114__rewrap_rangeB7v160006INS_16reverse_iteratorIPPcEES4_EET_S5_T0_, symObjAddr: 0x306CC, symBinAddr: 0x100038590, symSize: 0x5C }
  - { offsetInCU: 0x39386, offset: 0x4DD13, size: 0x8, addend: 0x0, symName: __ZNSt3__113__rewrap_iterB7v160006INS_16reverse_iteratorIPPcEES4_NS_18__unwrap_iter_implIS4_Lb0EEEEET_S7_T0_, symObjAddr: 0x30728, symBinAddr: 0x1000385EC, symSize: 0x74 }
  - { offsetInCU: 0x393DB, offset: 0x4DD68, size: 0x8, addend: 0x0, symName: __ZNSt3__1neB7v160006IPPcS2_EEbRKNS_16reverse_iteratorIT_EERKNS3_IT0_EE, symObjAddr: 0x3079C, symBinAddr: 0x100038660, symSize: 0x48 }
  - { offsetInCU: 0x39667, offset: 0x4DFF4, size: 0x8, addend: 0x0, symName: __ZNSt3__118__debug_db_erase_cB7v160006INS_6vectorIPcNS_9allocatorIS2_EEEEEEvPT_, symObjAddr: 0x30D14, symBinAddr: 0x100038BD8, symSize: 0x10 }
  - { offsetInCU: 0x39697, offset: 0x4E024, size: 0x8, addend: 0x0, symName: __ZNSt3__1miB7v160006IPKPcPS1_EEDTmicldtfp_4baseEcldtfp0_4baseEERKNS_11__wrap_iterIT_EERKNS6_IT0_EE, symObjAddr: 0x3102C, symBinAddr: 0x100038EF0, symSize: 0x48 }
  - { offsetInCU: 0x396E3, offset: 0x4E070, size: 0x8, addend: 0x0, symName: __ZNSt3__113move_backwardB7v160006IPPcS2_EET0_T_S4_S3_, symObjAddr: 0x315E8, symBinAddr: 0x1000394AC, symSize: 0x40 }
  - { offsetInCU: 0x3973D, offset: 0x4E0CA, size: 0x8, addend: 0x0, symName: __ZNSt3__115__move_backwardB7v160006INS_17_ClassicAlgPolicyEPPcS3_S3_EENS_4pairIT0_T2_EES5_T1_S6_, symObjAddr: 0x31628, symBinAddr: 0x1000394EC, symSize: 0x44 }
  - { offsetInCU: 0x397A9, offset: 0x4E136, size: 0x8, addend: 0x0, symName: __ZNSt3__123__dispatch_copy_or_moveB7v160006INS_17_ClassicAlgPolicyENS_20__move_backward_loopIS1_EENS_23__move_backward_trivialEPPcS6_S6_EENS_4pairIT2_T4_EES8_T3_S9_, symObjAddr: 0x3166C, symBinAddr: 0x100039530, symSize: 0x44 }
  - { offsetInCU: 0x39827, offset: 0x4E1B4, size: 0x8, addend: 0x0, symName: __ZNSt3__121__unwrap_and_dispatchB7v160006INS_10__overloadINS_20__move_backward_loopINS_17_ClassicAlgPolicyEEENS_23__move_backward_trivialEEEPPcS8_S8_Li0EEENS_4pairIT0_T2_EESA_T1_SB_, symObjAddr: 0x316B0, symBinAddr: 0x100039574, symSize: 0xB4 }
  - { offsetInCU: 0x398B8, offset: 0x4E245, size: 0x8, addend: 0x0, symName: __ZNSt3__114__unwrap_rangeB7v160006IPPcS2_EENS_4pairIT0_S4_EET_S6_, symObjAddr: 0x31764, symBinAddr: 0x100039628, symSize: 0x60 }
  - { offsetInCU: 0x39ABA, offset: 0x4E447, size: 0x8, addend: 0x0, symName: __ZNSt3__113__unwrap_iterB7v160006IPPcNS_18__unwrap_iter_implIS2_Lb1EEELi0EEEDTclsrT0_8__unwrapclsr3stdE7declvalIT_EEEES6_, symObjAddr: 0x3180C, symBinAddr: 0x1000396D0, symSize: 0x24 }
  - { offsetInCU: 0x39AFF, offset: 0x4E48C, size: 0x8, addend: 0x0, symName: __ZNSt3__19make_pairB7v160006IPPcS2_EENS_4pairINS_18__unwrap_ref_decayIT_E4typeENS4_IT0_E4typeEEEOS5_OS8_, symObjAddr: 0x31830, symBinAddr: 0x1000396F4, symSize: 0x38 }
  - { offsetInCU: 0x39B4E, offset: 0x4E4DB, size: 0x8, addend: 0x0, symName: __ZNSt3__114__rewrap_rangeB7v160006IPPcS2_EET_S3_T0_, symObjAddr: 0x31868, symBinAddr: 0x10003972C, symSize: 0x2C }
  - { offsetInCU: 0x39B9A, offset: 0x4E527, size: 0x8, addend: 0x0, symName: __ZNSt3__113__rewrap_iterB7v160006IPPcS2_NS_18__unwrap_iter_implIS2_Lb1EEEEET_S5_T0_, symObjAddr: 0x31894, symBinAddr: 0x100039758, symSize: 0x3C }
  - { offsetInCU: 0x39BEF, offset: 0x4E57C, size: 0x8, addend: 0x0, symName: __ZNSt3__128__copy_backward_trivial_implB7v160006IPcS1_EENS_4pairIPT_PT0_EES4_S4_S6_, symObjAddr: 0x318D0, symBinAddr: 0x100039794, symSize: 0x94 }
  - { offsetInCU: 0x39C58, offset: 0x4E5E5, size: 0x8, addend: 0x0, symName: __ZNSt3__19make_pairB7v160006IRPPcS3_EENS_4pairINS_18__unwrap_ref_decayIT_E4typeENS5_IT0_E4typeEEEOS6_OS9_, symObjAddr: 0x31964, symBinAddr: 0x100039828, symSize: 0x38 }
  - { offsetInCU: 0x39CFA, offset: 0x4E687, size: 0x8, addend: 0x0, symName: __ZNSt3__14moveB7v160006IPPcS2_EET0_T_S4_S3_, symObjAddr: 0x31AF0, symBinAddr: 0x1000399B4, symSize: 0x40 }
  - { offsetInCU: 0x39D54, offset: 0x4E6E1, size: 0x8, addend: 0x0, symName: __ZNSt3__16__moveB7v160006INS_17_ClassicAlgPolicyEPPcS3_S3_EENS_4pairIT0_T2_EES5_T1_S6_, symObjAddr: 0x31C60, symBinAddr: 0x100039B24, symSize: 0x44 }
  - { offsetInCU: 0x39DC0, offset: 0x4E74D, size: 0x8, addend: 0x0, symName: __ZNSt3__123__dispatch_copy_or_moveB7v160006INS_17_ClassicAlgPolicyENS_11__move_loopIS1_EENS_14__move_trivialEPPcS6_S6_EENS_4pairIT2_T4_EES8_T3_S9_, symObjAddr: 0x31CA4, symBinAddr: 0x100039B68, symSize: 0x44 }
  - { offsetInCU: 0x39E3E, offset: 0x4E7CB, size: 0x8, addend: 0x0, symName: __ZNSt3__121__unwrap_and_dispatchB7v160006INS_10__overloadINS_11__move_loopINS_17_ClassicAlgPolicyEEENS_14__move_trivialEEEPPcS8_S8_Li0EEENS_4pairIT0_T2_EESA_T1_SB_, symObjAddr: 0x31CE8, symBinAddr: 0x100039BAC, symSize: 0xB4 }
  - { offsetInCU: 0x39F90, offset: 0x4E91D, size: 0x8, addend: 0x0, symName: __ZNSt3__119__copy_trivial_implB7v160006IPcS1_EENS_4pairIPT_PT0_EES4_S4_S6_, symObjAddr: 0x31DE4, symBinAddr: 0x100039CA8, symSize: 0x84 }
  - { offsetInCU: 0x39FF9, offset: 0x4E986, size: 0x8, addend: 0x0, symName: __ZNSt3__19make_pairB7v160006IRPPcS2_EENS_4pairINS_18__unwrap_ref_decayIT_E4typeENS5_IT0_E4typeEEEOS6_OS9_, symObjAddr: 0x31E68, symBinAddr: 0x100039D2C, symSize: 0x38 }
  - { offsetInCU: 0x3A048, offset: 0x4E9D5, size: 0x8, addend: 0x0, symName: __ZNSt3__18distanceB7v160006INS_13move_iteratorIPPcEEEENS_15iterator_traitsIT_E15difference_typeES6_S6_, symObjAddr: 0x31F10, symBinAddr: 0x100039DD4, symSize: 0x3C }
  - { offsetInCU: 0x3A08B, offset: 0x4EA18, size: 0x8, addend: 0x0, symName: __ZNSt3__110__distanceB7v160006INS_13move_iteratorIPPcEEEENS_15iterator_traitsIT_E15difference_typeES6_S6_NS_26random_access_iterator_tagE, symObjAddr: 0x31FEC, symBinAddr: 0x100039EB0, symSize: 0x30 }
  - { offsetInCU: 0x3A0D9, offset: 0x4EA66, size: 0x8, addend: 0x0, symName: __ZNSt3__1miB7v160006IPPcS2_EEDTmicldtfp_4baseEcldtfp0_4baseEERKNS_13move_iteratorIT_EERKNS4_IT0_EE, symObjAddr: 0x3201C, symBinAddr: 0x100039EE0, symSize: 0x48 }
  - { offsetInCU: 0x3A128, offset: 0x4EAB5, size: 0x8, addend: 0x0, symName: __ZNSt3__142__uninitialized_allocator_move_if_noexceptB7v160006INS_9allocatorIPcEEPS2_S4_S2_vEET1_RT_T0_S8_S5_, symObjAddr: 0x32100, symBinAddr: 0x100039FC4, symSize: 0x38 }
  - { offsetInCU: 0x3A1A5, offset: 0x4EB32, size: 0x8, addend: 0x0, symName: __ZNSt3__1neB7v160006IPPcEEbRKNS_11__wrap_iterIT_EES7_, symObjAddr: 0x328BC, symBinAddr: 0x10003A780, symSize: 0x34 }
  - { offsetInCU: 0x3A1E8, offset: 0x4EB75, size: 0x8, addend: 0x0, symName: __ZNSt3__1eqB7v160006IPPcEEbRKNS_11__wrap_iterIT_EES7_, symObjAddr: 0x32928, symBinAddr: 0x10003A7EC, symSize: 0x48 }
  - { offsetInCU: 0x3A22B, offset: 0x4EBB8, size: 0x8, addend: 0x0, symName: __ZNSt3__134__libcpp_atomic_refcount_incrementB7v160006IlEET_RS1_, symObjAddr: 0x32CC8, symBinAddr: 0x10003AB8C, symSize: 0x30 }
  - { offsetInCU: 0x3A260, offset: 0x4EBED, size: 0x8, addend: 0x0, symName: __ZNSt3__14swapB7v160006IPKN7testing16MatcherInterfaceIRKNS_12basic_stringIcNS_11char_traitsIcEENS_9allocatorIcEEEEEEEENS_9enable_ifIXaasr21is_move_constructibleIT_EE5valuesr18is_move_assignableISF_EE5valueEvE4typeERSF_SI_, symObjAddr: 0x32CF8, symBinAddr: 0x10003ABBC, symSize: 0x3C }
  - { offsetInCU: 0x3A2B2, offset: 0x4EC3F, size: 0x8, addend: 0x0, symName: __ZNSt3__14swapB7v160006IPNS_19__shared_weak_countEEENS_9enable_ifIXaasr21is_move_constructibleIT_EE5valuesr18is_move_assignableIS4_EE5valueEvE4typeERS4_S7_, symObjAddr: 0x32D34, symBinAddr: 0x10003ABF8, symSize: 0x3C }
  - { offsetInCU: 0x3A304, offset: 0x4EC91, size: 0x8, addend: 0x0, symName: __ZNSt3__134__libcpp_atomic_refcount_decrementB7v160006IlEET_RS1_, symObjAddr: 0x32E7C, symBinAddr: 0x10003AD40, symSize: 0x30 }
  - { offsetInCU: 0x3A339, offset: 0x4ECC6, size: 0x8, addend: 0x0, symName: __ZNSt3__1neB7v160006IPcEEbRKNS_11__wrap_iterIT_EES6_, symObjAddr: 0x33BC8, symBinAddr: 0x10003BA8C, symSize: 0x34 }
  - { offsetInCU: 0x3A37C, offset: 0x4ED09, size: 0x8, addend: 0x0, symName: __ZNSt3__1eqB7v160006IPcEEbRKNS_11__wrap_iterIT_EES6_, symObjAddr: 0x33F4C, symBinAddr: 0x10003BCD0, symSize: 0x48 }
  - { offsetInCU: 0x3A3BF, offset: 0x4ED4C, size: 0x8, addend: 0x0, symName: __ZNSt3__1miB7v160006IPKcPcEEDTmicldtfp_4baseEcldtfp0_4baseEERKNS_11__wrap_iterIT_EERKNS5_IT0_EE, symObjAddr: 0x33FAC, symBinAddr: 0x10003BD30, symSize: 0x40 }
  - { offsetInCU: 0x3A40B, offset: 0x4ED98, size: 0x8, addend: 0x0, symName: __ZNSt3__1eqB7v160006IPKNS_12basic_stringIcNS_11char_traitsIcEENS_9allocatorIcEEEEPS6_EEbRKNS_11__wrap_iterIT_EERKNSA_IT0_EE, symObjAddr: 0x34168, symBinAddr: 0x10003BE14, symSize: 0x48 }
  - { offsetInCU: 0x3A457, offset: 0x4EDE4, size: 0x8, addend: 0x0, symName: __ZNSt3__1neB7v160006ERKNS_21__tree_const_iteratorINS_12__value_typeINS_12basic_stringIcNS_11char_traitsIcEENS_9allocatorIcEEEEN7testing8internal12CodeLocationEEEPNS_11__tree_nodeISB_PvEElEESI_, symObjAddr: 0x34A5C, symBinAddr: 0x10003C3DC, symSize: 0x34 }
  - { offsetInCU: 0x3A494, offset: 0x4EE21, size: 0x8, addend: 0x0, symName: __ZNSt3__1eqB7v160006ERKNS_21__tree_const_iteratorINS_12__value_typeINS_12basic_stringIcNS_11char_traitsIcEENS_9allocatorIcEEEEN7testing8internal12CodeLocationEEEPNS_11__tree_nodeISB_PvEElEESI_, symObjAddr: 0x34A90, symBinAddr: 0x10003C410, symSize: 0x30 }
  - { offsetInCU: 0x3A537, offset: 0x4EEC4, size: 0x8, addend: 0x0, symName: __ZNSt3__18distanceB7v160006IPKcEENS_15iterator_traitsIT_E15difference_typeES4_S4_, symObjAddr: 0x34CEC, symBinAddr: 0x10003C66C, symSize: 0x2C }
  - { offsetInCU: 0x3A57A, offset: 0x4EF07, size: 0x8, addend: 0x0, symName: __ZNSt3__119__allocate_at_leastB7v160006INS_9allocatorIcEEEENS_19__allocation_resultINS_16allocator_traitsIT_E7pointerEEERS5_m, symObjAddr: 0x34E78, symBinAddr: 0x10003C6D4, symSize: 0x40 }
  - { offsetInCU: 0x3A5BD, offset: 0x4EF4A, size: 0x8, addend: 0x0, symName: __ZNSt3__110__distanceB7v160006IPKcEENS_15iterator_traitsIT_E15difference_typeES4_S4_NS_26random_access_iterator_tagE, symObjAddr: 0x35078, symBinAddr: 0x10003C878, symSize: 0x20 }
  - { offsetInCU: 0x3A60C, offset: 0x4EF99, size: 0x8, addend: 0x0, symName: __ZNSt3__119__debug_db_insert_cB7v160006INS_12basic_stringIwNS_11char_traitsIwEENS_9allocatorIwEEEEEEvPT_, symObjAddr: 0x35528, symBinAddr: 0x10003CC78, symSize: 0x10 }
  - { offsetInCU: 0x3A63C, offset: 0x4EFC9, size: 0x8, addend: 0x0, symName: __ZNSt3__118__constexpr_wcslenB7v160006EPKw, symObjAddr: 0x355F4, symBinAddr: 0x10003CD44, symSize: 0x24 }
  - { offsetInCU: 0x3A669, offset: 0x4EFF6, size: 0x8, addend: 0x0, symName: __ZNSt3__119__debug_db_insert_cB7v160006INS_6vectorIN7testing14TestPartResultENS_9allocatorIS3_EEEEEEvPT_, symObjAddr: 0x357AC, symBinAddr: 0x10003CEFC, symSize: 0x10 }
  - { offsetInCU: 0x3A69A, offset: 0x4F027, size: 0x8, addend: 0x0, symName: __ZNSt3__118__debug_db_erase_cB7v160006INS_6vectorIN7testing14TestPartResultENS_9allocatorIS3_EEEEEEvPT_, symObjAddr: 0x35A8C, symBinAddr: 0x10003D1DC, symSize: 0x10 }
  - { offsetInCU: 0x3A6CA, offset: 0x4F057, size: 0x8, addend: 0x0, symName: __ZNSt3__112__to_addressB7v160006IN7testing14TestPartResultEEEPT_S4_, symObjAddr: 0x35BA8, symBinAddr: 0x10003D2F8, symSize: 0x14 }
  - { offsetInCU: 0x3A6FF, offset: 0x4F08C, size: 0x8, addend: 0x0, symName: __ZNSt3__18for_eachB7v160006INS_11__wrap_iterIPKPN7testing8TestCaseEEEPFvS4_EEET0_T_SB_SA_, symObjAddr: 0x35DE8, symBinAddr: 0x10003D4EC, symSize: 0x6C }
  - { offsetInCU: 0x3A759, offset: 0x4F0E6, size: 0x8, addend: 0x0, symName: __ZNSt3__1neB7v160006IPKPN7testing8TestCaseEEEbRKNS_11__wrap_iterIT_EESA_, symObjAddr: 0x35EB4, symBinAddr: 0x10003D5B8, symSize: 0x34 }
  - { offsetInCU: 0x3A79C, offset: 0x4F129, size: 0x8, addend: 0x0, symName: __ZNSt3__1eqB7v160006IPKPN7testing8TestCaseEEEbRKNS_11__wrap_iterIT_EESA_, symObjAddr: 0x35F20, symBinAddr: 0x10003D624, symSize: 0x48 }
  - { offsetInCU: 0x3A7DF, offset: 0x4F16C, size: 0x8, addend: 0x0, symName: __ZNSt3__130__uninitialized_allocator_copyB7v160006INS_9allocatorINS_12basic_stringIcNS_11char_traitsIcEENS1_IcEEEEEEPS6_S8_S8_EET2_RT_T0_T1_S9_, symObjAddr: 0x36328, symBinAddr: 0x10003DA2C, symSize: 0xF4 }
  - { offsetInCU: 0x3A87D, offset: 0x4F20A, size: 0x8, addend: 0x0, symName: __ZNSt3__112__to_addressB7v160006IcEEPT_S2_, symObjAddr: 0x36730, symBinAddr: 0x10003DE34, symSize: 0x14 }
  - { offsetInCU: 0x3A8B2, offset: 0x4F23F, size: 0x8, addend: 0x0, symName: __ZNSt3__14copyB7v160006IPKcPcEET0_T_S5_S4_, symObjAddr: 0x36A00, symBinAddr: 0x10003E104, symSize: 0x40 }
  - { offsetInCU: 0x3A90C, offset: 0x4F299, size: 0x8, addend: 0x0, symName: __ZNSt3__16__copyB7v160006INS_17_ClassicAlgPolicyEPKcS3_PcEENS_4pairIT0_T2_EES6_T1_S7_, symObjAddr: 0x36A40, symBinAddr: 0x10003E144, symSize: 0x44 }
  - { offsetInCU: 0x3A978, offset: 0x4F305, size: 0x8, addend: 0x0, symName: __ZNSt3__123__dispatch_copy_or_moveB7v160006INS_17_ClassicAlgPolicyENS_11__copy_loopIS1_EENS_14__copy_trivialEPKcS6_PcEENS_4pairIT2_T4_EES9_T3_SA_, symObjAddr: 0x36A84, symBinAddr: 0x10003E188, symSize: 0x44 }
  - { offsetInCU: 0x3A9F6, offset: 0x4F383, size: 0x8, addend: 0x0, symName: __ZNSt3__121__unwrap_and_dispatchB7v160006INS_10__overloadINS_11__copy_loopINS_17_ClassicAlgPolicyEEENS_14__copy_trivialEEEPKcS8_PcLi0EEENS_4pairIT0_T2_EESB_T1_SC_, symObjAddr: 0x36AC8, symBinAddr: 0x10003E1CC, symSize: 0xB4 }
  - { offsetInCU: 0x3AA87, offset: 0x4F414, size: 0x8, addend: 0x0, symName: __ZNSt3__114__unwrap_rangeB7v160006IPKcS2_EENS_4pairIT0_S4_EET_S6_, symObjAddr: 0x36B7C, symBinAddr: 0x10003E280, symSize: 0x60 }
  - { offsetInCU: 0x3AC1D, offset: 0x4F5AA, size: 0x8, addend: 0x0, symName: __ZNSt3__113__unwrap_iterB7v160006IPcNS_18__unwrap_iter_implIS1_Lb1EEELi0EEEDTclsrT0_8__unwrapclsr3stdE7declvalIT_EEEES5_, symObjAddr: 0x36C24, symBinAddr: 0x10003E328, symSize: 0x24 }
  - { offsetInCU: 0x3AC62, offset: 0x4F5EF, size: 0x8, addend: 0x0, symName: __ZNSt3__19make_pairB7v160006IPKcPcEENS_4pairINS_18__unwrap_ref_decayIT_E4typeENS5_IT0_E4typeEEEOS6_OS9_, symObjAddr: 0x36C48, symBinAddr: 0x10003E34C, symSize: 0x38 }
  - { offsetInCU: 0x3ACB1, offset: 0x4F63E, size: 0x8, addend: 0x0, symName: __ZNSt3__114__rewrap_rangeB7v160006IPKcS2_EET_S3_T0_, symObjAddr: 0x36C80, symBinAddr: 0x10003E384, symSize: 0x2C }
  - { offsetInCU: 0x3ACFD, offset: 0x4F68A, size: 0x8, addend: 0x0, symName: __ZNSt3__113__rewrap_iterB7v160006IPcS1_NS_18__unwrap_iter_implIS1_Lb1EEEEET_S4_T0_, symObjAddr: 0x36CAC, symBinAddr: 0x10003E3B0, symSize: 0x3C }
  - { offsetInCU: 0x3AD52, offset: 0x4F6DF, size: 0x8, addend: 0x0, symName: __ZNSt3__19make_pairB7v160006IPKcS2_EENS_4pairINS_18__unwrap_ref_decayIT_E4typeENS4_IT0_E4typeEEEOS5_OS8_, symObjAddr: 0x36CE8, symBinAddr: 0x10003E3EC, symSize: 0x38 }
  - { offsetInCU: 0x3ADA1, offset: 0x4F72E, size: 0x8, addend: 0x0, symName: __ZNSt3__113__unwrap_iterB7v160006IPKcNS_18__unwrap_iter_implIS2_Lb1EEELi0EEEDTclsrT0_8__unwrapclsr3stdE7declvalIT_EEEES6_, symObjAddr: 0x36D20, symBinAddr: 0x10003E424, symSize: 0x24 }
  - { offsetInCU: 0x3AF0D, offset: 0x4F89A, size: 0x8, addend: 0x0, symName: __ZNSt3__119__copy_trivial_implB7v160006IKccEENS_4pairIPT_PT0_EES4_S4_S6_, symObjAddr: 0x36DEC, symBinAddr: 0x10003E4DC, symSize: 0x7C }
  - { offsetInCU: 0x3AF76, offset: 0x4F903, size: 0x8, addend: 0x0, symName: __ZNSt3__19make_pairB7v160006IRPKcPcEENS_4pairINS_18__unwrap_ref_decayIT_E4typeENS6_IT0_E4typeEEEOS7_OSA_, symObjAddr: 0x36E68, symBinAddr: 0x10003E558, symSize: 0x38 }
  - { offsetInCU: 0x3B018, offset: 0x4F9A5, size: 0x8, addend: 0x0, symName: __ZNSt3__113__rewrap_iterB7v160006IPKcS2_NS_18__unwrap_iter_implIS2_Lb1EEEEET_S5_T0_, symObjAddr: 0x36FA4, symBinAddr: 0x10003E694, symSize: 0x3C }
  - { offsetInCU: 0x3B06D, offset: 0x4F9FA, size: 0x8, addend: 0x0, symName: __ZNSt3__16fill_nB7v160006IPcmcEET_S2_T0_RKT1_, symObjAddr: 0x37070, symBinAddr: 0x10003E760, symSize: 0x44 }
  - { offsetInCU: 0x3B0D0, offset: 0x4FA5D, size: 0x8, addend: 0x0, symName: __ZNSt3__18__fill_nB7v160006IPcmcEET_S2_T0_RKT1_, symObjAddr: 0x370B4, symBinAddr: 0x10003E7A4, symSize: 0x64 }
  - { offsetInCU: 0x3B133, offset: 0x4FAC0, size: 0x8, addend: 0x0, symName: __ZNSt3__121__convert_to_integralB7v160006Em, symObjAddr: 0x37118, symBinAddr: 0x10003E808, symSize: 0x14 }
  - { offsetInCU: 0x3B15F, offset: 0x4FAEC, size: 0x8, addend: 0x0, symName: __ZNSt3__142__uninitialized_allocator_move_if_noexceptB7v160006INS_9allocatorINS_12basic_stringIcNS_11char_traitsIcEENS1_IcEEEEEENS_16reverse_iteratorIPS6_EESA_SA_EET2_RT_T0_T1_SB_, symObjAddr: 0x37AAC, symBinAddr: 0x10003F19C, symSize: 0x11C }
  - { offsetInCU: 0x3B1FF, offset: 0x4FB8C, size: 0x8, addend: 0x0, symName: __ZNSt3__14swapB7v160006IPNS_12basic_stringIcNS_11char_traitsIcEENS_9allocatorIcEEEEEENS_9enable_ifIXaasr21is_move_constructibleIT_EE5valuesr18is_move_assignableIS9_EE5valueEvE4typeERS9_SC_, symObjAddr: 0x37BC8, symBinAddr: 0x10003F2B8, symSize: 0x3C }
  - { offsetInCU: 0x3B252, offset: 0x4FBDF, size: 0x8, addend: 0x0, symName: __ZNSt3__125__debug_db_invalidate_allB7v160006INS_6vectorINS_12basic_stringIcNS_11char_traitsIcEENS_9allocatorIcEEEENS5_IS7_EEEEEEvPT_, symObjAddr: 0x37C04, symBinAddr: 0x10003F2F4, symSize: 0x10 }
  - { offsetInCU: 0x3B282, offset: 0x4FC0F, size: 0x8, addend: 0x0, symName: __ZNSt3__122__make_exception_guardB7v160006INS_29_AllocatorDestroyRangeReverseINS_9allocatorINS_12basic_stringIcNS_11char_traitsIcEENS2_IcEEEEEENS_16reverse_iteratorIPS7_EEEEEENS_28__exception_guard_exceptionsIT_EESE_, symObjAddr: 0x37C14, symBinAddr: 0x10003F304, symSize: 0x4C }
  - { offsetInCU: 0x3B2B8, offset: 0x4FC45, size: 0x8, addend: 0x0, symName: __ZNSt3__119__allocator_destroyB7v160006INS_9allocatorINS_12basic_stringIcNS_11char_traitsIcEENS1_IcEEEEEENS_16reverse_iteratorINS8_IPS6_EEEESB_EEvRT_T0_T1_, symObjAddr: 0x37E8C, symBinAddr: 0x10003F57C, symSize: 0x70 }
  - { offsetInCU: 0x3B31D, offset: 0x4FCAA, size: 0x8, addend: 0x0, symName: __ZNSt3__1neB7v160006INS_16reverse_iteratorIPNS_12basic_stringIcNS_11char_traitsIcEENS_9allocatorIcEEEEEES9_EEbRKNS1_IT_EERKNS1_IT0_EE, symObjAddr: 0x37F38, symBinAddr: 0x10003F628, symSize: 0x60 }
  - { offsetInCU: 0x3B369, offset: 0x4FCF6, size: 0x8, addend: 0x0, symName: __ZNSt3__112__to_addressB7v160006INS_16reverse_iteratorINS1_IPNS_12basic_stringIcNS_11char_traitsIcEENS_9allocatorIcEEEEEEEEvEENS_5decayIDTclsr19__to_address_helperIT_EE6__callclsr3stdE7declvalIRKSC_EEEEE4typeESE_, symObjAddr: 0x37F98, symBinAddr: 0x10003F688, symSize: 0x24 }
  - { offsetInCU: 0x3B3CA, offset: 0x4FD57, size: 0x8, addend: 0x0, symName: __ZNSt3__116__swap_allocatorB7v160006INS_9allocatorINS_12basic_stringIcNS_11char_traitsIcEENS1_IcEEEEEEEEvRT_S9_NS_17integral_constantIbLb0EEE, symObjAddr: 0x382D8, symBinAddr: 0x10003F9C8, symSize: 0x14 }
  - { offsetInCU: 0x3B40E, offset: 0x4FD9B, size: 0x8, addend: 0x0, symName: __ZNSt3__115__debug_db_swapB7v160006INS_6vectorINS_12basic_stringIcNS_11char_traitsIcEENS_9allocatorIcEEEENS5_IS7_EEEEEEvPT_SB_, symObjAddr: 0x382EC, symBinAddr: 0x10003F9DC, symSize: 0x14 }
  - { offsetInCU: 0x3B44C, offset: 0x4FDD9, size: 0x8, addend: 0x0, symName: __ZNSt3__14swapB7v160006INS_14default_deleteINS_12basic_stringIcNS_11char_traitsIcEENS_9allocatorIcEEEEEEEENS_9enable_ifIXaasr21is_move_constructibleIT_EE5valuesr18is_move_assignableISA_EE5valueEvE4typeERSA_SD_, symObjAddr: 0x384B4, symBinAddr: 0x10003FB90, symSize: 0x14 }
  - { offsetInCU: 0x3B49E, offset: 0x4FE2B, size: 0x8, addend: 0x0, symName: __ZNSt3__122__make_exception_guardB7v160006INS_6vectorIdNS_9allocatorIdEEE16__destroy_vectorEEENS_28__exception_guard_exceptionsIT_EES7_, symObjAddr: 0x38724, symBinAddr: 0x10003FCC0, symSize: 0x40 }
  - { offsetInCU: 0x3B4D4, offset: 0x4FE61, size: 0x8, addend: 0x0, symName: __ZNSt3__119__debug_db_insert_cB7v160006INS_6vectorIdNS_9allocatorIdEEEEEEvPT_, symObjAddr: 0x38798, symBinAddr: 0x10003FD34, symSize: 0x10 }
  - { offsetInCU: 0x3B504, offset: 0x4FE91, size: 0x8, addend: 0x0, symName: __ZNSt3__119__allocate_at_leastB7v160006INS_9allocatorIdEEEENS_19__allocation_resultINS_16allocator_traitsIT_E7pointerEEERS5_m, symObjAddr: 0x38B20, symBinAddr: 0x1000400BC, symSize: 0x40 }
  - { offsetInCU: 0x3B547, offset: 0x4FED4, size: 0x8, addend: 0x0, symName: __ZNSt3__112__to_addressB7v160006IdEEPT_S2_, symObjAddr: 0x38E44, symBinAddr: 0x1000403E0, symSize: 0x14 }
  - { offsetInCU: 0x3B57D, offset: 0x4FF0A, size: 0x8, addend: 0x0, symName: __ZNSt3__118__debug_db_erase_cB7v160006INS_6vectorIdNS_9allocatorIdEEEEEEvPT_, symObjAddr: 0x39174, symBinAddr: 0x100040710, symSize: 0x10 }
  - { offsetInCU: 0x3B5AD, offset: 0x4FF3A, size: 0x8, addend: 0x0, symName: __ZNSt3__122__make_exception_guardB7v160006INS_6vectorINS1_IdNS_9allocatorIdEEEENS2_IS4_EEE16__destroy_vectorEEENS_28__exception_guard_exceptionsIT_EES9_, symObjAddr: 0x39454, symBinAddr: 0x1000409F0, symSize: 0x40 }
  - { offsetInCU: 0x3B5E3, offset: 0x4FF70, size: 0x8, addend: 0x0, symName: __ZNSt3__119__debug_db_insert_cB7v160006INS_6vectorINS1_IdNS_9allocatorIdEEEENS2_IS4_EEEEEEvPT_, symObjAddr: 0x394C8, symBinAddr: 0x100040A64, symSize: 0x10 }
  - { offsetInCU: 0x3B613, offset: 0x4FFA0, size: 0x8, addend: 0x0, symName: __ZNSt3__119__allocate_at_leastB7v160006INS_9allocatorINS_6vectorIdNS1_IdEEEEEEEENS_19__allocation_resultINS_16allocator_traitsIT_E7pointerEEERS8_m, symObjAddr: 0x39860, symBinAddr: 0x100040DFC, symSize: 0x40 }
  - { offsetInCU: 0x3B656, offset: 0x4FFE3, size: 0x8, addend: 0x0, symName: __ZNSt3__112__to_addressB7v160006INS_6vectorIdNS_9allocatorIdEEEEEEPT_S6_, symObjAddr: 0x39BA8, symBinAddr: 0x100041144, symSize: 0x14 }
  - { offsetInCU: 0x3B68B, offset: 0x50018, size: 0x8, addend: 0x0, symName: __ZNSt3__130__uninitialized_allocator_copyB7v160006INS_9allocatorIdEEPdS3_S3_EET2_RT_T0_T1_S4_, symObjAddr: 0x39FAC, symBinAddr: 0x100041548, symSize: 0xF4 }
  - { offsetInCU: 0x3B729, offset: 0x500B6, size: 0x8, addend: 0x0, symName: __ZNSt3__122__make_exception_guardB7v160006INS_29_AllocatorDestroyRangeReverseINS_9allocatorIdEEPdEEEENS_28__exception_guard_exceptionsIT_EES7_, symObjAddr: 0x3A0A0, symBinAddr: 0x10004163C, symSize: 0x4C }
  - { offsetInCU: 0x3B75F, offset: 0x500EC, size: 0x8, addend: 0x0, symName: __ZNSt3__119__allocator_destroyB7v160006INS_9allocatorIdEENS_16reverse_iteratorIPdEES5_EEvRT_T0_T1_, symObjAddr: 0x3A328, symBinAddr: 0x1000418C4, symSize: 0x70 }
  - { offsetInCU: 0x3B7C2, offset: 0x5014F, size: 0x8, addend: 0x0, symName: __ZNSt3__1neB7v160006IPdS1_EEbRKNS_16reverse_iteratorIT_EERKNS2_IT0_EE, symObjAddr: 0x3A3CC, symBinAddr: 0x100041968, symSize: 0x48 }
  - { offsetInCU: 0x3B80E, offset: 0x5019B, size: 0x8, addend: 0x0, symName: __ZNSt3__112__to_addressB7v160006INS_16reverse_iteratorIPdEEvEENS_5decayIDTclsr19__to_address_helperIT_EE6__callclsr3stdE7declvalIRKS5_EEEEE4typeES7_, symObjAddr: 0x3A414, symBinAddr: 0x1000419B0, symSize: 0x24 }
  - { offsetInCU: 0x3B86F, offset: 0x501FC, size: 0x8, addend: 0x0, symName: __ZNSt3__118__debug_db_erase_cB7v160006INS_6vectorINS1_IdNS_9allocatorIdEEEENS2_IS4_EEEEEEvPT_, symObjAddr: 0x3A6FC, symBinAddr: 0x100041C98, symSize: 0x10 }
  - { offsetInCU: 0x3B89F, offset: 0x5022C, size: 0x8, addend: 0x0, symName: __ZNSt3__122__make_exception_guardB7v160006INS_6vectorIN7testing8internal13edit_distance8EditTypeENS_9allocatorIS5_EEE16__destroy_vectorEEENS_28__exception_guard_exceptionsIT_EESB_, symObjAddr: 0x3A9EC, symBinAddr: 0x100041F88, symSize: 0x40 }
  - { offsetInCU: 0x3B8D5, offset: 0x50262, size: 0x8, addend: 0x0, symName: __ZNSt3__119__debug_db_insert_cB7v160006INS_6vectorIN7testing8internal13edit_distance8EditTypeENS_9allocatorIS5_EEEEEEvPT_, symObjAddr: 0x3AA60, symBinAddr: 0x100041FFC, symSize: 0x10 }
  - { offsetInCU: 0x3B905, offset: 0x50292, size: 0x8, addend: 0x0, symName: __ZNSt3__119__allocate_at_leastB7v160006INS_9allocatorIN7testing8internal13edit_distance8EditTypeEEEEENS_19__allocation_resultINS_16allocator_traitsIT_E7pointerEEERS9_m, symObjAddr: 0x3ADE8, symBinAddr: 0x100042384, symSize: 0x40 }
  - { offsetInCU: 0x3B948, offset: 0x502D5, size: 0x8, addend: 0x0, symName: __ZNSt3__112__to_addressB7v160006IN7testing8internal13edit_distance8EditTypeEEEPT_S6_, symObjAddr: 0x3B10C, symBinAddr: 0x1000426A8, symSize: 0x14 }
  - { offsetInCU: 0x3B97E, offset: 0x5030B, size: 0x8, addend: 0x0, symName: __ZNSt3__118__debug_db_erase_cB7v160006INS_6vectorIN7testing8internal13edit_distance8EditTypeENS_9allocatorIS5_EEEEEEvPT_, symObjAddr: 0x3B438, symBinAddr: 0x1000429D4, symSize: 0x10 }
  - { offsetInCU: 0x3B9AE, offset: 0x5033B, size: 0x8, addend: 0x0, symName: __ZNSt3__122__make_exception_guardB7v160006INS_6vectorINS1_IN7testing8internal13edit_distance8EditTypeENS_9allocatorIS5_EEEENS6_IS8_EEE16__destroy_vectorEEENS_28__exception_guard_exceptionsIT_EESD_, symObjAddr: 0x3B718, symBinAddr: 0x100042CB4, symSize: 0x40 }
  - { offsetInCU: 0x3B9E4, offset: 0x50371, size: 0x8, addend: 0x0, symName: __ZNSt3__119__debug_db_insert_cB7v160006INS_6vectorINS1_IN7testing8internal13edit_distance8EditTypeENS_9allocatorIS5_EEEENS6_IS8_EEEEEEvPT_, symObjAddr: 0x3B78C, symBinAddr: 0x100042D28, symSize: 0x10 }
  - { offsetInCU: 0x3BA14, offset: 0x503A1, size: 0x8, addend: 0x0, symName: __ZNSt3__119__allocate_at_leastB7v160006INS_9allocatorINS_6vectorIN7testing8internal13edit_distance8EditTypeENS1_IS6_EEEEEEEENS_19__allocation_resultINS_16allocator_traitsIT_E7pointerEEERSC_m, symObjAddr: 0x3BB24, symBinAddr: 0x1000430C0, symSize: 0x40 }
  - { offsetInCU: 0x3BA57, offset: 0x503E4, size: 0x8, addend: 0x0, symName: __ZNSt3__112__to_addressB7v160006INS_6vectorIN7testing8internal13edit_distance8EditTypeENS_9allocatorIS5_EEEEEEPT_SA_, symObjAddr: 0x3BE6C, symBinAddr: 0x100043408, symSize: 0x14 }
  - { offsetInCU: 0x3BA8C, offset: 0x50419, size: 0x8, addend: 0x0, symName: __ZNSt3__130__uninitialized_allocator_copyB7v160006INS_9allocatorIN7testing8internal13edit_distance8EditTypeEEEPS5_S7_S7_EET2_RT_T0_T1_S8_, symObjAddr: 0x3C270, symBinAddr: 0x10004380C, symSize: 0xF4 }
  - { offsetInCU: 0x3BB2A, offset: 0x504B7, size: 0x8, addend: 0x0, symName: __ZNSt3__122__make_exception_guardB7v160006INS_29_AllocatorDestroyRangeReverseINS_9allocatorIN7testing8internal13edit_distance8EditTypeEEEPS6_EEEENS_28__exception_guard_exceptionsIT_EESB_, symObjAddr: 0x3C364, symBinAddr: 0x100043900, symSize: 0x4C }
  - { offsetInCU: 0x3BB60, offset: 0x504ED, size: 0x8, addend: 0x0, symName: __ZNSt3__119__allocator_destroyB7v160006INS_9allocatorIN7testing8internal13edit_distance8EditTypeEEENS_16reverse_iteratorIPS5_EES9_EEvRT_T0_T1_, symObjAddr: 0x3C5EC, symBinAddr: 0x100043B88, symSize: 0x70 }
  - { offsetInCU: 0x3BBC3, offset: 0x50550, size: 0x8, addend: 0x0, symName: __ZNSt3__1neB7v160006IPN7testing8internal13edit_distance8EditTypeES5_EEbRKNS_16reverse_iteratorIT_EERKNS6_IT0_EE, symObjAddr: 0x3C690, symBinAddr: 0x100043C2C, symSize: 0x48 }
  - { offsetInCU: 0x3BC0F, offset: 0x5059C, size: 0x8, addend: 0x0, symName: __ZNSt3__112__to_addressB7v160006INS_16reverse_iteratorIPN7testing8internal13edit_distance8EditTypeEEEvEENS_5decayIDTclsr19__to_address_helperIT_EE6__callclsr3stdE7declvalIRKS9_EEEEE4typeESB_, symObjAddr: 0x3C6D8, symBinAddr: 0x100043C74, symSize: 0x24 }
  - { offsetInCU: 0x3BC70, offset: 0x505FD, size: 0x8, addend: 0x0, symName: __ZNSt3__118__debug_db_erase_cB7v160006INS_6vectorINS1_IN7testing8internal13edit_distance8EditTypeENS_9allocatorIS5_EEEENS6_IS8_EEEEEEvPT_, symObjAddr: 0x3C9C0, symBinAddr: 0x100043F5C, symSize: 0x10 }
  - { offsetInCU: 0x3BCA0, offset: 0x5062D, size: 0x8, addend: 0x0, symName: __ZNSt3__142__uninitialized_allocator_move_if_noexceptB7v160006INS_9allocatorIN7testing8internal13edit_distance8EditTypeEEENS_16reverse_iteratorIPS5_EES9_S5_vEET1_RT_T0_SD_SA_, symObjAddr: 0x3D23C, symBinAddr: 0x1000447D8, symSize: 0x78 }
  - { offsetInCU: 0x3BD1E, offset: 0x506AB, size: 0x8, addend: 0x0, symName: __ZNSt3__14swapB7v160006IPN7testing8internal13edit_distance8EditTypeEEENS_9enable_ifIXaasr21is_move_constructibleIT_EE5valuesr18is_move_assignableIS7_EE5valueEvE4typeERS7_SA_, symObjAddr: 0x3D2B4, symBinAddr: 0x100044850, symSize: 0x3C }
  - { offsetInCU: 0x3BD71, offset: 0x506FE, size: 0x8, addend: 0x0, symName: __ZNSt3__125__debug_db_invalidate_allB7v160006INS_6vectorIN7testing8internal13edit_distance8EditTypeENS_9allocatorIS5_EEEEEEvPT_, symObjAddr: 0x3D2F0, symBinAddr: 0x10004488C, symSize: 0x10 }
  - { offsetInCU: 0x3BDA1, offset: 0x5072E, size: 0x8, addend: 0x0, symName: __ZNSt3__14moveB7v160006INS_16reverse_iteratorIPN7testing8internal13edit_distance8EditTypeEEES7_EET0_T_S9_S8_, symObjAddr: 0x3D300, symBinAddr: 0x10004489C, symSize: 0x78 }
  - { offsetInCU: 0x3BDFB, offset: 0x50788, size: 0x8, addend: 0x0, symName: __ZNSt3__16__moveB7v160006INS_17_ClassicAlgPolicyENS_16reverse_iteratorIPN7testing8internal13edit_distance8EditTypeEEES8_S8_EENS_4pairIT0_T2_EESA_T1_SB_, symObjAddr: 0x3D378, symBinAddr: 0x100044914, symSize: 0x64 }
  - { offsetInCU: 0x3BE67, offset: 0x507F4, size: 0x8, addend: 0x0, symName: __ZNSt3__123__dispatch_copy_or_moveB7v160006INS_17_ClassicAlgPolicyENS_11__move_loopIS1_EENS_14__move_trivialENS_16reverse_iteratorIPN7testing8internal13edit_distance8EditTypeEEESB_SB_EENS_4pairIT2_T4_EESD_T3_SE_, symObjAddr: 0x3D3DC, symBinAddr: 0x100044978, symSize: 0x64 }
  - { offsetInCU: 0x3BEE5, offset: 0x50872, size: 0x8, addend: 0x0, symName: __ZNSt3__121__unwrap_and_dispatchB7v160006INS_10__overloadINS_11__move_loopINS_17_ClassicAlgPolicyEEENS_14__move_trivialEEENS_16reverse_iteratorIPN7testing8internal13edit_distance8EditTypeEEESD_SD_Li0EEENS_4pairIT0_T2_EESF_T1_SG_, symObjAddr: 0x3D440, symBinAddr: 0x1000449DC, symSize: 0x12C }
  - { offsetInCU: 0x3BF78, offset: 0x50905, size: 0x8, addend: 0x0, symName: __ZNSt3__114__unwrap_rangeB7v160006INS_16reverse_iteratorIPN7testing8internal13edit_distance8EditTypeEEES7_EENS_4pairIT0_S9_EET_SB_, symObjAddr: 0x3D56C, symBinAddr: 0x100044B08, symSize: 0x84 }
  - { offsetInCU: 0x3C098, offset: 0x50A25, size: 0x8, addend: 0x0, symName: __ZNSt3__113__unwrap_iterB7v160006INS_16reverse_iteratorIPN7testing8internal13edit_distance8EditTypeEEENS_18__unwrap_iter_implIS7_Lb0EEELi0EEEDTclsrT0_8__unwrapclsr3stdE7declvalIT_EEEESB_, symObjAddr: 0x3D690, symBinAddr: 0x100044C2C, symSize: 0x44 }
  - { offsetInCU: 0x3C0DD, offset: 0x50A6A, size: 0x8, addend: 0x0, symName: __ZNSt3__19make_pairB7v160006INS_16reverse_iteratorIPN7testing8internal13edit_distance8EditTypeEEES7_EENS_4pairINS_18__unwrap_ref_decayIT_E4typeENS9_IT0_E4typeEEEOSA_OSD_, symObjAddr: 0x3D6D4, symBinAddr: 0x100044C70, symSize: 0x38 }
  - { offsetInCU: 0x3C12C, offset: 0x50AB9, size: 0x8, addend: 0x0, symName: __ZNSt3__114__rewrap_rangeB7v160006INS_16reverse_iteratorIPN7testing8internal13edit_distance8EditTypeEEES7_EET_S8_T0_, symObjAddr: 0x3D70C, symBinAddr: 0x100044CA8, symSize: 0x5C }
  - { offsetInCU: 0x3C178, offset: 0x50B05, size: 0x8, addend: 0x0, symName: __ZNSt3__113__rewrap_iterB7v160006INS_16reverse_iteratorIPN7testing8internal13edit_distance8EditTypeEEES7_NS_18__unwrap_iter_implIS7_Lb0EEEEET_SA_T0_, symObjAddr: 0x3D768, symBinAddr: 0x100044D04, symSize: 0x74 }
  - { offsetInCU: 0x3C239, offset: 0x50BC6, size: 0x8, addend: 0x0, symName: __ZNSt3__19__reverseB7v160006INS_17_ClassicAlgPolicyENS_11__wrap_iterIPN7testing8internal13edit_distance8EditTypeEEES8_EEvT0_T1_, symObjAddr: 0x3DB48, symBinAddr: 0x1000450E4, symSize: 0x3C }
  - { offsetInCU: 0x3C28B, offset: 0x50C18, size: 0x8, addend: 0x0, symName: __ZNSt3__114__reverse_implB7v160006INS_17_ClassicAlgPolicyENS_11__wrap_iterIPN7testing8internal13edit_distance8EditTypeEEEEEvT0_S9_NS_26random_access_iterator_tagE, symObjAddr: 0x3DB84, symBinAddr: 0x100045120, symSize: 0x7C }
  - { offsetInCU: 0x3C2DF, offset: 0x50C6C, size: 0x8, addend: 0x0, symName: __ZNSt3__1neB7v160006IPN7testing8internal13edit_distance8EditTypeEEEbRKNS_11__wrap_iterIT_EESA_, symObjAddr: 0x3DC00, symBinAddr: 0x10004519C, symSize: 0x34 }
  - { offsetInCU: 0x3C322, offset: 0x50CAF, size: 0x8, addend: 0x0, symName: __ZNSt3__1ltB7v160006IPN7testing8internal13edit_distance8EditTypeEEEbRKNS_11__wrap_iterIT_EESA_, symObjAddr: 0x3DC34, symBinAddr: 0x1000451D0, symSize: 0x48 }
  - { offsetInCU: 0x3C365, offset: 0x50CF2, size: 0x8, addend: 0x0, symName: __ZNSt3__1eqB7v160006IPN7testing8internal13edit_distance8EditTypeEEEbRKNS_11__wrap_iterIT_EESA_, symObjAddr: 0x3DD00, symBinAddr: 0x10004529C, symSize: 0x48 }
  - { offsetInCU: 0x3C3A8, offset: 0x50D35, size: 0x8, addend: 0x0, symName: __ZNSt3__19iter_swapB7v160006INS_11__wrap_iterIPN7testing8internal13edit_distance8EditTypeEEES7_EEvT_T0_, symObjAddr: 0x3DD60, symBinAddr: 0x1000452FC, symSize: 0x50 }
  - { offsetInCU: 0x3C3F1, offset: 0x50D7E, size: 0x8, addend: 0x0, symName: __ZNSt3__14swapB7v160006IN7testing8internal13edit_distance8EditTypeEEENS_9enable_ifIXaasr21is_move_constructibleIT_EE5valuesr18is_move_assignableIS6_EE5valueEvE4typeERS6_S9_, symObjAddr: 0x3DDB0, symBinAddr: 0x10004534C, symSize: 0x3C }
  - { offsetInCU: 0x3C444, offset: 0x50DD1, size: 0x8, addend: 0x0, symName: __ZNSt3__119__debug_db_insert_cB7v160006INS_6vectorImNS_9allocatorImEEEEEEvPT_, symObjAddr: 0x3DE98, symBinAddr: 0x100045434, symSize: 0x10 }
  - { offsetInCU: 0x3C475, offset: 0x50E02, size: 0x8, addend: 0x0, symName: __ZNSt3__118__debug_db_erase_cB7v160006INS_6vectorImNS_9allocatorImEEEEEEvPT_, symObjAddr: 0x3E15C, symBinAddr: 0x1000456F8, symSize: 0x10 }
  - { offsetInCU: 0x3C4A5, offset: 0x50E32, size: 0x8, addend: 0x0, symName: __ZNSt3__112__to_addressB7v160006ImEEPT_S2_, symObjAddr: 0x3E278, symBinAddr: 0x100045814, symSize: 0x14 }
  - { offsetInCU: 0x3C4DA, offset: 0x50E67, size: 0x8, addend: 0x0, symName: __ZNSt3__119__allocate_at_leastB7v160006INS_9allocatorImEEEENS_19__allocation_resultINS_16allocator_traitsIT_E7pointerEEERS5_m, symObjAddr: 0x3EB80, symBinAddr: 0x10004611C, symSize: 0x40 }
  - { offsetInCU: 0x3C51D, offset: 0x50EAA, size: 0x8, addend: 0x0, symName: __ZNSt3__142__uninitialized_allocator_move_if_noexceptB7v160006INS_9allocatorImEENS_16reverse_iteratorIPmEES5_mvEET1_RT_T0_S9_S6_, symObjAddr: 0x3ED34, symBinAddr: 0x1000462D0, symSize: 0x78 }
  - { offsetInCU: 0x3C59B, offset: 0x50F28, size: 0x8, addend: 0x0, symName: __ZNSt3__14swapB7v160006IPmEENS_9enable_ifIXaasr21is_move_constructibleIT_EE5valuesr18is_move_assignableIS3_EE5valueEvE4typeERS3_S6_, symObjAddr: 0x3EDF8, symBinAddr: 0x100046394, symSize: 0x3C }
  - { offsetInCU: 0x3C5EE, offset: 0x50F7B, size: 0x8, addend: 0x0, symName: __ZNSt3__125__debug_db_invalidate_allB7v160006INS_6vectorImNS_9allocatorImEEEEEEvPT_, symObjAddr: 0x3EEE0, symBinAddr: 0x10004647C, symSize: 0x10 }
  - { offsetInCU: 0x3C61E, offset: 0x50FAB, size: 0x8, addend: 0x0, symName: __ZNSt3__14moveB7v160006INS_16reverse_iteratorIPmEES3_EET0_T_S5_S4_, symObjAddr: 0x3EEF0, symBinAddr: 0x10004648C, symSize: 0x78 }
  - { offsetInCU: 0x3C678, offset: 0x51005, size: 0x8, addend: 0x0, symName: __ZNSt3__16__moveB7v160006INS_17_ClassicAlgPolicyENS_16reverse_iteratorIPmEES4_S4_EENS_4pairIT0_T2_EES6_T1_S7_, symObjAddr: 0x3EF68, symBinAddr: 0x100046504, symSize: 0x64 }
  - { offsetInCU: 0x3C6E4, offset: 0x51071, size: 0x8, addend: 0x0, symName: __ZNSt3__123__dispatch_copy_or_moveB7v160006INS_17_ClassicAlgPolicyENS_11__move_loopIS1_EENS_14__move_trivialENS_16reverse_iteratorIPmEES7_S7_EENS_4pairIT2_T4_EES9_T3_SA_, symObjAddr: 0x3EFCC, symBinAddr: 0x100046568, symSize: 0x64 }
  - { offsetInCU: 0x3C762, offset: 0x510EF, size: 0x8, addend: 0x0, symName: __ZNSt3__121__unwrap_and_dispatchB7v160006INS_10__overloadINS_11__move_loopINS_17_ClassicAlgPolicyEEENS_14__move_trivialEEENS_16reverse_iteratorIPmEES9_S9_Li0EEENS_4pairIT0_T2_EESB_T1_SC_, symObjAddr: 0x3F030, symBinAddr: 0x1000465CC, symSize: 0x12C }
  - { offsetInCU: 0x3C7F5, offset: 0x51182, size: 0x8, addend: 0x0, symName: __ZNSt3__114__unwrap_rangeB7v160006INS_16reverse_iteratorIPmEES3_EENS_4pairIT0_S5_EET_S7_, symObjAddr: 0x3F15C, symBinAddr: 0x1000466F8, symSize: 0x84 }
  - { offsetInCU: 0x3C915, offset: 0x512A2, size: 0x8, addend: 0x0, symName: __ZNSt3__113__unwrap_iterB7v160006INS_16reverse_iteratorIPmEENS_18__unwrap_iter_implIS3_Lb0EEELi0EEEDTclsrT0_8__unwrapclsr3stdE7declvalIT_EEEES7_, symObjAddr: 0x3F280, symBinAddr: 0x10004681C, symSize: 0x44 }
  - { offsetInCU: 0x3C95A, offset: 0x512E7, size: 0x8, addend: 0x0, symName: __ZNSt3__19make_pairB7v160006INS_16reverse_iteratorIPmEES3_EENS_4pairINS_18__unwrap_ref_decayIT_E4typeENS5_IT0_E4typeEEEOS6_OS9_, symObjAddr: 0x3F2C4, symBinAddr: 0x100046860, symSize: 0x38 }
  - { offsetInCU: 0x3C9A9, offset: 0x51336, size: 0x8, addend: 0x0, symName: __ZNSt3__114__rewrap_rangeB7v160006INS_16reverse_iteratorIPmEES3_EET_S4_T0_, symObjAddr: 0x3F2FC, symBinAddr: 0x100046898, symSize: 0x5C }
  - { offsetInCU: 0x3C9F5, offset: 0x51382, size: 0x8, addend: 0x0, symName: __ZNSt3__113__rewrap_iterB7v160006INS_16reverse_iteratorIPmEES3_NS_18__unwrap_iter_implIS3_Lb0EEEEET_S6_T0_, symObjAddr: 0x3F358, symBinAddr: 0x1000468F4, symSize: 0x74 }
  - { offsetInCU: 0x3CA4A, offset: 0x513D7, size: 0x8, addend: 0x0, symName: __ZNSt3__1neB7v160006IPmS1_EEbRKNS_16reverse_iteratorIT_EERKNS2_IT0_EE, symObjAddr: 0x3F3CC, symBinAddr: 0x100046968, symSize: 0x48 }
  - { offsetInCU: 0x3CB02, offset: 0x5148F, size: 0x8, addend: 0x0, symName: __ZNSt3__13minB7v160006ImNS_6__lessImmEEEERKT_S5_S5_T0_, symObjAddr: 0x3F75C, symBinAddr: 0x100046CF8, symSize: 0x54 }
  - { offsetInCU: 0x3CB5C, offset: 0x514E9, size: 0x8, addend: 0x0, symName: __ZNSt3__110__str_findB7v160006IcmNS_11char_traitsIcEELm18446744073709551615EEET0_PKT_S3_S6_S3_S3_, symObjAddr: 0x40340, symBinAddr: 0x100047880, symSize: 0xE4 }
  - { offsetInCU: 0x3CC03, offset: 0x51590, size: 0x8, addend: 0x0, symName: __ZNSt3__118__search_substringB7v160006IcNS_11char_traitsIcEEEEPKT_S5_S5_S5_S5_, symObjAddr: 0x40424, symBinAddr: 0x100047964, symSize: 0x154 }
  - { offsetInCU: 0x3CC9D, offset: 0x5162A, size: 0x8, addend: 0x0, symName: __ZNSt3__123__constexpr_char_memchrB7v160006EPKcim, symObjAddr: 0x405E8, symBinAddr: 0x100047B28, symSize: 0x34 }
  - { offsetInCU: 0x3CCE5, offset: 0x51672, size: 0x8, addend: 0x0, symName: __ZNSt3__110__str_findB7v160006IwmNS_11char_traitsIwEELm18446744073709551615EEET0_PKT_S3_S6_S3_S3_, symObjAddr: 0x40754, symBinAddr: 0x100047C94, symSize: 0xEC }
  - { offsetInCU: 0x3CD8C, offset: 0x51719, size: 0x8, addend: 0x0, symName: __ZNSt3__118__search_substringB7v160006IwNS_11char_traitsIwEEEEPKT_S5_S5_S5_S5_, symObjAddr: 0x40840, symBinAddr: 0x100047D80, symSize: 0x16C }
  - { offsetInCU: 0x3CE26, offset: 0x517B3, size: 0x8, addend: 0x0, symName: __ZNSt3__119__constexpr_wmemchrB7v160006EPKwwm, symObjAddr: 0x40A88, symBinAddr: 0x100047FC8, symSize: 0x34 }
  - { offsetInCU: 0x3CE6E, offset: 0x517FB, size: 0x8, addend: 0x0, symName: __ZNSt3__119__constexpr_wmemcmpB7v160006EPKwS1_m, symObjAddr: 0x40ABC, symBinAddr: 0x100047FFC, symSize: 0x34 }
  - { offsetInCU: 0x3CEB7, offset: 0x51844, size: 0x8, addend: 0x0, symName: __ZNSt3__119__debug_db_insert_cB7v160006INS_6vectorIN7testing12TestPropertyENS_9allocatorIS3_EEEEEEvPT_, symObjAddr: 0x40C4C, symBinAddr: 0x10004818C, symSize: 0x10 }
  - { offsetInCU: 0x3CEE8, offset: 0x51875, size: 0x8, addend: 0x0, symName: __ZNSt3__118__debug_db_erase_cB7v160006INS_6vectorIN7testing12TestPropertyENS_9allocatorIS3_EEEEEEvPT_, symObjAddr: 0x40F2C, symBinAddr: 0x10004846C, symSize: 0x10 }
  - { offsetInCU: 0x3CF18, offset: 0x518A5, size: 0x8, addend: 0x0, symName: __ZNSt3__112__to_addressB7v160006IN7testing12TestPropertyEEEPT_S4_, symObjAddr: 0x41048, symBinAddr: 0x100048588, symSize: 0x14 }
  - { offsetInCU: 0x3CF4E, offset: 0x518DB, size: 0x8, addend: 0x0, symName: __ZNSt3__120__throw_out_of_rangeB7v160006EPKc, symObjAddr: 0x41234, symBinAddr: 0x100048774, symSize: 0x64 }
  - { offsetInCU: 0x3CF79, offset: 0x51906, size: 0x8, addend: 0x0, symName: __ZNSt3__125__debug_db_invalidate_allB7v160006INS_6vectorIN7testing14TestPartResultENS_9allocatorIS3_EEEEEEvPT_, symObjAddr: 0x41404, symBinAddr: 0x100048944, symSize: 0x10 }
  - { offsetInCU: 0x3CFA9, offset: 0x51936, size: 0x8, addend: 0x0, symName: __ZNSt3__119__allocate_at_leastB7v160006INS_9allocatorIN7testing14TestPartResultEEEEENS_19__allocation_resultINS_16allocator_traitsIT_E7pointerEEERS7_m, symObjAddr: 0x41C8C, symBinAddr: 0x1000491CC, symSize: 0x40 }
  - { offsetInCU: 0x3CFEC, offset: 0x51979, size: 0x8, addend: 0x0, symName: __ZNSt3__142__uninitialized_allocator_move_if_noexceptB7v160006INS_9allocatorIN7testing14TestPartResultEEENS_16reverse_iteratorIPS3_EES7_S7_EET2_RT_T0_T1_S8_, symObjAddr: 0x41E44, symBinAddr: 0x100049384, symSize: 0x12C }
  - { offsetInCU: 0x3D08C, offset: 0x51A19, size: 0x8, addend: 0x0, symName: __ZNSt3__14swapB7v160006IPN7testing14TestPartResultEEENS_9enable_ifIXaasr21is_move_constructibleIT_EE5valuesr18is_move_assignableIS5_EE5valueEvE4typeERS5_S8_, symObjAddr: 0x41FBC, symBinAddr: 0x1000494FC, symSize: 0x3C }
  - { offsetInCU: 0x3D0DE, offset: 0x51A6B, size: 0x8, addend: 0x0, symName: __ZNSt3__122__make_exception_guardB7v160006INS_29_AllocatorDestroyRangeReverseINS_9allocatorIN7testing14TestPartResultEEENS_16reverse_iteratorIPS4_EEEEEENS_28__exception_guard_exceptionsIT_EESB_, symObjAddr: 0x420C0, symBinAddr: 0x100049600, symSize: 0x4C }
  - { offsetInCU: 0x3D114, offset: 0x51AA1, size: 0x8, addend: 0x0, symName: __ZNSt3__1neB7v160006IPN7testing14TestPartResultES3_EEbRKNS_16reverse_iteratorIT_EERKNS4_IT0_EE, symObjAddr: 0x42150, symBinAddr: 0x100049690, symSize: 0x48 }
  - { offsetInCU: 0x3D160, offset: 0x51AED, size: 0x8, addend: 0x0, symName: __ZNSt3__112__to_addressB7v160006INS_16reverse_iteratorIPN7testing14TestPartResultEEEvEENS_5decayIDTclsr19__to_address_helperIT_EE6__callclsr3stdE7declvalIRKS7_EEEEE4typeES9_, symObjAddr: 0x421CC, symBinAddr: 0x10004970C, symSize: 0x24 }
  - { offsetInCU: 0x3D1C0, offset: 0x51B4D, size: 0x8, addend: 0x0, symName: __ZNSt3__119__allocator_destroyB7v160006INS_9allocatorIN7testing14TestPartResultEEENS_16reverse_iteratorINS5_IPS3_EEEES8_EEvRT_T0_T1_, symObjAddr: 0x4255C, symBinAddr: 0x100049A9C, symSize: 0x70 }
  - { offsetInCU: 0x3D225, offset: 0x51BB2, size: 0x8, addend: 0x0, symName: __ZNSt3__1neB7v160006INS_16reverse_iteratorIPN7testing14TestPartResultEEES5_EEbRKNS1_IT_EERKNS1_IT0_EE, symObjAddr: 0x42608, symBinAddr: 0x100049B48, symSize: 0x60 }
  - { offsetInCU: 0x3D271, offset: 0x51BFE, size: 0x8, addend: 0x0, symName: __ZNSt3__112__to_addressB7v160006INS_16reverse_iteratorINS1_IPN7testing14TestPartResultEEEEEvEENS_5decayIDTclsr19__to_address_helperIT_EE6__callclsr3stdE7declvalIRKS8_EEEEE4typeESA_, symObjAddr: 0x42668, symBinAddr: 0x100049BA8, symSize: 0x24 }
  - { offsetInCU: 0x3D2D1, offset: 0x51C5E, size: 0x8, addend: 0x0, symName: __ZNSt3__1neB7v160006IPN7testing12TestPropertyEEEbRKNS_11__wrap_iterIT_EES8_, symObjAddr: 0x42A64, symBinAddr: 0x100049FA4, symSize: 0x34 }
  - { offsetInCU: 0x3D314, offset: 0x51CA1, size: 0x8, addend: 0x0, symName: __ZNSt3__1eqB7v160006IcNS_11char_traitsIcEENS_9allocatorIcEEEEbPKT_RKNS_12basic_stringIS5_T0_T1_EE, symObjAddr: 0x42B0C, symBinAddr: 0x10004A04C, symSize: 0xAC }
  - { offsetInCU: 0x3D37B, offset: 0x51D08, size: 0x8, addend: 0x0, symName: __ZNSt3__119__allocate_at_leastB7v160006INS_9allocatorIN7testing12TestPropertyEEEEENS_19__allocation_resultINS_16allocator_traitsIT_E7pointerEEERS7_m, symObjAddr: 0x433CC, symBinAddr: 0x10004A90C, symSize: 0x40 }
  - { offsetInCU: 0x3D3BE, offset: 0x51D4B, size: 0x8, addend: 0x0, symName: __ZNSt3__142__uninitialized_allocator_move_if_noexceptB7v160006INS_9allocatorIN7testing12TestPropertyEEENS_16reverse_iteratorIPS3_EES7_S7_EET2_RT_T0_T1_S8_, symObjAddr: 0x43584, symBinAddr: 0x10004AAC4, symSize: 0x12C }
  - { offsetInCU: 0x3D45E, offset: 0x51DEB, size: 0x8, addend: 0x0, symName: __ZNSt3__14swapB7v160006IPN7testing12TestPropertyEEENS_9enable_ifIXaasr21is_move_constructibleIT_EE5valuesr18is_move_assignableIS5_EE5valueEvE4typeERS5_S8_, symObjAddr: 0x436FC, symBinAddr: 0x10004AC3C, symSize: 0x3C }
  - { offsetInCU: 0x3D4B1, offset: 0x51E3E, size: 0x8, addend: 0x0, symName: __ZNSt3__125__debug_db_invalidate_allB7v160006INS_6vectorIN7testing12TestPropertyENS_9allocatorIS3_EEEEEEvPT_, symObjAddr: 0x43800, symBinAddr: 0x10004AD40, symSize: 0x10 }
  - { offsetInCU: 0x3D4E1, offset: 0x51E6E, size: 0x8, addend: 0x0, symName: __ZNSt3__122__make_exception_guardB7v160006INS_29_AllocatorDestroyRangeReverseINS_9allocatorIN7testing12TestPropertyEEENS_16reverse_iteratorIPS4_EEEEEENS_28__exception_guard_exceptionsIT_EESB_, symObjAddr: 0x43810, symBinAddr: 0x10004AD50, symSize: 0x4C }
  - { offsetInCU: 0x3D517, offset: 0x51EA4, size: 0x8, addend: 0x0, symName: __ZNSt3__1neB7v160006IPN7testing12TestPropertyES3_EEbRKNS_16reverse_iteratorIT_EERKNS4_IT0_EE, symObjAddr: 0x438A0, symBinAddr: 0x10004ADE0, symSize: 0x48 }
  - { offsetInCU: 0x3D563, offset: 0x51EF0, size: 0x8, addend: 0x0, symName: __ZNSt3__112__to_addressB7v160006INS_16reverse_iteratorIPN7testing12TestPropertyEEEvEENS_5decayIDTclsr19__to_address_helperIT_EE6__callclsr3stdE7declvalIRKS7_EEEEE4typeES9_, symObjAddr: 0x4391C, symBinAddr: 0x10004AE5C, symSize: 0x24 }
  - { offsetInCU: 0x3D5C3, offset: 0x51F50, size: 0x8, addend: 0x0, symName: __ZNSt3__119__allocator_destroyB7v160006INS_9allocatorIN7testing12TestPropertyEEENS_16reverse_iteratorINS5_IPS3_EEEES8_EEvRT_T0_T1_, symObjAddr: 0x43C78, symBinAddr: 0x10004B1B8, symSize: 0x70 }
  - { offsetInCU: 0x3D628, offset: 0x51FB5, size: 0x8, addend: 0x0, symName: __ZNSt3__1neB7v160006INS_16reverse_iteratorIPN7testing12TestPropertyEEES5_EEbRKNS1_IT_EERKNS1_IT0_EE, symObjAddr: 0x43D24, symBinAddr: 0x10004B264, symSize: 0x60 }
  - { offsetInCU: 0x3D674, offset: 0x52001, size: 0x8, addend: 0x0, symName: __ZNSt3__112__to_addressB7v160006INS_16reverse_iteratorINS1_IPN7testing12TestPropertyEEEEEvEENS_5decayIDTclsr19__to_address_helperIT_EE6__callclsr3stdE7declvalIRKS8_EEEEE4typeESA_, symObjAddr: 0x43D84, symBinAddr: 0x10004B2C4, symSize: 0x24 }
  - { offsetInCU: 0x3D6D4, offset: 0x52061, size: 0x8, addend: 0x0, symName: __ZNSt3__1neB7v160006IPKN7testing14TestPartResultEEEbRKNS_11__wrap_iterIT_EES9_, symObjAddr: 0x44280, symBinAddr: 0x10004B7C0, symSize: 0x34 }
  - { offsetInCU: 0x3D717, offset: 0x520A4, size: 0x8, addend: 0x0, symName: __ZNSt3__1eqB7v160006IPKN7testing14TestPartResultEEEbRKNS_11__wrap_iterIT_EES9_, symObjAddr: 0x443B0, symBinAddr: 0x10004B8F0, symSize: 0x48 }
  - { offsetInCU: 0x3D75A, offset: 0x520E7, size: 0x8, addend: 0x0, symName: __ZNSt3__1neB7v160006IPKPN7testing8TestInfoEEEbRKNS_11__wrap_iterIT_EESA_, symObjAddr: 0x44D34, symBinAddr: 0x10004C274, symSize: 0x34 }
  - { offsetInCU: 0x3D79D, offset: 0x5212A, size: 0x8, addend: 0x0, symName: __ZNSt3__1eqB7v160006IPKPN7testing8TestInfoEEEbRKNS_11__wrap_iterIT_EESA_, symObjAddr: 0x44E64, symBinAddr: 0x10004C3A4, symSize: 0x48 }
  - { offsetInCU: 0x3D7E1, offset: 0x5216E, size: 0x8, addend: 0x0, symName: __ZNSt3__119__debug_db_insert_cB7v160006INS_6vectorIPN7testing8TestInfoENS_9allocatorIS4_EEEEEEvPT_, symObjAddr: 0x44F58, symBinAddr: 0x10004C498, symSize: 0x10 }
  - { offsetInCU: 0x3D812, offset: 0x5219F, size: 0x8, addend: 0x0, symName: __ZNSt3__119__debug_db_insert_cB7v160006INS_6vectorIiNS_9allocatorIiEEEEEEvPT_, symObjAddr: 0x450C4, symBinAddr: 0x10004C604, symSize: 0x10 }
  - { offsetInCU: 0x3D843, offset: 0x521D0, size: 0x8, addend: 0x0, symName: __ZNSt3__118__debug_db_erase_cB7v160006INS_6vectorIPN7testing8TestInfoENS_9allocatorIS4_EEEEEEvPT_, symObjAddr: 0x45388, symBinAddr: 0x10004C8C8, symSize: 0x10 }
  - { offsetInCU: 0x3D873, offset: 0x52200, size: 0x8, addend: 0x0, symName: __ZNSt3__112__to_addressB7v160006IPN7testing8TestInfoEEEPT_S5_, symObjAddr: 0x454A4, symBinAddr: 0x10004C9E4, symSize: 0x14 }
  - { offsetInCU: 0x3D8A9, offset: 0x52236, size: 0x8, addend: 0x0, symName: __ZNSt3__118__debug_db_erase_cB7v160006INS_6vectorIiNS_9allocatorIiEEEEEEvPT_, symObjAddr: 0x45848, symBinAddr: 0x10004CD88, symSize: 0x10 }
  - { offsetInCU: 0x3D8D9, offset: 0x52266, size: 0x8, addend: 0x0, symName: __ZNSt3__112__to_addressB7v160006IiEEPT_S2_, symObjAddr: 0x45964, symBinAddr: 0x10004CEA4, symSize: 0x14 }
  - { offsetInCU: 0x3D90E, offset: 0x5229B, size: 0x8, addend: 0x0, symName: __ZNSt3__18for_eachB7v160006INS_11__wrap_iterIPKPN7testing8TestInfoEEEPFvS4_EEET0_T_SB_SA_, symObjAddr: 0x45B1C, symBinAddr: 0x10004D05C, symSize: 0x6C }
  - { offsetInCU: 0x3D968, offset: 0x522F5, size: 0x8, addend: 0x0, symName: __ZNSt3__119__allocate_at_leastB7v160006INS_9allocatorIPN7testing8TestInfoEEEEENS_19__allocation_resultINS_16allocator_traitsIT_E7pointerEEERS8_m, symObjAddr: 0x462D8, symBinAddr: 0x10004D818, symSize: 0x40 }
  - { offsetInCU: 0x3D9AB, offset: 0x52338, size: 0x8, addend: 0x0, symName: __ZNSt3__142__uninitialized_allocator_move_if_noexceptB7v160006INS_9allocatorIPN7testing8TestInfoEEENS_16reverse_iteratorIPS4_EES8_S4_vEET1_RT_T0_SC_S9_, symObjAddr: 0x4648C, symBinAddr: 0x10004D9CC, symSize: 0x78 }
  - { offsetInCU: 0x3DA29, offset: 0x523B6, size: 0x8, addend: 0x0, symName: __ZNSt3__14swapB7v160006IPPN7testing8TestInfoEEENS_9enable_ifIXaasr21is_move_constructibleIT_EE5valuesr18is_move_assignableIS6_EE5valueEvE4typeERS6_S9_, symObjAddr: 0x46550, symBinAddr: 0x10004DA90, symSize: 0x3C }
  - { offsetInCU: 0x3DA7C, offset: 0x52409, size: 0x8, addend: 0x0, symName: __ZNSt3__125__debug_db_invalidate_allB7v160006INS_6vectorIPN7testing8TestInfoENS_9allocatorIS4_EEEEEEvPT_, symObjAddr: 0x46638, symBinAddr: 0x10004DB78, symSize: 0x10 }
  - { offsetInCU: 0x3DAAC, offset: 0x52439, size: 0x8, addend: 0x0, symName: __ZNSt3__14moveB7v160006INS_16reverse_iteratorIPPN7testing8TestInfoEEES6_EET0_T_S8_S7_, symObjAddr: 0x46648, symBinAddr: 0x10004DB88, symSize: 0x78 }
  - { offsetInCU: 0x3DB06, offset: 0x52493, size: 0x8, addend: 0x0, symName: __ZNSt3__16__moveB7v160006INS_17_ClassicAlgPolicyENS_16reverse_iteratorIPPN7testing8TestInfoEEES7_S7_EENS_4pairIT0_T2_EES9_T1_SA_, symObjAddr: 0x466C0, symBinAddr: 0x10004DC00, symSize: 0x64 }
  - { offsetInCU: 0x3DB72, offset: 0x524FF, size: 0x8, addend: 0x0, symName: __ZNSt3__123__dispatch_copy_or_moveB7v160006INS_17_ClassicAlgPolicyENS_11__move_loopIS1_EENS_14__move_trivialENS_16reverse_iteratorIPPN7testing8TestInfoEEESA_SA_EENS_4pairIT2_T4_EESC_T3_SD_, symObjAddr: 0x46724, symBinAddr: 0x10004DC64, symSize: 0x64 }
  - { offsetInCU: 0x3DBF0, offset: 0x5257D, size: 0x8, addend: 0x0, symName: __ZNSt3__121__unwrap_and_dispatchB7v160006INS_10__overloadINS_11__move_loopINS_17_ClassicAlgPolicyEEENS_14__move_trivialEEENS_16reverse_iteratorIPPN7testing8TestInfoEEESC_SC_Li0EEENS_4pairIT0_T2_EESE_T1_SF_, symObjAddr: 0x46788, symBinAddr: 0x10004DCC8, symSize: 0x12C }
  - { offsetInCU: 0x3DC83, offset: 0x52610, size: 0x8, addend: 0x0, symName: __ZNSt3__114__unwrap_rangeB7v160006INS_16reverse_iteratorIPPN7testing8TestInfoEEES6_EENS_4pairIT0_S8_EET_SA_, symObjAddr: 0x468B4, symBinAddr: 0x10004DDF4, symSize: 0x84 }
  - { offsetInCU: 0x3DDA3, offset: 0x52730, size: 0x8, addend: 0x0, symName: __ZNSt3__113__unwrap_iterB7v160006INS_16reverse_iteratorIPPN7testing8TestInfoEEENS_18__unwrap_iter_implIS6_Lb0EEELi0EEEDTclsrT0_8__unwrapclsr3stdE7declvalIT_EEEESA_, symObjAddr: 0x469D8, symBinAddr: 0x10004DF18, symSize: 0x44 }
  - { offsetInCU: 0x3DDE8, offset: 0x52775, size: 0x8, addend: 0x0, symName: __ZNSt3__19make_pairB7v160006INS_16reverse_iteratorIPPN7testing8TestInfoEEES6_EENS_4pairINS_18__unwrap_ref_decayIT_E4typeENS8_IT0_E4typeEEEOS9_OSC_, symObjAddr: 0x46A1C, symBinAddr: 0x10004DF5C, symSize: 0x38 }
  - { offsetInCU: 0x3DE37, offset: 0x527C4, size: 0x8, addend: 0x0, symName: __ZNSt3__114__rewrap_rangeB7v160006INS_16reverse_iteratorIPPN7testing8TestInfoEEES6_EET_S7_T0_, symObjAddr: 0x46A54, symBinAddr: 0x10004DF94, symSize: 0x5C }
  - { offsetInCU: 0x3DE83, offset: 0x52810, size: 0x8, addend: 0x0, symName: __ZNSt3__113__rewrap_iterB7v160006INS_16reverse_iteratorIPPN7testing8TestInfoEEES6_NS_18__unwrap_iter_implIS6_Lb0EEEEET_S9_T0_, symObjAddr: 0x46AB0, symBinAddr: 0x10004DFF0, symSize: 0x74 }
  - { offsetInCU: 0x3DED8, offset: 0x52865, size: 0x8, addend: 0x0, symName: __ZNSt3__1neB7v160006IPPN7testing8TestInfoES4_EEbRKNS_16reverse_iteratorIT_EERKNS5_IT0_EE, symObjAddr: 0x46B24, symBinAddr: 0x10004E064, symSize: 0x48 }
  - { offsetInCU: 0x3DF90, offset: 0x5291D, size: 0x8, addend: 0x0, symName: __ZNSt3__119__allocate_at_leastB7v160006INS_9allocatorIiEEEENS_19__allocation_resultINS_16allocator_traitsIT_E7pointerEEERS5_m, symObjAddr: 0x47604, symBinAddr: 0x10004EB44, symSize: 0x40 }
  - { offsetInCU: 0x3DFD3, offset: 0x52960, size: 0x8, addend: 0x0, symName: __ZNSt3__142__uninitialized_allocator_move_if_noexceptB7v160006INS_9allocatorIiEENS_16reverse_iteratorIPiEES5_ivEET1_RT_T0_S9_S6_, symObjAddr: 0x477B8, symBinAddr: 0x10004ECF8, symSize: 0x78 }
  - { offsetInCU: 0x3E051, offset: 0x529DE, size: 0x8, addend: 0x0, symName: __ZNSt3__14swapB7v160006IPiEENS_9enable_ifIXaasr21is_move_constructibleIT_EE5valuesr18is_move_assignableIS3_EE5valueEvE4typeERS3_S6_, symObjAddr: 0x4787C, symBinAddr: 0x10004EDBC, symSize: 0x3C }
  - { offsetInCU: 0x3E0A4, offset: 0x52A31, size: 0x8, addend: 0x0, symName: __ZNSt3__125__debug_db_invalidate_allB7v160006INS_6vectorIiNS_9allocatorIiEEEEEEvPT_, symObjAddr: 0x47964, symBinAddr: 0x10004EEA4, symSize: 0x10 }
  - { offsetInCU: 0x3E0D4, offset: 0x52A61, size: 0x8, addend: 0x0, symName: __ZNSt3__14moveB7v160006INS_16reverse_iteratorIPiEES3_EET0_T_S5_S4_, symObjAddr: 0x47974, symBinAddr: 0x10004EEB4, symSize: 0x78 }
  - { offsetInCU: 0x3E12E, offset: 0x52ABB, size: 0x8, addend: 0x0, symName: __ZNSt3__16__moveB7v160006INS_17_ClassicAlgPolicyENS_16reverse_iteratorIPiEES4_S4_EENS_4pairIT0_T2_EES6_T1_S7_, symObjAddr: 0x479EC, symBinAddr: 0x10004EF2C, symSize: 0x64 }
  - { offsetInCU: 0x3E19A, offset: 0x52B27, size: 0x8, addend: 0x0, symName: __ZNSt3__123__dispatch_copy_or_moveB7v160006INS_17_ClassicAlgPolicyENS_11__move_loopIS1_EENS_14__move_trivialENS_16reverse_iteratorIPiEES7_S7_EENS_4pairIT2_T4_EES9_T3_SA_, symObjAddr: 0x47A50, symBinAddr: 0x10004EF90, symSize: 0x64 }
  - { offsetInCU: 0x3E218, offset: 0x52BA5, size: 0x8, addend: 0x0, symName: __ZNSt3__121__unwrap_and_dispatchB7v160006INS_10__overloadINS_11__move_loopINS_17_ClassicAlgPolicyEEENS_14__move_trivialEEENS_16reverse_iteratorIPiEES9_S9_Li0EEENS_4pairIT0_T2_EESB_T1_SC_, symObjAddr: 0x47AB4, symBinAddr: 0x10004EFF4, symSize: 0x12C }
  - { offsetInCU: 0x3E2AB, offset: 0x52C38, size: 0x8, addend: 0x0, symName: __ZNSt3__114__unwrap_rangeB7v160006INS_16reverse_iteratorIPiEES3_EENS_4pairIT0_S5_EET_S7_, symObjAddr: 0x47BE0, symBinAddr: 0x10004F120, symSize: 0x84 }
  - { offsetInCU: 0x3E3CB, offset: 0x52D58, size: 0x8, addend: 0x0, symName: __ZNSt3__113__unwrap_iterB7v160006INS_16reverse_iteratorIPiEENS_18__unwrap_iter_implIS3_Lb0EEELi0EEEDTclsrT0_8__unwrapclsr3stdE7declvalIT_EEEES7_, symObjAddr: 0x47D04, symBinAddr: 0x10004F244, symSize: 0x44 }
  - { offsetInCU: 0x3E410, offset: 0x52D9D, size: 0x8, addend: 0x0, symName: __ZNSt3__19make_pairB7v160006INS_16reverse_iteratorIPiEES3_EENS_4pairINS_18__unwrap_ref_decayIT_E4typeENS5_IT0_E4typeEEEOS6_OS9_, symObjAddr: 0x47D48, symBinAddr: 0x10004F288, symSize: 0x38 }
  - { offsetInCU: 0x3E45F, offset: 0x52DEC, size: 0x8, addend: 0x0, symName: __ZNSt3__114__rewrap_rangeB7v160006INS_16reverse_iteratorIPiEES3_EET_S4_T0_, symObjAddr: 0x47D80, symBinAddr: 0x10004F2C0, symSize: 0x5C }
  - { offsetInCU: 0x3E4AB, offset: 0x52E38, size: 0x8, addend: 0x0, symName: __ZNSt3__113__rewrap_iterB7v160006INS_16reverse_iteratorIPiEES3_NS_18__unwrap_iter_implIS3_Lb0EEEEET_S6_T0_, symObjAddr: 0x47DDC, symBinAddr: 0x10004F31C, symSize: 0x74 }
  - { offsetInCU: 0x3E500, offset: 0x52E8D, size: 0x8, addend: 0x0, symName: __ZNSt3__1neB7v160006IPiS1_EEbRKNS_16reverse_iteratorIT_EERKNS2_IT0_EE, symObjAddr: 0x47E50, symBinAddr: 0x10004F390, symSize: 0x48 }
  - { offsetInCU: 0x3E5B9, offset: 0x52F46, size: 0x8, addend: 0x0, symName: __ZNSt3__118__debug_db_erase_cB7v160006INS_6vectorIPN7testing17TestEventListenerENS_9allocatorIS4_EEEEEEvPT_, symObjAddr: 0x4849C, symBinAddr: 0x10004F9DC, symSize: 0x10 }
  - { offsetInCU: 0x3E5E9, offset: 0x52F76, size: 0x8, addend: 0x0, symName: __ZNSt3__112__to_addressB7v160006IPN7testing17TestEventListenerEEEPT_S5_, symObjAddr: 0x485B8, symBinAddr: 0x10004FAF8, symSize: 0x14 }
  - { offsetInCU: 0x3E61E, offset: 0x52FAB, size: 0x8, addend: 0x0, symName: __ZNSt3__18for_eachB7v160006INS_11__wrap_iterIPKPN7testing17TestEventListenerEEEPFvS4_EEET0_T_SB_SA_, symObjAddr: 0x48770, symBinAddr: 0x10004FCB0, symSize: 0x6C }
  - { offsetInCU: 0x3E678, offset: 0x53005, size: 0x8, addend: 0x0, symName: __ZNSt3__1neB7v160006IPKPN7testing17TestEventListenerEEEbRKNS_11__wrap_iterIT_EESA_, symObjAddr: 0x4883C, symBinAddr: 0x10004FD7C, symSize: 0x34 }
  - { offsetInCU: 0x3E6BB, offset: 0x53048, size: 0x8, addend: 0x0, symName: __ZNSt3__1eqB7v160006IPKPN7testing17TestEventListenerEEEbRKNS_11__wrap_iterIT_EESA_, symObjAddr: 0x488A8, symBinAddr: 0x10004FDE8, symSize: 0x48 }
  - { offsetInCU: 0x3E6FE, offset: 0x5308B, size: 0x8, addend: 0x0, symName: __ZNSt3__119__allocate_at_leastB7v160006INS_9allocatorIPN7testing17TestEventListenerEEEEENS_19__allocation_resultINS_16allocator_traitsIT_E7pointerEEERS8_m, symObjAddr: 0x490EC, symBinAddr: 0x10005062C, symSize: 0x40 }
  - { offsetInCU: 0x3E741, offset: 0x530CE, size: 0x8, addend: 0x0, symName: __ZNSt3__142__uninitialized_allocator_move_if_noexceptB7v160006INS_9allocatorIPN7testing17TestEventListenerEEENS_16reverse_iteratorIPS4_EES8_S4_vEET1_RT_T0_SC_S9_, symObjAddr: 0x492A0, symBinAddr: 0x1000507E0, symSize: 0x78 }
  - { offsetInCU: 0x3E7BF, offset: 0x5314C, size: 0x8, addend: 0x0, symName: __ZNSt3__14swapB7v160006IPPN7testing17TestEventListenerEEENS_9enable_ifIXaasr21is_move_constructibleIT_EE5valuesr18is_move_assignableIS6_EE5valueEvE4typeERS6_S9_, symObjAddr: 0x49364, symBinAddr: 0x1000508A4, symSize: 0x3C }
  - { offsetInCU: 0x3E812, offset: 0x5319F, size: 0x8, addend: 0x0, symName: __ZNSt3__125__debug_db_invalidate_allB7v160006INS_6vectorIPN7testing17TestEventListenerENS_9allocatorIS4_EEEEEEvPT_, symObjAddr: 0x4944C, symBinAddr: 0x10005098C, symSize: 0x10 }
  - { offsetInCU: 0x3E842, offset: 0x531CF, size: 0x8, addend: 0x0, symName: __ZNSt3__14moveB7v160006INS_16reverse_iteratorIPPN7testing17TestEventListenerEEES6_EET0_T_S8_S7_, symObjAddr: 0x4945C, symBinAddr: 0x10005099C, symSize: 0x78 }
  - { offsetInCU: 0x3E89C, offset: 0x53229, size: 0x8, addend: 0x0, symName: __ZNSt3__16__moveB7v160006INS_17_ClassicAlgPolicyENS_16reverse_iteratorIPPN7testing17TestEventListenerEEES7_S7_EENS_4pairIT0_T2_EES9_T1_SA_, symObjAddr: 0x494D4, symBinAddr: 0x100050A14, symSize: 0x64 }
  - { offsetInCU: 0x3E908, offset: 0x53295, size: 0x8, addend: 0x0, symName: __ZNSt3__123__dispatch_copy_or_moveB7v160006INS_17_ClassicAlgPolicyENS_11__move_loopIS1_EENS_14__move_trivialENS_16reverse_iteratorIPPN7testing17TestEventListenerEEESA_SA_EENS_4pairIT2_T4_EESC_T3_SD_, symObjAddr: 0x49538, symBinAddr: 0x100050A78, symSize: 0x64 }
  - { offsetInCU: 0x3E986, offset: 0x53313, size: 0x8, addend: 0x0, symName: __ZNSt3__121__unwrap_and_dispatchB7v160006INS_10__overloadINS_11__move_loopINS_17_ClassicAlgPolicyEEENS_14__move_trivialEEENS_16reverse_iteratorIPPN7testing17TestEventListenerEEESC_SC_Li0EEENS_4pairIT0_T2_EESE_T1_SF_, symObjAddr: 0x4959C, symBinAddr: 0x100050ADC, symSize: 0x12C }
  - { offsetInCU: 0x3EA19, offset: 0x533A6, size: 0x8, addend: 0x0, symName: __ZNSt3__114__unwrap_rangeB7v160006INS_16reverse_iteratorIPPN7testing17TestEventListenerEEES6_EENS_4pairIT0_S8_EET_SA_, symObjAddr: 0x496C8, symBinAddr: 0x100050C08, symSize: 0x84 }
  - { offsetInCU: 0x3EB39, offset: 0x534C6, size: 0x8, addend: 0x0, symName: __ZNSt3__113__unwrap_iterB7v160006INS_16reverse_iteratorIPPN7testing17TestEventListenerEEENS_18__unwrap_iter_implIS6_Lb0EEELi0EEEDTclsrT0_8__unwrapclsr3stdE7declvalIT_EEEESA_, symObjAddr: 0x497EC, symBinAddr: 0x100050D2C, symSize: 0x44 }
  - { offsetInCU: 0x3EB7E, offset: 0x5350B, size: 0x8, addend: 0x0, symName: __ZNSt3__19make_pairB7v160006INS_16reverse_iteratorIPPN7testing17TestEventListenerEEES6_EENS_4pairINS_18__unwrap_ref_decayIT_E4typeENS8_IT0_E4typeEEEOS9_OSC_, symObjAddr: 0x49830, symBinAddr: 0x100050D70, symSize: 0x38 }
  - { offsetInCU: 0x3EBCD, offset: 0x5355A, size: 0x8, addend: 0x0, symName: __ZNSt3__114__rewrap_rangeB7v160006INS_16reverse_iteratorIPPN7testing17TestEventListenerEEES6_EET_S7_T0_, symObjAddr: 0x49868, symBinAddr: 0x100050DA8, symSize: 0x5C }
  - { offsetInCU: 0x3EC19, offset: 0x535A6, size: 0x8, addend: 0x0, symName: __ZNSt3__113__rewrap_iterB7v160006INS_16reverse_iteratorIPPN7testing17TestEventListenerEEES6_NS_18__unwrap_iter_implIS6_Lb0EEEEET_S9_T0_, symObjAddr: 0x498C4, symBinAddr: 0x100050E04, symSize: 0x74 }
  - { offsetInCU: 0x3EC6E, offset: 0x535FB, size: 0x8, addend: 0x0, symName: __ZNSt3__1neB7v160006IPPN7testing17TestEventListenerES4_EEbRKNS_16reverse_iteratorIT_EERKNS5_IT0_EE, symObjAddr: 0x49938, symBinAddr: 0x100050E78, symSize: 0x48 }
  - { offsetInCU: 0x3ED26, offset: 0x536B3, size: 0x8, addend: 0x0, symName: __ZNSt3__1miB7v160006IPKPN7testing17TestEventListenerES5_EEDTmicldtfp_4baseEcldtfp0_4baseEERKNS_11__wrap_iterIT_EERKNS7_IT0_EE, symObjAddr: 0x49D84, symBinAddr: 0x1000512C4, symSize: 0x48 }
  - { offsetInCU: 0x3ED72, offset: 0x536FF, size: 0x8, addend: 0x0, symName: __ZNSt3__14moveB7v160006IPPN7testing17TestEventListenerES4_EET0_T_S6_S5_, symObjAddr: 0x49E58, symBinAddr: 0x100051398, symSize: 0x40 }
  - { offsetInCU: 0x3EDCC, offset: 0x53759, size: 0x8, addend: 0x0, symName: __ZNSt3__16__moveB7v160006INS_17_ClassicAlgPolicyEPPN7testing17TestEventListenerES5_S5_EENS_4pairIT0_T2_EES7_T1_S8_, symObjAddr: 0x49F60, symBinAddr: 0x1000514A0, symSize: 0x44 }
  - { offsetInCU: 0x3EE38, offset: 0x537C5, size: 0x8, addend: 0x0, symName: __ZNSt3__123__dispatch_copy_or_moveB7v160006INS_17_ClassicAlgPolicyENS_11__move_loopIS1_EENS_14__move_trivialEPPN7testing17TestEventListenerES8_S8_EENS_4pairIT2_T4_EESA_T3_SB_, symObjAddr: 0x49FA4, symBinAddr: 0x1000514E4, symSize: 0x44 }
  - { offsetInCU: 0x3EEB6, offset: 0x53843, size: 0x8, addend: 0x0, symName: __ZNSt3__121__unwrap_and_dispatchB7v160006INS_10__overloadINS_11__move_loopINS_17_ClassicAlgPolicyEEENS_14__move_trivialEEEPPN7testing17TestEventListenerESA_SA_Li0EEENS_4pairIT0_T2_EESC_T1_SD_, symObjAddr: 0x49FE8, symBinAddr: 0x100051528, symSize: 0xB4 }
  - { offsetInCU: 0x3EF47, offset: 0x538D4, size: 0x8, addend: 0x0, symName: __ZNSt3__114__unwrap_rangeB7v160006IPPN7testing17TestEventListenerES4_EENS_4pairIT0_S6_EET_S8_, symObjAddr: 0x4A09C, symBinAddr: 0x1000515DC, symSize: 0x60 }
  - { offsetInCU: 0x3F096, offset: 0x53A23, size: 0x8, addend: 0x0, symName: __ZNSt3__113__unwrap_iterB7v160006IPPN7testing17TestEventListenerENS_18__unwrap_iter_implIS4_Lb1EEELi0EEEDTclsrT0_8__unwrapclsr3stdE7declvalIT_EEEES8_, symObjAddr: 0x4A144, symBinAddr: 0x100051684, symSize: 0x24 }
  - { offsetInCU: 0x3F0DB, offset: 0x53A68, size: 0x8, addend: 0x0, symName: __ZNSt3__19make_pairB7v160006IPPN7testing17TestEventListenerES4_EENS_4pairINS_18__unwrap_ref_decayIT_E4typeENS6_IT0_E4typeEEEOS7_OSA_, symObjAddr: 0x4A168, symBinAddr: 0x1000516A8, symSize: 0x38 }
  - { offsetInCU: 0x3F12A, offset: 0x53AB7, size: 0x8, addend: 0x0, symName: __ZNSt3__114__rewrap_rangeB7v160006IPPN7testing17TestEventListenerES4_EET_S5_T0_, symObjAddr: 0x4A1A0, symBinAddr: 0x1000516E0, symSize: 0x2C }
  - { offsetInCU: 0x3F176, offset: 0x53B03, size: 0x8, addend: 0x0, symName: __ZNSt3__113__rewrap_iterB7v160006IPPN7testing17TestEventListenerES4_NS_18__unwrap_iter_implIS4_Lb1EEEEET_S7_T0_, symObjAddr: 0x4A1CC, symBinAddr: 0x10005170C, symSize: 0x3C }
  - { offsetInCU: 0x3F1CB, offset: 0x53B58, size: 0x8, addend: 0x0, symName: __ZNSt3__119__copy_trivial_implB7v160006IPN7testing17TestEventListenerES3_EENS_4pairIPT_PT0_EES6_S6_S8_, symObjAddr: 0x4A208, symBinAddr: 0x100051748, symSize: 0x84 }
  - { offsetInCU: 0x3F234, offset: 0x53BC1, size: 0x8, addend: 0x0, symName: __ZNSt3__19make_pairB7v160006IRPPN7testing17TestEventListenerES4_EENS_4pairINS_18__unwrap_ref_decayIT_E4typeENS7_IT0_E4typeEEEOS8_OSB_, symObjAddr: 0x4A28C, symBinAddr: 0x1000517CC, symSize: 0x38 }
  - { offsetInCU: 0x3F2D6, offset: 0x53C63, size: 0x8, addend: 0x0, symName: __ZNSt3__112__to_addressB7v160006IPN7testing11EnvironmentEEEPT_S5_, symObjAddr: 0x4A81C, symBinAddr: 0x100051CA4, symSize: 0x14 }
  - { offsetInCU: 0x3F30B, offset: 0x53C98, size: 0x8, addend: 0x0, symName: __ZNSt3__119__allocate_at_leastB7v160006INS_9allocatorIPN7testing11EnvironmentEEEEENS_19__allocation_resultINS_16allocator_traitsIT_E7pointerEEERS8_m, symObjAddr: 0x4AE48, symBinAddr: 0x1000522D0, symSize: 0x40 }
  - { offsetInCU: 0x3F34E, offset: 0x53CDB, size: 0x8, addend: 0x0, symName: __ZNSt3__142__uninitialized_allocator_move_if_noexceptB7v160006INS_9allocatorIPN7testing11EnvironmentEEENS_16reverse_iteratorIPS4_EES8_S4_vEET1_RT_T0_SC_S9_, symObjAddr: 0x4B0D0, symBinAddr: 0x100052558, symSize: 0x78 }
  - { offsetInCU: 0x3F3CC, offset: 0x53D59, size: 0x8, addend: 0x0, symName: __ZNSt3__14swapB7v160006IPPN7testing11EnvironmentEEENS_9enable_ifIXaasr21is_move_constructibleIT_EE5valuesr18is_move_assignableIS6_EE5valueEvE4typeERS6_S9_, symObjAddr: 0x4B194, symBinAddr: 0x10005261C, symSize: 0x3C }
  - { offsetInCU: 0x3F41F, offset: 0x53DAC, size: 0x8, addend: 0x0, symName: __ZNSt3__125__debug_db_invalidate_allB7v160006INS_6vectorIPN7testing11EnvironmentENS_9allocatorIS4_EEEEEEvPT_, symObjAddr: 0x4B27C, symBinAddr: 0x100052704, symSize: 0x10 }
  - { offsetInCU: 0x3F44F, offset: 0x53DDC, size: 0x8, addend: 0x0, symName: __ZNSt3__14moveB7v160006INS_16reverse_iteratorIPPN7testing11EnvironmentEEES6_EET0_T_S8_S7_, symObjAddr: 0x4B2D4, symBinAddr: 0x10005275C, symSize: 0x78 }
  - { offsetInCU: 0x3F4A9, offset: 0x53E36, size: 0x8, addend: 0x0, symName: __ZNSt3__16__moveB7v160006INS_17_ClassicAlgPolicyENS_16reverse_iteratorIPPN7testing11EnvironmentEEES7_S7_EENS_4pairIT0_T2_EES9_T1_SA_, symObjAddr: 0x4B34C, symBinAddr: 0x1000527D4, symSize: 0x64 }
  - { offsetInCU: 0x3F515, offset: 0x53EA2, size: 0x8, addend: 0x0, symName: __ZNSt3__123__dispatch_copy_or_moveB7v160006INS_17_ClassicAlgPolicyENS_11__move_loopIS1_EENS_14__move_trivialENS_16reverse_iteratorIPPN7testing11EnvironmentEEESA_SA_EENS_4pairIT2_T4_EESC_T3_SD_, symObjAddr: 0x4B3B0, symBinAddr: 0x100052838, symSize: 0x64 }
  - { offsetInCU: 0x3F593, offset: 0x53F20, size: 0x8, addend: 0x0, symName: __ZNSt3__121__unwrap_and_dispatchB7v160006INS_10__overloadINS_11__move_loopINS_17_ClassicAlgPolicyEEENS_14__move_trivialEEENS_16reverse_iteratorIPPN7testing11EnvironmentEEESC_SC_Li0EEENS_4pairIT0_T2_EESE_T1_SF_, symObjAddr: 0x4B414, symBinAddr: 0x10005289C, symSize: 0x12C }
  - { offsetInCU: 0x3F626, offset: 0x53FB3, size: 0x8, addend: 0x0, symName: __ZNSt3__114__unwrap_rangeB7v160006INS_16reverse_iteratorIPPN7testing11EnvironmentEEES6_EENS_4pairIT0_S8_EET_SA_, symObjAddr: 0x4B540, symBinAddr: 0x1000529C8, symSize: 0x84 }
  - { offsetInCU: 0x3F746, offset: 0x540D3, size: 0x8, addend: 0x0, symName: __ZNSt3__113__unwrap_iterB7v160006INS_16reverse_iteratorIPPN7testing11EnvironmentEEENS_18__unwrap_iter_implIS6_Lb0EEELi0EEEDTclsrT0_8__unwrapclsr3stdE7declvalIT_EEEESA_, symObjAddr: 0x4B664, symBinAddr: 0x100052AEC, symSize: 0x44 }
  - { offsetInCU: 0x3F78B, offset: 0x54118, size: 0x8, addend: 0x0, symName: __ZNSt3__19make_pairB7v160006INS_16reverse_iteratorIPPN7testing11EnvironmentEEES6_EENS_4pairINS_18__unwrap_ref_decayIT_E4typeENS8_IT0_E4typeEEEOS9_OSC_, symObjAddr: 0x4B6A8, symBinAddr: 0x100052B30, symSize: 0x38 }
  - { offsetInCU: 0x3F7DA, offset: 0x54167, size: 0x8, addend: 0x0, symName: __ZNSt3__114__rewrap_rangeB7v160006INS_16reverse_iteratorIPPN7testing11EnvironmentEEES6_EET_S7_T0_, symObjAddr: 0x4B6E0, symBinAddr: 0x100052B68, symSize: 0x5C }
  - { offsetInCU: 0x3F826, offset: 0x541B3, size: 0x8, addend: 0x0, symName: __ZNSt3__113__rewrap_iterB7v160006INS_16reverse_iteratorIPPN7testing11EnvironmentEEES6_NS_18__unwrap_iter_implIS6_Lb0EEEEET_S9_T0_, symObjAddr: 0x4B73C, symBinAddr: 0x100052BC4, symSize: 0x74 }
  - { offsetInCU: 0x3F87B, offset: 0x54208, size: 0x8, addend: 0x0, symName: __ZNSt3__1neB7v160006IPPN7testing11EnvironmentES4_EEbRKNS_16reverse_iteratorIT_EERKNS5_IT0_EE, symObjAddr: 0x4B7B0, symBinAddr: 0x100052C38, symSize: 0x48 }
  - { offsetInCU: 0x3F933, offset: 0x542C0, size: 0x8, addend: 0x0, symName: __ZNSt3__112__to_addressB7v160006IN7testing8internal9TraceInfoEEEPT_S5_, symObjAddr: 0x4BEE8, symBinAddr: 0x100053370, symSize: 0x14 }
  - { offsetInCU: 0x3F968, offset: 0x542F5, size: 0x8, addend: 0x0, symName: __ZNSt3__119__allocate_at_leastB7v160006INS_9allocatorIN7testing8internal9TraceInfoEEEEENS_19__allocation_resultINS_16allocator_traitsIT_E7pointerEEERS8_m, symObjAddr: 0x4C590, symBinAddr: 0x100053A18, symSize: 0x40 }
  - { offsetInCU: 0x3F9AB, offset: 0x54338, size: 0x8, addend: 0x0, symName: __ZNSt3__142__uninitialized_allocator_move_if_noexceptB7v160006INS_9allocatorIN7testing8internal9TraceInfoEEENS_16reverse_iteratorIPS4_EES8_S8_EET2_RT_T0_T1_S9_, symObjAddr: 0x4C838, symBinAddr: 0x100053CC0, symSize: 0x12C }
  - { offsetInCU: 0x3FA4B, offset: 0x543D8, size: 0x8, addend: 0x0, symName: __ZNSt3__14swapB7v160006IPN7testing8internal9TraceInfoEEENS_9enable_ifIXaasr21is_move_constructibleIT_EE5valuesr18is_move_assignableIS6_EE5valueEvE4typeERS6_S9_, symObjAddr: 0x4C9B0, symBinAddr: 0x100053E38, symSize: 0x3C }
  - { offsetInCU: 0x3FA9E, offset: 0x5442B, size: 0x8, addend: 0x0, symName: __ZNSt3__125__debug_db_invalidate_allB7v160006INS_6vectorIN7testing8internal9TraceInfoENS_9allocatorIS4_EEEEEEvPT_, symObjAddr: 0x4CAB4, symBinAddr: 0x100053F3C, symSize: 0x10 }
  - { offsetInCU: 0x3FACE, offset: 0x5445B, size: 0x8, addend: 0x0, symName: __ZNSt3__122__make_exception_guardB7v160006INS_29_AllocatorDestroyRangeReverseINS_9allocatorIN7testing8internal9TraceInfoEEENS_16reverse_iteratorIPS5_EEEEEENS_28__exception_guard_exceptionsIT_EESC_, symObjAddr: 0x4CB0C, symBinAddr: 0x100053F94, symSize: 0x4C }
  - { offsetInCU: 0x3FB04, offset: 0x54491, size: 0x8, addend: 0x0, symName: __ZNSt3__1neB7v160006IPN7testing8internal9TraceInfoES4_EEbRKNS_16reverse_iteratorIT_EERKNS5_IT0_EE, symObjAddr: 0x4CB9C, symBinAddr: 0x100054024, symSize: 0x48 }
  - { offsetInCU: 0x3FB50, offset: 0x544DD, size: 0x8, addend: 0x0, symName: __ZNSt3__112__to_addressB7v160006INS_16reverse_iteratorIPN7testing8internal9TraceInfoEEEvEENS_5decayIDTclsr19__to_address_helperIT_EE6__callclsr3stdE7declvalIRKS8_EEEEE4typeESA_, symObjAddr: 0x4CC18, symBinAddr: 0x1000540A0, symSize: 0x24 }
  - { offsetInCU: 0x3FBB0, offset: 0x5453D, size: 0x8, addend: 0x0, symName: __ZNSt3__119__allocator_destroyB7v160006INS_9allocatorIN7testing8internal9TraceInfoEEENS_16reverse_iteratorINS6_IPS4_EEEES9_EEvRT_T0_T1_, symObjAddr: 0x4CF7C, symBinAddr: 0x100054404, symSize: 0x70 }
  - { offsetInCU: 0x3FC15, offset: 0x545A2, size: 0x8, addend: 0x0, symName: __ZNSt3__1neB7v160006INS_16reverse_iteratorIPN7testing8internal9TraceInfoEEES6_EEbRKNS1_IT_EERKNS1_IT0_EE, symObjAddr: 0x4D028, symBinAddr: 0x1000544B0, symSize: 0x60 }
  - { offsetInCU: 0x3FC61, offset: 0x545EE, size: 0x8, addend: 0x0, symName: __ZNSt3__112__to_addressB7v160006INS_16reverse_iteratorINS1_IPN7testing8internal9TraceInfoEEEEEvEENS_5decayIDTclsr19__to_address_helperIT_EE6__callclsr3stdE7declvalIRKS9_EEEEE4typeESB_, symObjAddr: 0x4D0B4, symBinAddr: 0x10005453C, symSize: 0x24 }
  - { offsetInCU: 0x3FCC2, offset: 0x5464F, size: 0x8, addend: 0x0, symName: __ZNSt3__119__debug_db_insert_cB7v160006INS_6vectorIPN7testing11EnvironmentENS_9allocatorIS4_EEEEEEvPT_, symObjAddr: 0x4DE54, symBinAddr: 0x1000552DC, symSize: 0x10 }
  - { offsetInCU: 0x3FCF3, offset: 0x54680, size: 0x8, addend: 0x0, symName: __ZNSt3__119__debug_db_insert_cB7v160006INS_6vectorIPN7testing8TestCaseENS_9allocatorIS4_EEEEEEvPT_, symObjAddr: 0x4DFA4, symBinAddr: 0x10005542C, symSize: 0x10 }
  - { offsetInCU: 0x3FD24, offset: 0x546B1, size: 0x8, addend: 0x0, symName: __ZNSt3__119__debug_db_insert_cB7v160006INS_6vectorIN7testing8internal9TraceInfoENS_9allocatorIS4_EEEEEEvPT_, symObjAddr: 0x4E53C, symBinAddr: 0x1000559C4, symSize: 0x10 }
  - { offsetInCU: 0x3FD55, offset: 0x546E2, size: 0x8, addend: 0x0, symName: __ZNSt3__118__debug_db_erase_cB7v160006INS_6vectorIN7testing8internal9TraceInfoENS_9allocatorIS4_EEEEEEvPT_, symObjAddr: 0x4E7A0, symBinAddr: 0x100055C28, symSize: 0x10 }
  - { offsetInCU: 0x3FD86, offset: 0x54713, size: 0x8, addend: 0x0, symName: __ZNSt3__118__debug_db_erase_cB7v160006INS_6vectorIPN7testing11EnvironmentENS_9allocatorIS4_EEEEEEvPT_, symObjAddr: 0x4EC88, symBinAddr: 0x100056110, symSize: 0x10 }
  - { offsetInCU: 0x3FDB7, offset: 0x54744, size: 0x8, addend: 0x0, symName: __ZNSt3__118__debug_db_erase_cB7v160006INS_6vectorIPN7testing8TestCaseENS_9allocatorIS4_EEEEEEvPT_, symObjAddr: 0x4EF38, symBinAddr: 0x1000563C0, symSize: 0x10 }
  - { offsetInCU: 0x3FDE7, offset: 0x54774, size: 0x8, addend: 0x0, symName: __ZNSt3__112__to_addressB7v160006IPN7testing8TestCaseEEEPT_S5_, symObjAddr: 0x4F054, symBinAddr: 0x1000564DC, symSize: 0x14 }
  - { offsetInCU: 0x3FE1C, offset: 0x547A9, size: 0x8, addend: 0x0, symName: __ZNSt3__18for_eachB7v160006INS_11__wrap_iterIPKPN7testing11EnvironmentEEEPFvS4_EEET0_T_SB_SA_, symObjAddr: 0x4F624, symBinAddr: 0x100056AAC, symSize: 0x6C }
  - { offsetInCU: 0x3FE76, offset: 0x54803, size: 0x8, addend: 0x0, symName: __ZNSt3__1neB7v160006IPKPN7testing11EnvironmentEEEbRKNS_11__wrap_iterIT_EESA_, symObjAddr: 0x4F6F0, symBinAddr: 0x100056B78, symSize: 0x34 }
  - { offsetInCU: 0x3FEB9, offset: 0x54846, size: 0x8, addend: 0x0, symName: __ZNSt3__1eqB7v160006IPKPN7testing11EnvironmentEEEbRKNS_11__wrap_iterIT_EESA_, symObjAddr: 0x4F75C, symBinAddr: 0x100056BE4, symSize: 0x48 }
  - { offsetInCU: 0x3FEFC, offset: 0x54889, size: 0x8, addend: 0x0, symName: __ZNSt3__1neB7v160006INS_11__wrap_iterIPPN7testing8TestCaseEEES6_EEbRKNS_16reverse_iteratorIT_EERKNS7_IT0_EE, symObjAddr: 0x4F970, symBinAddr: 0x100056DF8, symSize: 0x54 }
  - { offsetInCU: 0x3FF48, offset: 0x548D5, size: 0x8, addend: 0x0, symName: __ZNSt3__1neB7v160006IPPN7testing8TestCaseEEEbRKNS_11__wrap_iterIT_EES9_, symObjAddr: 0x4FAA8, symBinAddr: 0x100056F30, symSize: 0x34 }
  - { offsetInCU: 0x3FF8B, offset: 0x54918, size: 0x8, addend: 0x0, symName: __ZNSt3__1eqB7v160006IPPN7testing8TestCaseEEEbRKNS_11__wrap_iterIT_EES9_, symObjAddr: 0x4FAFC, symBinAddr: 0x100056F84, symSize: 0x48 }
  - { offsetInCU: 0x3FFCE, offset: 0x5495B, size: 0x8, addend: 0x0, symName: __ZNSt3__1neB7v160006IPKPN7testing8TestCaseEPS3_EEbRKNS_11__wrap_iterIT_EERKNS7_IT0_EE, symObjAddr: 0x4FC04, symBinAddr: 0x10005708C, symSize: 0x34 }
  - { offsetInCU: 0x4001A, offset: 0x549A7, size: 0x8, addend: 0x0, symName: __ZNSt3__1eqB7v160006IPKPN7testing8TestCaseEPS3_EEbRKNS_11__wrap_iterIT_EERKNS7_IT0_EE, symObjAddr: 0x4FC58, symBinAddr: 0x1000570E0, symSize: 0x48 }
  - { offsetInCU: 0x40066, offset: 0x549F3, size: 0x8, addend: 0x0, symName: __ZNSt3__1miB7v160006IPKPN7testing8TestCaseEPS3_EEDTmicldtfp_4baseEcldtfp0_4baseEERKNS_11__wrap_iterIT_EERKNS8_IT0_EE, symObjAddr: 0x4FCE8, symBinAddr: 0x100057170, symSize: 0x48 }
  - { offsetInCU: 0x400E5, offset: 0x54A72, size: 0x8, addend: 0x0, symName: __ZNSt3__113move_backwardB7v160006IPPN7testing8TestCaseES4_EET0_T_S6_S5_, symObjAddr: 0x50594, symBinAddr: 0x100057A1C, symSize: 0x40 }
  - { offsetInCU: 0x4013F, offset: 0x54ACC, size: 0x8, addend: 0x0, symName: __ZNSt3__115__move_backwardB7v160006INS_17_ClassicAlgPolicyEPPN7testing8TestCaseES5_S5_EENS_4pairIT0_T2_EES7_T1_S8_, symObjAddr: 0x505FC, symBinAddr: 0x100057A84, symSize: 0x44 }
  - { offsetInCU: 0x401AB, offset: 0x54B38, size: 0x8, addend: 0x0, symName: __ZNSt3__123__dispatch_copy_or_moveB7v160006INS_17_ClassicAlgPolicyENS_20__move_backward_loopIS1_EENS_23__move_backward_trivialEPPN7testing8TestCaseES8_S8_EENS_4pairIT2_T4_EESA_T3_SB_, symObjAddr: 0x50640, symBinAddr: 0x100057AC8, symSize: 0x44 }
  - { offsetInCU: 0x40229, offset: 0x54BB6, size: 0x8, addend: 0x0, symName: __ZNSt3__121__unwrap_and_dispatchB7v160006INS_10__overloadINS_20__move_backward_loopINS_17_ClassicAlgPolicyEEENS_23__move_backward_trivialEEEPPN7testing8TestCaseESA_SA_Li0EEENS_4pairIT0_T2_EESC_T1_SD_, symObjAddr: 0x50684, symBinAddr: 0x100057B0C, symSize: 0xB4 }
  - { offsetInCU: 0x402BA, offset: 0x54C47, size: 0x8, addend: 0x0, symName: __ZNSt3__114__unwrap_rangeB7v160006IPPN7testing8TestCaseES4_EENS_4pairIT0_S6_EET_S8_, symObjAddr: 0x50738, symBinAddr: 0x100057BC0, symSize: 0x60 }
  - { offsetInCU: 0x40438, offset: 0x54DC5, size: 0x8, addend: 0x0, symName: __ZNSt3__113__unwrap_iterB7v160006IPPN7testing8TestCaseENS_18__unwrap_iter_implIS4_Lb1EEELi0EEEDTclsrT0_8__unwrapclsr3stdE7declvalIT_EEEES8_, symObjAddr: 0x507E0, symBinAddr: 0x100057C68, symSize: 0x24 }
  - { offsetInCU: 0x4047D, offset: 0x54E0A, size: 0x8, addend: 0x0, symName: __ZNSt3__19make_pairB7v160006IPPN7testing8TestCaseES4_EENS_4pairINS_18__unwrap_ref_decayIT_E4typeENS6_IT0_E4typeEEEOS7_OSA_, symObjAddr: 0x50804, symBinAddr: 0x100057C8C, symSize: 0x38 }
  - { offsetInCU: 0x404CC, offset: 0x54E59, size: 0x8, addend: 0x0, symName: __ZNSt3__114__rewrap_rangeB7v160006IPPN7testing8TestCaseES4_EET_S5_T0_, symObjAddr: 0x5083C, symBinAddr: 0x100057CC4, symSize: 0x2C }
  - { offsetInCU: 0x40518, offset: 0x54EA5, size: 0x8, addend: 0x0, symName: __ZNSt3__113__rewrap_iterB7v160006IPPN7testing8TestCaseES4_NS_18__unwrap_iter_implIS4_Lb1EEEEET_S7_T0_, symObjAddr: 0x50868, symBinAddr: 0x100057CF0, symSize: 0x3C }
  - { offsetInCU: 0x4056D, offset: 0x54EFA, size: 0x8, addend: 0x0, symName: __ZNSt3__128__copy_backward_trivial_implB7v160006IPN7testing8TestCaseES3_EENS_4pairIPT_PT0_EES6_S6_S8_, symObjAddr: 0x508A4, symBinAddr: 0x100057D2C, symSize: 0x94 }
  - { offsetInCU: 0x405D6, offset: 0x54F63, size: 0x8, addend: 0x0, symName: __ZNSt3__19make_pairB7v160006IRPPN7testing8TestCaseES5_EENS_4pairINS_18__unwrap_ref_decayIT_E4typeENS7_IT0_E4typeEEEOS8_OSB_, symObjAddr: 0x50938, symBinAddr: 0x100057DC0, symSize: 0x38 }
  - { offsetInCU: 0x40678, offset: 0x55005, size: 0x8, addend: 0x0, symName: __ZNSt3__119__allocate_at_leastB7v160006INS_9allocatorIPN7testing8TestCaseEEEEENS_19__allocation_resultINS_16allocator_traitsIT_E7pointerEEERS8_m, symObjAddr: 0x50CE8, symBinAddr: 0x100058170, symSize: 0x40 }
  - { offsetInCU: 0x406BB, offset: 0x55048, size: 0x8, addend: 0x0, symName: __ZNSt3__14moveB7v160006IPPN7testing8TestCaseES4_EET0_T_S6_S5_, symObjAddr: 0x50E9C, symBinAddr: 0x100058324, symSize: 0x40 }
  - { offsetInCU: 0x40715, offset: 0x550A2, size: 0x8, addend: 0x0, symName: __ZNSt3__14swapB7v160006IPPN7testing8TestCaseEEENS_9enable_ifIXaasr21is_move_constructibleIT_EE5valuesr18is_move_assignableIS6_EE5valueEvE4typeERS6_S9_, symObjAddr: 0x5100C, symBinAddr: 0x100058494, symSize: 0x3C }
  - { offsetInCU: 0x40767, offset: 0x550F4, size: 0x8, addend: 0x0, symName: __ZNSt3__16__moveB7v160006INS_17_ClassicAlgPolicyEPPN7testing8TestCaseES5_S5_EENS_4pairIT0_T2_EES7_T1_S8_, symObjAddr: 0x51048, symBinAddr: 0x1000584D0, symSize: 0x44 }
  - { offsetInCU: 0x407D3, offset: 0x55160, size: 0x8, addend: 0x0, symName: __ZNSt3__123__dispatch_copy_or_moveB7v160006INS_17_ClassicAlgPolicyENS_11__move_loopIS1_EENS_14__move_trivialEPPN7testing8TestCaseES8_S8_EENS_4pairIT2_T4_EESA_T3_SB_, symObjAddr: 0x5108C, symBinAddr: 0x100058514, symSize: 0x44 }
  - { offsetInCU: 0x40851, offset: 0x551DE, size: 0x8, addend: 0x0, symName: __ZNSt3__121__unwrap_and_dispatchB7v160006INS_10__overloadINS_11__move_loopINS_17_ClassicAlgPolicyEEENS_14__move_trivialEEEPPN7testing8TestCaseESA_SA_Li0EEENS_4pairIT0_T2_EESC_T1_SD_, symObjAddr: 0x510D0, symBinAddr: 0x100058558, symSize: 0xB4 }
  - { offsetInCU: 0x408E2, offset: 0x5526F, size: 0x8, addend: 0x0, symName: __ZNSt3__119__copy_trivial_implB7v160006IPN7testing8TestCaseES3_EENS_4pairIPT_PT0_EES6_S6_S8_, symObjAddr: 0x511CC, symBinAddr: 0x100058654, symSize: 0x84 }
  - { offsetInCU: 0x4094B, offset: 0x552D8, size: 0x8, addend: 0x0, symName: __ZNSt3__19make_pairB7v160006IRPPN7testing8TestCaseES4_EENS_4pairINS_18__unwrap_ref_decayIT_E4typeENS7_IT0_E4typeEEEOS8_OSB_, symObjAddr: 0x51250, symBinAddr: 0x1000586D8, symSize: 0x38 }
  - { offsetInCU: 0x4099A, offset: 0x55327, size: 0x8, addend: 0x0, symName: __ZNSt3__18distanceB7v160006INS_13move_iteratorIPPN7testing8TestCaseEEEEENS_15iterator_traitsIT_E15difference_typeES8_S8_, symObjAddr: 0x512F8, symBinAddr: 0x100058780, symSize: 0x3C }
  - { offsetInCU: 0x409DD, offset: 0x5536A, size: 0x8, addend: 0x0, symName: __ZNSt3__110__distanceB7v160006INS_13move_iteratorIPPN7testing8TestCaseEEEEENS_15iterator_traitsIT_E15difference_typeES8_S8_NS_26random_access_iterator_tagE, symObjAddr: 0x513D4, symBinAddr: 0x10005885C, symSize: 0x30 }
  - { offsetInCU: 0x40A2B, offset: 0x553B8, size: 0x8, addend: 0x0, symName: __ZNSt3__1miB7v160006IPPN7testing8TestCaseES4_EEDTmicldtfp_4baseEcldtfp0_4baseEERKNS_13move_iteratorIT_EERKNS6_IT0_EE, symObjAddr: 0x51404, symBinAddr: 0x10005888C, symSize: 0x48 }
  - { offsetInCU: 0x40A7A, offset: 0x55407, size: 0x8, addend: 0x0, symName: __ZNSt3__142__uninitialized_allocator_move_if_noexceptB7v160006INS_9allocatorIPN7testing8TestCaseEEENS_16reverse_iteratorIPS4_EES8_S4_vEET1_RT_T0_SC_S9_, symObjAddr: 0x514E8, symBinAddr: 0x100058970, symSize: 0x78 }
  - { offsetInCU: 0x40AF8, offset: 0x55485, size: 0x8, addend: 0x0, symName: __ZNSt3__142__uninitialized_allocator_move_if_noexceptB7v160006INS_9allocatorIPN7testing8TestCaseEEEPS4_S6_S4_vEET1_RT_T0_SA_S7_, symObjAddr: 0x515AC, symBinAddr: 0x100058A34, symSize: 0x38 }
  - { offsetInCU: 0x40B76, offset: 0x55503, size: 0x8, addend: 0x0, symName: __ZNSt3__125__debug_db_invalidate_allB7v160006INS_6vectorIPN7testing8TestCaseENS_9allocatorIS4_EEEEEEvPT_, symObjAddr: 0x51690, symBinAddr: 0x100058B18, symSize: 0x10 }
  - { offsetInCU: 0x40BA6, offset: 0x55533, size: 0x8, addend: 0x0, symName: __ZNSt3__14moveB7v160006INS_16reverse_iteratorIPPN7testing8TestCaseEEES6_EET0_T_S8_S7_, symObjAddr: 0x516A0, symBinAddr: 0x100058B28, symSize: 0x78 }
  - { offsetInCU: 0x40C00, offset: 0x5558D, size: 0x8, addend: 0x0, symName: __ZNSt3__16__moveB7v160006INS_17_ClassicAlgPolicyENS_16reverse_iteratorIPPN7testing8TestCaseEEES7_S7_EENS_4pairIT0_T2_EES9_T1_SA_, symObjAddr: 0x51718, symBinAddr: 0x100058BA0, symSize: 0x64 }
  - { offsetInCU: 0x40C6C, offset: 0x555F9, size: 0x8, addend: 0x0, symName: __ZNSt3__123__dispatch_copy_or_moveB7v160006INS_17_ClassicAlgPolicyENS_11__move_loopIS1_EENS_14__move_trivialENS_16reverse_iteratorIPPN7testing8TestCaseEEESA_SA_EENS_4pairIT2_T4_EESC_T3_SD_, symObjAddr: 0x5177C, symBinAddr: 0x100058C04, symSize: 0x64 }
  - { offsetInCU: 0x40CEA, offset: 0x55677, size: 0x8, addend: 0x0, symName: __ZNSt3__121__unwrap_and_dispatchB7v160006INS_10__overloadINS_11__move_loopINS_17_ClassicAlgPolicyEEENS_14__move_trivialEEENS_16reverse_iteratorIPPN7testing8TestCaseEEESC_SC_Li0EEENS_4pairIT0_T2_EESE_T1_SF_, symObjAddr: 0x517E0, symBinAddr: 0x100058C68, symSize: 0x12C }
  - { offsetInCU: 0x40D7D, offset: 0x5570A, size: 0x8, addend: 0x0, symName: __ZNSt3__114__unwrap_rangeB7v160006INS_16reverse_iteratorIPPN7testing8TestCaseEEES6_EENS_4pairIT0_S8_EET_SA_, symObjAddr: 0x5190C, symBinAddr: 0x100058D94, symSize: 0x84 }
  - { offsetInCU: 0x40E9D, offset: 0x5582A, size: 0x8, addend: 0x0, symName: __ZNSt3__113__unwrap_iterB7v160006INS_16reverse_iteratorIPPN7testing8TestCaseEEENS_18__unwrap_iter_implIS6_Lb0EEELi0EEEDTclsrT0_8__unwrapclsr3stdE7declvalIT_EEEESA_, symObjAddr: 0x51A30, symBinAddr: 0x100058EB8, symSize: 0x44 }
  - { offsetInCU: 0x40EE2, offset: 0x5586F, size: 0x8, addend: 0x0, symName: __ZNSt3__19make_pairB7v160006INS_16reverse_iteratorIPPN7testing8TestCaseEEES6_EENS_4pairINS_18__unwrap_ref_decayIT_E4typeENS8_IT0_E4typeEEEOS9_OSC_, symObjAddr: 0x51A74, symBinAddr: 0x100058EFC, symSize: 0x38 }
  - { offsetInCU: 0x40F31, offset: 0x558BE, size: 0x8, addend: 0x0, symName: __ZNSt3__114__rewrap_rangeB7v160006INS_16reverse_iteratorIPPN7testing8TestCaseEEES6_EET_S7_T0_, symObjAddr: 0x51AAC, symBinAddr: 0x100058F34, symSize: 0x5C }
  - { offsetInCU: 0x40F7D, offset: 0x5590A, size: 0x8, addend: 0x0, symName: __ZNSt3__113__rewrap_iterB7v160006INS_16reverse_iteratorIPPN7testing8TestCaseEEES6_NS_18__unwrap_iter_implIS6_Lb0EEEEET_S9_T0_, symObjAddr: 0x51B08, symBinAddr: 0x100058F90, symSize: 0x74 }
  - { offsetInCU: 0x40FD2, offset: 0x5595F, size: 0x8, addend: 0x0, symName: __ZNSt3__1neB7v160006IPPN7testing8TestCaseES4_EEbRKNS_16reverse_iteratorIT_EERKNS5_IT0_EE, symObjAddr: 0x51B7C, symBinAddr: 0x100059004, symSize: 0x48 }
  - { offsetInCU: 0x4108A, offset: 0x55A17, size: 0x8, addend: 0x0, symName: __ZNSt3__1neB7v160006INS_11__wrap_iterIPPN7testing11EnvironmentEEES6_EEbRKNS_16reverse_iteratorIT_EERKNS7_IT0_EE, symObjAddr: 0x5228C, symBinAddr: 0x100059714, symSize: 0x54 }
  - { offsetInCU: 0x410D6, offset: 0x55A63, size: 0x8, addend: 0x0, symName: __ZNSt3__1neB7v160006IPPN7testing11EnvironmentEEEbRKNS_11__wrap_iterIT_EES9_, symObjAddr: 0x52344, symBinAddr: 0x1000597CC, symSize: 0x34 }
  - { offsetInCU: 0x41119, offset: 0x55AA6, size: 0x8, addend: 0x0, symName: __ZNSt3__1eqB7v160006IPPN7testing11EnvironmentEEEbRKNS_11__wrap_iterIT_EES9_, symObjAddr: 0x52398, symBinAddr: 0x100059820, symSize: 0x48 }
  - { offsetInCU: 0x4115C, offset: 0x55AE9, size: 0x8, addend: 0x0, symName: __ZNSt3__14swapB7v160006IiEENS_9enable_ifIXaasr21is_move_constructibleIT_EE5valuesr18is_move_assignableIS2_EE5valueEvE4typeERS2_S5_, symObjAddr: 0x52430, symBinAddr: 0x1000598B8, symSize: 0x3C }
  - { offsetInCU: 0x411AE, offset: 0x55B3B, size: 0x8, addend: 0x0, symName: __ZNSt3__14swapB7v160006INS_12basic_stringIcNS_11char_traitsIcEENS_9allocatorIcEEE5__repEEENS_9enable_ifIXaasr21is_move_constructibleIT_EE5valuesr18is_move_assignableIS9_EE5valueEvE4typeERS9_SC_, symObjAddr: 0x52FE4, symBinAddr: 0x10005A45C, symSize: 0x54 }
  - { offsetInCU: 0x41200, offset: 0x55B8D, size: 0x8, addend: 0x0, symName: __ZNSt3__116__swap_allocatorB7v160006INS_9allocatorIcEEEEvRT_S4_, symObjAddr: 0x53038, symBinAddr: 0x10005A4B0, symSize: 0x2C }
  - { offsetInCU: 0x41241, offset: 0x55BCE, size: 0x8, addend: 0x0, symName: __ZNSt3__116__swap_allocatorB7v160006INS_9allocatorIcEEEEvRT_S4_NS_17integral_constantIbLb0EEE, symObjAddr: 0x53064, symBinAddr: 0x10005A4DC, symSize: 0x14 }
  - { offsetInCU: 0x41284, offset: 0x55C11, size: 0x8, addend: 0x0, symName: __ZNSt3__112__to_addressB7v160006IKNS_12basic_stringIcNS_11char_traitsIcEENS_9allocatorIcEEEEEEPT_S9_, symObjAddr: 0x530A0, symBinAddr: 0x10005A518, symSize: 0x14 }
  - { offsetInCU: 0x429E1, offset: 0x5736E, size: 0x8, addend: 0x0, symName: __ZNSt3__18distanceB7v160006INS_11__wrap_iterIPKNS_12basic_stringIcNS_11char_traitsIcEENS_9allocatorIcEEEEEEEENS_15iterator_traitsIT_E15difference_typeESC_SC_, symObjAddr: 0x55428, symBinAddr: 0x10005C8A0, symSize: 0x3C }
  - { offsetInCU: 0x42A24, offset: 0x573B1, size: 0x8, addend: 0x0, symName: __ZNSt3__110__distanceB7v160006INS_11__wrap_iterIPKNS_12basic_stringIcNS_11char_traitsIcEENS_9allocatorIcEEEEEEEENS_15iterator_traitsIT_E15difference_typeESC_SC_NS_26random_access_iterator_tagE, symObjAddr: 0x55500, symBinAddr: 0x10005C978, symSize: 0x30 }
  - { offsetInCU: 0x42A72, offset: 0x573FF, size: 0x8, addend: 0x0, symName: __ZNSt3__1miB7v160006IPKNS_12basic_stringIcNS_11char_traitsIcEENS_9allocatorIcEEEES8_EEDTmicldtfp_4baseEcldtfp0_4baseEERKNS_11__wrap_iterIT_EERKNSA_IT0_EE, symObjAddr: 0x55530, symBinAddr: 0x10005C9A8, symSize: 0x48 }
  - { offsetInCU: 0x42ABE, offset: 0x5744B, size: 0x8, addend: 0x0, symName: __ZNSt3__130__uninitialized_allocator_copyB7v160006INS_9allocatorINS_12basic_stringIcNS_11char_traitsIcEENS1_IcEEEEEENS_11__wrap_iterIPKS6_EESB_PS6_EET2_RT_T0_T1_SD_, symObjAddr: 0x55578, symBinAddr: 0x10005C9F0, symSize: 0xF8 }
  - { offsetInCU: 0x42B5C, offset: 0x574E9, size: 0x8, addend: 0x0, symName: __ZNSt3__112__to_addressB7v160006IKwEEPT_S3_, symObjAddr: 0x562D8, symBinAddr: 0x10005D750, symSize: 0x14 }
  - { offsetInCU: 0x42BC4, offset: 0x57551, size: 0x8, addend: 0x0, symName: __ZNSt3__116__tree_next_iterB7v160006IPNS_15__tree_end_nodeIPNS_16__tree_node_baseIPvEEEES5_EET_T0_, symObjAddr: 0x56E18, symBinAddr: 0x10005E290, symSize: 0x80 }
  - { offsetInCU: 0x42C02, offset: 0x5758F, size: 0x8, addend: 0x0, symName: __ZNSt3__110__tree_minB7v160006IPNS_16__tree_node_baseIPvEEEET_S5_, symObjAddr: 0x56E98, symBinAddr: 0x10005E310, symSize: 0x40 }
  - { offsetInCU: 0x45264, offset: 0x59BF1, size: 0x8, addend: 0x0, symName: __ZN7testing8UnitTest11GetInstanceEv, symObjAddr: 0xB40, symBinAddr: 0x100009C18, symSize: 0xBC }
  - { offsetInCU: 0x45287, offset: 0x59C14, size: 0x8, addend: 0x0, symName: __ZZN7testing8UnitTest11GetInstanceEvE8instance, symObjAddr: 0x23E2E8, symBinAddr: 0x100070138, symSize: 0x0 }
  - { offsetInCU: 0x460FE, offset: 0x5AA8B, size: 0x8, addend: 0x0, symName: __ZNSt3__16vectorIPcNS_9allocatorIS1_EEE26__swap_out_circular_bufferERNS_14__split_bufferIS1_RS3_EE, symObjAddr: 0x2F994, symBinAddr: 0x100037858, symSize: 0x118 }
  - { offsetInCU: 0x46173, offset: 0x5AB00, size: 0x8, addend: 0x0, symName: __ZNSt3__16vectorIPcNS_9allocatorIS1_EEE26__swap_out_circular_bufferERNS_14__split_bufferIS1_RS3_EEPS1_, symObjAddr: 0x31430, symBinAddr: 0x1000392F4, symSize: 0x154 }
  - { offsetInCU: 0x4633C, offset: 0x5ACC9, size: 0x8, addend: 0x0, symName: __ZNSt3__16vectorINS_12basic_stringIcNS_11char_traitsIcEENS_9allocatorIcEEEENS4_IS6_EEE26__swap_out_circular_bufferERNS_14__split_bufferIS6_RS7_EE, symObjAddr: 0x37730, symBinAddr: 0x10003EE20, symSize: 0x118 }
  - { offsetInCU: 0x46802, offset: 0x5B18F, size: 0x8, addend: 0x0, symName: __ZNSt3__16vectorIN7testing8internal13edit_distance8EditTypeENS_9allocatorIS4_EEE26__swap_out_circular_bufferERNS_14__split_bufferIS4_RS6_EE, symObjAddr: 0x3CECC, symBinAddr: 0x100044468, symSize: 0x118 }
  - { offsetInCU: 0x4684A, offset: 0x5B1D7, size: 0x8, addend: 0x0, symName: __ZNSt3__16vectorImNS_9allocatorImEEE26__swap_out_circular_bufferERNS_14__split_bufferImRS2_EE, symObjAddr: 0x3E818, symBinAddr: 0x100045DB4, symSize: 0x118 }
  - { offsetInCU: 0x468BA, offset: 0x5B247, size: 0x8, addend: 0x0, symName: __ZNSt3__16vectorIN7testing14TestPartResultENS_9allocatorIS2_EEE26__swap_out_circular_bufferERNS_14__split_bufferIS2_RS4_EE, symObjAddr: 0x4190C, symBinAddr: 0x100048E4C, symSize: 0x118 }
  - { offsetInCU: 0x4694D, offset: 0x5B2DA, size: 0x8, addend: 0x0, symName: __ZNSt3__16vectorIN7testing12TestPropertyENS_9allocatorIS2_EEE26__swap_out_circular_bufferERNS_14__split_bufferIS2_RS4_EE, symObjAddr: 0x43054, symBinAddr: 0x10004A594, symSize: 0x118 }
  - { offsetInCU: 0x469EA, offset: 0x5B377, size: 0x8, addend: 0x0, symName: __ZNSt3__16vectorIPN7testing8TestInfoENS_9allocatorIS3_EEE26__swap_out_circular_bufferERNS_14__split_bufferIS3_RS5_EE, symObjAddr: 0x45F70, symBinAddr: 0x10004D4B0, symSize: 0x118 }
  - { offsetInCU: 0x46A41, offset: 0x5B3CE, size: 0x8, addend: 0x0, symName: __ZNSt3__16vectorIiNS_9allocatorIiEEE26__swap_out_circular_bufferERNS_14__split_bufferIiRS2_EE, symObjAddr: 0x4729C, symBinAddr: 0x10004E7DC, symSize: 0x118 }
  - { offsetInCU: 0x46A9D, offset: 0x5B42A, size: 0x8, addend: 0x0, symName: __ZNSt3__16vectorIPN7testing17TestEventListenerENS_9allocatorIS3_EEE26__swap_out_circular_bufferERNS_14__split_bufferIS3_RS5_EE, symObjAddr: 0x48D84, symBinAddr: 0x1000502C4, symSize: 0x118 }
  - { offsetInCU: 0x46AF4, offset: 0x5B481, size: 0x8, addend: 0x0, symName: __ZNSt3__16vectorIPN7testing11EnvironmentENS_9allocatorIS3_EEE26__swap_out_circular_bufferERNS_14__split_bufferIS3_RS5_EE, symObjAddr: 0x4AA40, symBinAddr: 0x100051EC8, symSize: 0x118 }
  - { offsetInCU: 0x46B4B, offset: 0x5B4D8, size: 0x8, addend: 0x0, symName: __ZNSt3__16vectorIN7testing8internal9TraceInfoENS_9allocatorIS3_EEE26__swap_out_circular_bufferERNS_14__split_bufferIS3_RS5_EE, symObjAddr: 0x4C178, symBinAddr: 0x100053600, symSize: 0x118 }
  - { offsetInCU: 0x46C06, offset: 0x5B593, size: 0x8, addend: 0x0, symName: __ZNSt3__16vectorIPN7testing8TestCaseENS_9allocatorIS3_EEE26__swap_out_circular_bufferERNS_14__split_bufferIS3_RS5_EEPS3_, symObjAddr: 0x50280, symBinAddr: 0x100057708, symSize: 0x154 }
  - { offsetInCU: 0x46C7B, offset: 0x5B608, size: 0x8, addend: 0x0, symName: __ZNSt3__16vectorIPN7testing8TestCaseENS_9allocatorIS3_EEE26__swap_out_circular_bufferERNS_14__split_bufferIS3_RS5_EE, symObjAddr: 0x52024, symBinAddr: 0x1000594AC, symSize: 0x118 }
  - { offsetInCU: 0x48753, offset: 0x5D0E0, size: 0x8, addend: 0x0, symName: __Z7iscntrli, symObjAddr: 0x337F8, symBinAddr: 0x10003B6BC, symSize: 0x28 }
  - { offsetInCU: 0x4877F, offset: 0x5D10C, size: 0x8, addend: 0x0, symName: __Z7isdigiti, symObjAddr: 0x530E4, symBinAddr: 0x10005A55C, symSize: 0x28 }
  - { offsetInCU: 0x48800, offset: 0x5D18D, size: 0x8, addend: 0x0, symName: __Z7isspacei, symObjAddr: 0x33B3C, symBinAddr: 0x10003BA00, symSize: 0x28 }
  - { offsetInCU: 0x48844, offset: 0x5D1D1, size: 0x8, addend: 0x0, symName: __Z8isxdigiti, symObjAddr: 0x561B4, symBinAddr: 0x10005D62C, symSize: 0x28 }
  - { offsetInCU: 0x48888, offset: 0x5D215, size: 0x8, addend: 0x0, symName: __Z7toupperi, symObjAddr: 0x332A8, symBinAddr: 0x10003B16C, symSize: 0x24 }
  - { offsetInCU: 0x489DE, offset: 0x5D36B, size: 0x8, addend: 0x0, symName: __Z8towloweri, symObjAddr: 0xA9F0, symBinAddr: 0x100013924, symSize: 0x24 }
  - { offsetInCU: 0x4904C, offset: 0x5D9D9, size: 0x8, addend: 0x0, symName: __ZN7testing8internal6Random8GenerateEj, symObjAddr: 0x554, symBinAddr: 0x100009674, symSize: 0x224 }
  - { offsetInCU: 0x49098, offset: 0x5DA25, size: 0x8, addend: 0x0, symName: __ZN7testing8internal8GTestLogC1ENS0_16GTestLogSeverityEPKci, symObjAddr: 0x7E0, symBinAddr: 0x1000098B8, symSize: 0x44 }
  - { offsetInCU: 0x490F2, offset: 0x5DA7F, size: 0x8, addend: 0x0, symName: __ZN7testing8internal8GTestLog9GetStreamEv, symObjAddr: 0x824, symBinAddr: 0x1000098FC, symSize: 0x18 }
  - { offsetInCU: 0x49118, offset: 0x5DAA5, size: 0x8, addend: 0x0, symName: __ZN7testing8internal8GTestLogD1Ev, symObjAddr: 0x83C, symBinAddr: 0x100009914, symSize: 0x2C }
  - { offsetInCU: 0x49177, offset: 0x5DB04, size: 0x8, addend: 0x0, symName: __ZN7testing8internal12AssertHelperC2ENS_14TestPartResult4TypeEPKciS5_, symObjAddr: 0x868, symBinAddr: 0x100009940, symSize: 0x88 }
  - { offsetInCU: 0x491E0, offset: 0x5DB6D, size: 0x8, addend: 0x0, symName: __ZN7testing8internal12AssertHelper16AssertHelperDataC1ENS_14TestPartResult4TypeEPKciS6_, symObjAddr: 0x8F0, symBinAddr: 0x1000099C8, symSize: 0x4C }
  - { offsetInCU: 0x49246, offset: 0x5DBD3, size: 0x8, addend: 0x0, symName: __ZN7testing8internal12AssertHelperC1ENS_14TestPartResult4TypeEPKciS5_, symObjAddr: 0x93C, symBinAddr: 0x100009A14, symSize: 0x4C }
  - { offsetInCU: 0x492AF, offset: 0x5DC3C, size: 0x8, addend: 0x0, symName: __ZN7testing8internal12AssertHelperD2Ev, symObjAddr: 0x988, symBinAddr: 0x100009A60, symSize: 0x58 }
  - { offsetInCU: 0x492DC, offset: 0x5DC69, size: 0x8, addend: 0x0, symName: __ZN7testing8internal12AssertHelper16AssertHelperDataD1Ev, symObjAddr: 0x9E0, symBinAddr: 0x100009AB8, symSize: 0x2C }
  - { offsetInCU: 0x49309, offset: 0x5DC96, size: 0x8, addend: 0x0, symName: __ZN7testing8internal12AssertHelperD1Ev, symObjAddr: 0xA0C, symBinAddr: 0x100009AE4, symSize: 0x2C }
  - { offsetInCU: 0x49336, offset: 0x5DCC3, size: 0x8, addend: 0x0, symName: __ZNK7testing8internal12AssertHelperaSERKNS_7MessageE, symObjAddr: 0xA38, symBinAddr: 0x100009B10, symSize: 0x108 }
  - { offsetInCU: 0x4936E, offset: 0x5DCFB, size: 0x8, addend: 0x0, symName: __ZN7testing8UnitTest17AddTestPartResultENS_14TestPartResult4TypeEPKciRKNSt3__112basic_stringIcNS5_11char_traitsIcEENS5_9allocatorIcEEEESD_, symObjAddr: 0xBFC, symBinAddr: 0x100009CD4, symSize: 0x40C }
  - { offsetInCU: 0x4943E, offset: 0x5DDCB, size: 0x8, addend: 0x0, symName: __ZN7testing8UnitTest4implEv, symObjAddr: 0x10F0, symBinAddr: 0x10000A1C8, symSize: 0x18 }
  - { offsetInCU: 0x49464, offset: 0x5DDF1, size: 0x8, addend: 0x0, symName: __ZN7testing8internal12UnitTestImpl28CurrentOsStackTraceExceptTopEi, symObjAddr: 0x1108, symBinAddr: 0x10000A1E0, symSize: 0x50 }
  - { offsetInCU: 0x4949C, offset: 0x5DE29, size: 0x8, addend: 0x0, symName: __ZNSt3__16vectorINS_12basic_stringIcNS_11char_traitsIcEENS_9allocatorIcEEEENS4_IS6_EEEC1B7v160006Ev, symObjAddr: 0x1158, symBinAddr: 0x10000A230, symSize: 0x2C }
  - { offsetInCU: 0x494C6, offset: 0x5DE53, size: 0x8, addend: 0x0, symName: __ZNSt3__16vectorINS_12basic_stringIcNS_11char_traitsIcEENS_9allocatorIcEEEENS4_IS6_EEED1B7v160006Ev, symObjAddr: 0x1184, symBinAddr: 0x10000A25C, symSize: 0x2C }
  - { offsetInCU: 0x494F0, offset: 0x5DE7D, size: 0x8, addend: 0x0, symName: __ZNSt3__16vectorINS_12basic_stringIcNS_11char_traitsIcEENS_9allocatorIcEEEENS4_IS6_EEEC1ERKS8_, symObjAddr: 0x11E0, symBinAddr: 0x10000A2B8, symSize: 0x34 }
  - { offsetInCU: 0x4952B, offset: 0x5DEB8, size: 0x8, addend: 0x0, symName: __ZN7testing8internal8FilePathC1Ev, symObjAddr: 0x12F4, symBinAddr: 0x10000A3CC, symSize: 0x2C }
  - { offsetInCU: 0x49555, offset: 0x5DEE2, size: 0x8, addend: 0x0, symName: __ZN7testing8internal8FilePath3SetERKS1_, symObjAddr: 0x1320, symBinAddr: 0x10000A3F8, symSize: 0x2C }
  - { offsetInCU: 0x49589, offset: 0x5DF16, size: 0x8, addend: 0x0, symName: __ZNSt3__16vectorINS_12basic_stringIcNS_11char_traitsIcEENS_9allocatorIcEEEENS4_IS6_EEEixB7v160006Em, symObjAddr: 0x134C, symBinAddr: 0x10000A424, symSize: 0x2C }
  - { offsetInCU: 0x495C0, offset: 0x5DF4D, size: 0x8, addend: 0x0, symName: __ZN7testing8internal8FilePathC1ERKNSt3__112basic_stringIcNS2_11char_traitsIcEENS2_9allocatorIcEEEE, symObjAddr: 0x1378, symBinAddr: 0x10000A450, symSize: 0x34 }
  - { offsetInCU: 0x495F8, offset: 0x5DF85, size: 0x8, addend: 0x0, symName: __ZN7testing8internal8FilePathD1Ev, symObjAddr: 0x13AC, symBinAddr: 0x10000A484, symSize: 0x2C }
  - { offsetInCU: 0x49624, offset: 0x5DFB1, size: 0x8, addend: 0x0, symName: __ZNK7testing8internal8FilePath19RemoveDirectoryNameEv, symObjAddr: 0x13D8, symBinAddr: 0x10000A4B0, symSize: 0xEC }
  - { offsetInCU: 0x4965B, offset: 0x5DFE8, size: 0x8, addend: 0x0, symName: __ZN7testing8internal15UnitTestOptions15GetOutputFormatEv, symObjAddr: 0x14C4, symBinAddr: 0x10000A59C, symSize: 0x80 }
  - { offsetInCU: 0x49690, offset: 0x5E01D, size: 0x8, addend: 0x0, symName: __Z6strchrB7v160006Ua9enable_ifIXLb1EEEPKci, symObjAddr: 0x1544, symBinAddr: 0x10000A61C, symSize: 0x2C }
  - { offsetInCU: 0x496CB, offset: 0x5E058, size: 0x8, addend: 0x0, symName: __ZNSt3__112basic_stringIcNS_11char_traitsIcEENS_9allocatorIcEEEC1B7v160006EPKcm, symObjAddr: 0x1570, symBinAddr: 0x10000A648, symSize: 0x3C }
  - { offsetInCU: 0x49713, offset: 0x5E0A0, size: 0x8, addend: 0x0, symName: __ZN7testing8internal15UnitTestOptions27GetAbsolutePathToOutputFileEv, symObjAddr: 0x15AC, symBinAddr: 0x10000A684, symSize: 0x510 }
  - { offsetInCU: 0x49779, offset: 0x5E106, size: 0x8, addend: 0x0, symName: __ZNKSt3__112basic_stringIcNS_11char_traitsIcEENS_9allocatorIcEEE5emptyB7v160006Ev, symObjAddr: 0x1ABC, symBinAddr: 0x10000AB94, symSize: 0x30 }
  - { offsetInCU: 0x4979F, offset: 0x5E12C, size: 0x8, addend: 0x0, symName: __ZNSt3__112basic_stringIcNS_11char_traitsIcEENS_9allocatorIcEEEaSB7v160006EOS5_, symObjAddr: 0x1AEC, symBinAddr: 0x10000ABC4, symSize: 0x34 }
  - { offsetInCU: 0x497D4, offset: 0x5E161, size: 0x8, addend: 0x0, symName: __ZN7testing8internal8FilePath12MakeFileNameERKS1_S3_iPKc, symObjAddr: 0x1B20, symBinAddr: 0x10000ABF8, symSize: 0x264 }
  - { offsetInCU: 0x49833, offset: 0x5E1C0, size: 0x8, addend: 0x0, symName: __ZNK7testing8UnitTest20original_working_dirEv, symObjAddr: 0x1D84, symBinAddr: 0x10000AE5C, symSize: 0x2C }
  - { offsetInCU: 0x4985C, offset: 0x5E1E9, size: 0x8, addend: 0x0, symName: __ZNK7testing8internal8FilePath6stringEv, symObjAddr: 0x1DB0, symBinAddr: 0x10000AE88, symSize: 0x14 }
  - { offsetInCU: 0x49882, offset: 0x5E20F, size: 0x8, addend: 0x0, symName: __ZNK7testing8internal8FilePath14IsAbsolutePathEv, symObjAddr: 0x1DC4, symBinAddr: 0x10000AE9C, symSize: 0x38 }
  - { offsetInCU: 0x498BA, offset: 0x5E247, size: 0x8, addend: 0x0, symName: __ZN7testing8internal8FilePath11ConcatPathsERKS1_S3_, symObjAddr: 0x1DFC, symBinAddr: 0x10000AED4, symSize: 0x124 }
  - { offsetInCU: 0x498FC, offset: 0x5E289, size: 0x8, addend: 0x0, symName: __ZN7testing8internal8FilePathaSERKS1_, symObjAddr: 0x1F20, symBinAddr: 0x10000AFF8, symSize: 0x34 }
  - { offsetInCU: 0x49930, offset: 0x5E2BD, size: 0x8, addend: 0x0, symName: __ZNK7testing8internal8FilePath11IsDirectoryEv, symObjAddr: 0x1F54, symBinAddr: 0x10000B02C, symSize: 0x74 }
  - { offsetInCU: 0x49959, offset: 0x5E2E6, size: 0x8, addend: 0x0, symName: __ZN7testing8internal8FilePath22GenerateUniqueFileNameERKS1_S3_PKc, symObjAddr: 0x1FC8, symBinAddr: 0x10000B0A0, symSize: 0x118 }
  - { offsetInCU: 0x499BD, offset: 0x5E34A, size: 0x8, addend: 0x0, symName: __ZN7testing8internal15UnitTestOptions20PatternMatchesStringEPKcS3_, symObjAddr: 0x20E0, symBinAddr: 0x10000B1B8, symSize: 0x1AC }
  - { offsetInCU: 0x499F3, offset: 0x5E380, size: 0x8, addend: 0x0, symName: __ZN7testing8internal15UnitTestOptions13MatchesFilterERKNSt3__112basic_stringIcNS2_11char_traitsIcEENS2_9allocatorIcEEEEPKc, symObjAddr: 0x228C, symBinAddr: 0x10000B364, symSize: 0xB4 }
  - { offsetInCU: 0x49A38, offset: 0x5E3C5, size: 0x8, addend: 0x0, symName: __ZN7testing8internal15UnitTestOptions17FilterMatchesTestERKNSt3__112basic_stringIcNS2_11char_traitsIcEENS2_9allocatorIcEEEESA_, symObjAddr: 0x2340, symBinAddr: 0x10000B418, symSize: 0x264 }
  - { offsetInCU: 0x49ABD, offset: 0x5E44A, size: 0x8, addend: 0x0, symName: __ZNSt3__112basic_stringIcNS_11char_traitsIcEENS_9allocatorIcEEEaSB7v160006EPKc, symObjAddr: 0x272C, symBinAddr: 0x10000B7D8, symSize: 0x2C }
  - { offsetInCU: 0x49AF2, offset: 0x5E47F, size: 0x8, addend: 0x0, symName: __ZNSt3__112basic_stringIcNS_11char_traitsIcEENS_9allocatorIcEEEC1B7v160006IPKcvEET_S9_, symObjAddr: 0x2758, symBinAddr: 0x10000B804, symSize: 0x3C }
  - { offsetInCU: 0x49B44, offset: 0x5E4D1, size: 0x8, addend: 0x0, symName: __ZN7testing32ScopedFakeTestPartResultReporterC2EPNS_19TestPartResultArrayE, symObjAddr: 0x2794, symBinAddr: 0x10000B840, symSize: 0x84 }
  - { offsetInCU: 0x49B80, offset: 0x5E50D, size: 0x8, addend: 0x0, symName: __ZN7testing31TestPartResultReporterInterfaceC2Ev, symObjAddr: 0x2818, symBinAddr: 0x10000B8C4, symSize: 0x24 }
  - { offsetInCU: 0x49BAC, offset: 0x5E539, size: 0x8, addend: 0x0, symName: __ZN7testing32ScopedFakeTestPartResultReporter4InitEv, symObjAddr: 0x283C, symBinAddr: 0x10000B8E8, symSize: 0x7C }
  - { offsetInCU: 0x49BE4, offset: 0x5E571, size: 0x8, addend: 0x0, symName: __ZN7testing31TestPartResultReporterInterfaceD2Ev, symObjAddr: 0x28B8, symBinAddr: 0x10000B964, symSize: 0x14 }
  - { offsetInCU: 0x49C0E, offset: 0x5E59B, size: 0x8, addend: 0x0, symName: __ZN7testing32ScopedFakeTestPartResultReporterC1EPNS_19TestPartResultArrayE, symObjAddr: 0x28CC, symBinAddr: 0x10000B978, symSize: 0x34 }
  - { offsetInCU: 0x49C4A, offset: 0x5E5D7, size: 0x8, addend: 0x0, symName: __ZN7testing32ScopedFakeTestPartResultReporterC2ENS0_13InterceptModeEPNS_19TestPartResultArrayE, symObjAddr: 0x2900, symBinAddr: 0x10000B9AC, symSize: 0x8C }
  - { offsetInCU: 0x49C95, offset: 0x5E622, size: 0x8, addend: 0x0, symName: __ZN7testing32ScopedFakeTestPartResultReporterC1ENS0_13InterceptModeEPNS_19TestPartResultArrayE, symObjAddr: 0x298C, symBinAddr: 0x10000BA38, symSize: 0x3C }
  - { offsetInCU: 0x49CE0, offset: 0x5E66D, size: 0x8, addend: 0x0, symName: __ZN7testing8internal12UnitTestImpl31GetGlobalTestPartResultReporterEv, symObjAddr: 0x29E0, symBinAddr: 0x10000BA8C, symSize: 0x4C }
  - { offsetInCU: 0x49D18, offset: 0x5E6A5, size: 0x8, addend: 0x0, symName: __ZN7testing8internal12UnitTestImpl31SetGlobalTestPartResultReporterEPNS_31TestPartResultReporterInterfaceE, symObjAddr: 0x2A2C, symBinAddr: 0x10000BAD8, symSize: 0x4C }
  - { offsetInCU: 0x49D5F, offset: 0x5E6EC, size: 0x8, addend: 0x0, symName: __ZN7testing8internal12UnitTestImpl41GetTestPartResultReporterForCurrentThreadEv, symObjAddr: 0x2A78, symBinAddr: 0x10000BB24, symSize: 0x2C }
  - { offsetInCU: 0x49D88, offset: 0x5E715, size: 0x8, addend: 0x0, symName: __ZN7testing8internal12UnitTestImpl41SetTestPartResultReporterForCurrentThreadEPNS_31TestPartResultReporterInterfaceE, symObjAddr: 0x2AA4, symBinAddr: 0x10000BB50, symSize: 0x34 }
  - { offsetInCU: 0x49DC0, offset: 0x5E74D, size: 0x8, addend: 0x0, symName: __ZN7testing32ScopedFakeTestPartResultReporterD2Ev, symObjAddr: 0x2AD8, symBinAddr: 0x10000BB84, symSize: 0xA8 }
  - { offsetInCU: 0x49E02, offset: 0x5E78F, size: 0x8, addend: 0x0, symName: __ZN7testing32ScopedFakeTestPartResultReporterD1Ev, symObjAddr: 0x2B8C, symBinAddr: 0x10000BC2C, symSize: 0x2C }
  - { offsetInCU: 0x49E2F, offset: 0x5E7BC, size: 0x8, addend: 0x0, symName: __ZN7testing32ScopedFakeTestPartResultReporterD0Ev, symObjAddr: 0x2BB8, symBinAddr: 0x10000BC58, symSize: 0x30 }
  - { offsetInCU: 0x49E5C, offset: 0x5E7E9, size: 0x8, addend: 0x0, symName: __ZN7testing32ScopedFakeTestPartResultReporter20ReportTestPartResultERKNS_14TestPartResultE, symObjAddr: 0x2BE8, symBinAddr: 0x10000BC88, symSize: 0x30 }
  - { offsetInCU: 0x49E94, offset: 0x5E821, size: 0x8, addend: 0x0, symName: __ZN7testing19TestPartResultArray6AppendERKNS_14TestPartResultE, symObjAddr: 0x2C18, symBinAddr: 0x10000BCB8, symSize: 0x2C }
  - { offsetInCU: 0x49EE3, offset: 0x5E870, size: 0x8, addend: 0x0, symName: __ZN7testing8internal20SingleFailureCheckerC2EPKNS_19TestPartResultArrayENS_14TestPartResult4TypeERKNSt3__112basic_stringIcNS7_11char_traitsIcEENS7_9allocatorIcEEEE, symObjAddr: 0x2C64, symBinAddr: 0x10000BD04, symSize: 0x50 }
  - { offsetInCU: 0x49F3D, offset: 0x5E8CA, size: 0x8, addend: 0x0, symName: __ZN7testing8internal20SingleFailureCheckerC1EPKNS_19TestPartResultArrayENS_14TestPartResult4TypeERKNSt3__112basic_stringIcNS7_11char_traitsIcEENS7_9allocatorIcEEEE, symObjAddr: 0x2CB4, symBinAddr: 0x10000BD54, symSize: 0x44 }
  - { offsetInCU: 0x49F97, offset: 0x5E924, size: 0x8, addend: 0x0, symName: __ZN7testing8internal20SingleFailureCheckerD2Ev, symObjAddr: 0x2CF8, symBinAddr: 0x10000BD98, symSize: 0xF8 }
  - { offsetInCU: 0x49FD9, offset: 0x5E966, size: 0x8, addend: 0x0, symName: __ZN7testing7MessageC1Ev, symObjAddr: 0x3294, symBinAddr: 0x10000C318, symSize: 0x2C }
  - { offsetInCU: 0x4A006, offset: 0x5E993, size: 0x8, addend: 0x0, symName: __ZNK7testing15AssertionResult15failure_messageEv, symObjAddr: 0x32C0, symBinAddr: 0x10000C344, symSize: 0x24 }
  - { offsetInCU: 0x4A02C, offset: 0x5E9B9, size: 0x8, addend: 0x0, symName: __ZN7testing8internal20SingleFailureCheckerD1Ev, symObjAddr: 0x333C, symBinAddr: 0x10000C368, symSize: 0x2C }
  - { offsetInCU: 0x4A059, offset: 0x5E9E6, size: 0x8, addend: 0x0, symName: __ZN7testing8internal35DefaultGlobalTestPartResultReporterC2EPNS0_12UnitTestImplE, symObjAddr: 0x3368, symBinAddr: 0x10000C394, symSize: 0x50 }
  - { offsetInCU: 0x4A095, offset: 0x5EA22, size: 0x8, addend: 0x0, symName: __ZN7testing8internal35DefaultGlobalTestPartResultReporterC1EPNS0_12UnitTestImplE, symObjAddr: 0x33B8, symBinAddr: 0x10000C3E4, symSize: 0x34 }
  - { offsetInCU: 0x4A0D1, offset: 0x5EA5E, size: 0x8, addend: 0x0, symName: __ZN7testing8internal35DefaultGlobalTestPartResultReporter20ReportTestPartResultERKNS_14TestPartResultE, symObjAddr: 0x33EC, symBinAddr: 0x10000C418, symSize: 0x58 }
  - { offsetInCU: 0x4A109, offset: 0x5EA96, size: 0x8, addend: 0x0, symName: __ZN7testing8internal12UnitTestImpl19current_test_resultEv, symObjAddr: 0x3444, symBinAddr: 0x10000C470, symSize: 0x80 }
  - { offsetInCU: 0x4A132, offset: 0x5EABF, size: 0x8, addend: 0x0, symName: __ZN7testing10TestResult17AddTestPartResultERKNS_14TestPartResultE, symObjAddr: 0x34C4, symBinAddr: 0x10000C4F0, symSize: 0x30 }
  - { offsetInCU: 0x4A16A, offset: 0x5EAF7, size: 0x8, addend: 0x0, symName: __ZN7testing8internal12UnitTestImpl9listenersEv, symObjAddr: 0x34F4, symBinAddr: 0x10000C520, symSize: 0x18 }
  - { offsetInCU: 0x4A190, offset: 0x5EB1D, size: 0x8, addend: 0x0, symName: __ZN7testing18TestEventListeners8repeaterEv, symObjAddr: 0x350C, symBinAddr: 0x10000C538, symSize: 0x18 }
  - { offsetInCU: 0x4A1B9, offset: 0x5EB46, size: 0x8, addend: 0x0, symName: __ZN7testing8internal38DefaultPerThreadTestPartResultReporterC2EPNS0_12UnitTestImplE, symObjAddr: 0x3524, symBinAddr: 0x10000C550, symSize: 0x50 }
  - { offsetInCU: 0x4A1F5, offset: 0x5EB82, size: 0x8, addend: 0x0, symName: __ZN7testing8internal38DefaultPerThreadTestPartResultReporterC1EPNS0_12UnitTestImplE, symObjAddr: 0x3574, symBinAddr: 0x10000C5A0, symSize: 0x34 }
  - { offsetInCU: 0x4A231, offset: 0x5EBBE, size: 0x8, addend: 0x0, symName: __ZN7testing8internal38DefaultPerThreadTestPartResultReporter20ReportTestPartResultERKNS_14TestPartResultE, symObjAddr: 0x35A8, symBinAddr: 0x10000C5D4, symSize: 0x3C }
  - { offsetInCU: 0x4A282, offset: 0x5EC0F, size: 0x8, addend: 0x0, symName: __ZN7testing8internal14GTestMutexLockC1EPNS0_9MutexBaseE, symObjAddr: 0x35E4, symBinAddr: 0x10000C610, symSize: 0x34 }
  - { offsetInCU: 0x4A2BB, offset: 0x5EC48, size: 0x8, addend: 0x0, symName: __ZN7testing8internal14GTestMutexLockD1Ev, symObjAddr: 0x3618, symBinAddr: 0x10000C644, symSize: 0x2C }
  - { offsetInCU: 0x4A2E5, offset: 0x5EC72, size: 0x8, addend: 0x0, symName: __ZNK7testing8internal11ThreadLocalIPNS_31TestPartResultReporterInterfaceEE3getEv, symObjAddr: 0x3644, symBinAddr: 0x10000C670, symSize: 0x24 }
  - { offsetInCU: 0x4A30B, offset: 0x5EC98, size: 0x8, addend: 0x0, symName: __ZN7testing8internal11ThreadLocalIPNS_31TestPartResultReporterInterfaceEE3setERKS3_, symObjAddr: 0x3668, symBinAddr: 0x10000C694, symSize: 0x3C }
  - { offsetInCU: 0x4A340, offset: 0x5ECCD, size: 0x8, addend: 0x0, symName: __ZNK7testing8internal12UnitTestImpl26successful_test_case_countEv, symObjAddr: 0x36A4, symBinAddr: 0x10000C6D0, symSize: 0x30 }
  - { offsetInCU: 0x4A369, offset: 0x5ECF6, size: 0x8, addend: 0x0, symName: __ZNK7testing8internal12UnitTestImpl22failed_test_case_countEv, symObjAddr: 0x37BC, symBinAddr: 0x10000C7E8, symSize: 0x30 }
  - { offsetInCU: 0x4A392, offset: 0x5ED1F, size: 0x8, addend: 0x0, symName: __ZNK7testing8internal12UnitTestImpl21total_test_case_countEv, symObjAddr: 0x3838, symBinAddr: 0x10000C864, symSize: 0x28 }
  - { offsetInCU: 0x4A3BB, offset: 0x5ED48, size: 0x8, addend: 0x0, symName: __ZNKSt3__16vectorIPN7testing8TestCaseENS_9allocatorIS3_EEE4sizeB7v160006Ev, symObjAddr: 0x3860, symBinAddr: 0x10000C88C, symSize: 0x28 }
  - { offsetInCU: 0x4A3E1, offset: 0x5ED6E, size: 0x8, addend: 0x0, symName: __ZNK7testing8internal12UnitTestImpl22test_case_to_run_countEv, symObjAddr: 0x3888, symBinAddr: 0x10000C8B4, symSize: 0x30 }
  - { offsetInCU: 0x4A40A, offset: 0x5ED97, size: 0x8, addend: 0x0, symName: __ZNK7testing8internal12UnitTestImpl21successful_test_countEv, symObjAddr: 0x38E0, symBinAddr: 0x10000C90C, symSize: 0x40 }
  - { offsetInCU: 0x4A433, offset: 0x5EDC0, size: 0x8, addend: 0x0, symName: __ZNK7testing8TestCase21successful_test_countEv, symObjAddr: 0x3A0C, symBinAddr: 0x10000CA38, symSize: 0x30 }
  - { offsetInCU: 0x4A45C, offset: 0x5EDE9, size: 0x8, addend: 0x0, symName: __ZNK7testing8internal12UnitTestImpl18skipped_test_countEv, symObjAddr: 0x3A3C, symBinAddr: 0x10000CA68, symSize: 0x40 }
  - { offsetInCU: 0x4A485, offset: 0x5EE12, size: 0x8, addend: 0x0, symName: __ZNK7testing8TestCase18skipped_test_countEv, symObjAddr: 0x3A7C, symBinAddr: 0x10000CAA8, symSize: 0x30 }
  - { offsetInCU: 0x4A4AE, offset: 0x5EE3B, size: 0x8, addend: 0x0, symName: __ZNK7testing8internal12UnitTestImpl17failed_test_countEv, symObjAddr: 0x3AAC, symBinAddr: 0x10000CAD8, symSize: 0x40 }
  - { offsetInCU: 0x4A4D7, offset: 0x5EE64, size: 0x8, addend: 0x0, symName: __ZNK7testing8TestCase17failed_test_countEv, symObjAddr: 0x3AEC, symBinAddr: 0x10000CB18, symSize: 0x30 }
  - { offsetInCU: 0x4A500, offset: 0x5EE8D, size: 0x8, addend: 0x0, symName: __ZNK7testing8internal12UnitTestImpl30reportable_disabled_test_countEv, symObjAddr: 0x3B1C, symBinAddr: 0x10000CB48, symSize: 0x40 }
  - { offsetInCU: 0x4A529, offset: 0x5EEB6, size: 0x8, addend: 0x0, symName: __ZNK7testing8TestCase30reportable_disabled_test_countEv, symObjAddr: 0x3B5C, symBinAddr: 0x10000CB88, symSize: 0x30 }
  - { offsetInCU: 0x4A552, offset: 0x5EEDF, size: 0x8, addend: 0x0, symName: __ZNK7testing8internal12UnitTestImpl19disabled_test_countEv, symObjAddr: 0x3B8C, symBinAddr: 0x10000CBB8, symSize: 0x40 }
  - { offsetInCU: 0x4A57B, offset: 0x5EF08, size: 0x8, addend: 0x0, symName: __ZNK7testing8TestCase19disabled_test_countEv, symObjAddr: 0x3BCC, symBinAddr: 0x10000CBF8, symSize: 0x30 }
  - { offsetInCU: 0x4A5A4, offset: 0x5EF31, size: 0x8, addend: 0x0, symName: __ZNK7testing8internal12UnitTestImpl21reportable_test_countEv, symObjAddr: 0x3BFC, symBinAddr: 0x10000CC28, symSize: 0x40 }
  - { offsetInCU: 0x4A5CD, offset: 0x5EF5A, size: 0x8, addend: 0x0, symName: __ZNK7testing8TestCase21reportable_test_countEv, symObjAddr: 0x3C3C, symBinAddr: 0x10000CC68, symSize: 0x30 }
  - { offsetInCU: 0x4A5F6, offset: 0x5EF83, size: 0x8, addend: 0x0, symName: __ZNK7testing8internal12UnitTestImpl16total_test_countEv, symObjAddr: 0x3C6C, symBinAddr: 0x10000CC98, symSize: 0x40 }
  - { offsetInCU: 0x4A61F, offset: 0x5EFAC, size: 0x8, addend: 0x0, symName: __ZNK7testing8TestCase16total_test_countEv, symObjAddr: 0x3CAC, symBinAddr: 0x10000CCD8, symSize: 0x28 }
  - { offsetInCU: 0x4A648, offset: 0x5EFD5, size: 0x8, addend: 0x0, symName: __ZNK7testing8internal12UnitTestImpl17test_to_run_countEv, symObjAddr: 0x3CD4, symBinAddr: 0x10000CD00, symSize: 0x40 }
  - { offsetInCU: 0x4A671, offset: 0x5EFFE, size: 0x8, addend: 0x0, symName: __ZNK7testing8TestCase17test_to_run_countEv, symObjAddr: 0x3D14, symBinAddr: 0x10000CD40, symSize: 0x30 }
  - { offsetInCU: 0x4A69A, offset: 0x5F027, size: 0x8, addend: 0x0, symName: __ZN7testing8internal12UnitTestImpl21os_stack_trace_getterEv, symObjAddr: 0x3D44, symBinAddr: 0x10000CD70, symSize: 0x88 }
  - { offsetInCU: 0x4A6C8, offset: 0x5F055, size: 0x8, addend: 0x0, symName: __ZN7testing8internal6String13CStringEqualsEPKcS3_, symObjAddr: 0x3E0C, symBinAddr: 0x10000CE38, symSize: 0xA4 }
  - { offsetInCU: 0x4A6FE, offset: 0x5F08B, size: 0x8, addend: 0x0, symName: __ZNSt3__16vectorINS_12basic_stringIcNS_11char_traitsIcEENS_9allocatorIcEEEENS4_IS6_EEE9push_backB7v160006EOS6_, symObjAddr: 0x4054, symBinAddr: 0x10000D080, symSize: 0x6C }
  - { offsetInCU: 0x4A735, offset: 0x5F0C2, size: 0x8, addend: 0x0, symName: __ZNKSt3__112basic_stringIcNS_11char_traitsIcEENS_9allocatorIcEEE6substrB7v160006Emm, symObjAddr: 0x40C0, symBinAddr: 0x10000D0EC, symSize: 0x68 }
  - { offsetInCU: 0x4A779, offset: 0x5F106, size: 0x8, addend: 0x0, symName: __ZNSt3__16vectorINS_12basic_stringIcNS_11char_traitsIcEENS_9allocatorIcEEEENS4_IS6_EEE4swapERS8_, symObjAddr: 0x4128, symBinAddr: 0x10000D154, symSize: 0x98 }
  - { offsetInCU: 0x4A7B0, offset: 0x5F13D, size: 0x8, addend: 0x0, symName: __ZN7testing7MessageC2Ev, symObjAddr: 0x41C0, symBinAddr: 0x10000D1EC, symSize: 0xCC }
  - { offsetInCU: 0x4A7DD, offset: 0x5F16A, size: 0x8, addend: 0x0, symName: __ZNSt3__118basic_stringstreamIcNS_11char_traitsIcEENS_9allocatorIcEEEC1B7v160006Ev, symObjAddr: 0x428C, symBinAddr: 0x10000D2B8, symSize: 0x104 }
  - { offsetInCU: 0x4A807, offset: 0x5F194, size: 0x8, addend: 0x0, symName: __ZNSt3__110unique_ptrINS_18basic_stringstreamIcNS_11char_traitsIcEENS_9allocatorIcEEEENS_14default_deleteIS6_EEEC1B7v160006ILb1EvEEPS6_, symObjAddr: 0x4390, symBinAddr: 0x10000D3BC, symSize: 0x34 }
  - { offsetInCU: 0x4A84A, offset: 0x5F1D7, size: 0x8, addend: 0x0, symName: __ZNKSt3__110unique_ptrINS_18basic_stringstreamIcNS_11char_traitsIcEENS_9allocatorIcEEEENS_14default_deleteIS6_EEEdeB7v160006Ev, symObjAddr: 0x4404, symBinAddr: 0x10000D430, symSize: 0x28 }
  - { offsetInCU: 0x4A870, offset: 0x5F1FD, size: 0x8, addend: 0x0, symName: __ZN7testing7MessagelsEPKw, symObjAddr: 0x4484, symBinAddr: 0x10000D484, symSize: 0x78 }
  - { offsetInCU: 0x4A8A8, offset: 0x5F235, size: 0x8, addend: 0x0, symName: __ZN7testing7MessagelsINSt3__112basic_stringIcNS2_11char_traitsIcEENS2_9allocatorIcEEEEEERS0_RKT_, symObjAddr: 0x44FC, symBinAddr: 0x10000D4FC, symSize: 0x3C }
  - { offsetInCU: 0x4A90C, offset: 0x5F299, size: 0x8, addend: 0x0, symName: __ZN7testing8internal6String15ShowWideCStringEPKw, symObjAddr: 0x4538, symBinAddr: 0x10000D538, symSize: 0x60 }
  - { offsetInCU: 0x4A933, offset: 0x5F2C0, size: 0x8, addend: 0x0, symName: __ZN7testing7MessagelsEPw, symObjAddr: 0x4598, symBinAddr: 0x10000D598, symSize: 0x78 }
  - { offsetInCU: 0x4A96B, offset: 0x5F2F8, size: 0x8, addend: 0x0, symName: __ZN7testing7MessagelsERKNSt3__112basic_stringIwNS1_11char_traitsIwEENS1_9allocatorIwEEEE, symObjAddr: 0x4610, symBinAddr: 0x10000D610, symSize: 0x50 }
  - { offsetInCU: 0x4A9A3, offset: 0x5F330, size: 0x8, addend: 0x0, symName: __ZNKSt3__112basic_stringIwNS_11char_traitsIwEENS_9allocatorIwEEE5c_strB7v160006Ev, symObjAddr: 0x47AC, symBinAddr: 0x10000D7AC, symSize: 0x24 }
  - { offsetInCU: 0x4A9C9, offset: 0x5F356, size: 0x8, addend: 0x0, symName: __ZNKSt3__112basic_stringIwNS_11char_traitsIwEENS_9allocatorIwEEE6lengthB7v160006Ev, symObjAddr: 0x47D0, symBinAddr: 0x10000D7D0, symSize: 0x24 }
  - { offsetInCU: 0x4A9EF, offset: 0x5F37C, size: 0x8, addend: 0x0, symName: __ZNK7testing7Message9GetStringEv, symObjAddr: 0x47F4, symBinAddr: 0x10000D7F4, symSize: 0x34 }
  - { offsetInCU: 0x4AA18, offset: 0x5F3A5, size: 0x8, addend: 0x0, symName: __ZNKSt3__110unique_ptrINS_18basic_stringstreamIcNS_11char_traitsIcEENS_9allocatorIcEEEENS_14default_deleteIS6_EEE3getB7v160006Ev, symObjAddr: 0x49A4, symBinAddr: 0x10000D9A4, symSize: 0x28 }
  - { offsetInCU: 0x4AA3E, offset: 0x5F3CB, size: 0x8, addend: 0x0, symName: __ZN7testing15AssertionResultC2ERKS0_, symObjAddr: 0x49CC, symBinAddr: 0x10000D9CC, symSize: 0x110 }
  - { offsetInCU: 0x4AA7A, offset: 0x5F407, size: 0x8, addend: 0x0, symName: __ZNKSt3__110unique_ptrINS_12basic_stringIcNS_11char_traitsIcEENS_9allocatorIcEEEENS_14default_deleteIS6_EEE3getB7v160006Ev, symObjAddr: 0x4ADC, symBinAddr: 0x10000DADC, symSize: 0x28 }
  - { offsetInCU: 0x4AAA0, offset: 0x5F42D, size: 0x8, addend: 0x0, symName: __ZNKSt3__110unique_ptrINS_12basic_stringIcNS_11char_traitsIcEENS_9allocatorIcEEEENS_14default_deleteIS6_EEEdeB7v160006Ev, symObjAddr: 0x4B04, symBinAddr: 0x10000DB04, symSize: 0x28 }
  - { offsetInCU: 0x4AAC6, offset: 0x5F453, size: 0x8, addend: 0x0, symName: __ZNSt3__110unique_ptrINS_12basic_stringIcNS_11char_traitsIcEENS_9allocatorIcEEEENS_14default_deleteIS6_EEEC1B7v160006ILb1EvEEPS6_, symObjAddr: 0x4B2C, symBinAddr: 0x10000DB2C, symSize: 0x34 }
  - { offsetInCU: 0x4AB09, offset: 0x5F496, size: 0x8, addend: 0x0, symName: __ZN7testing15AssertionResultC1ERKS0_, symObjAddr: 0x4B60, symBinAddr: 0x10000DB60, symSize: 0x34 }
  - { offsetInCU: 0x4AB45, offset: 0x5F4D2, size: 0x8, addend: 0x0, symName: __ZN7testing15AssertionResult4swapERS0_, symObjAddr: 0x4B94, symBinAddr: 0x10000DB94, symSize: 0x44 }
  - { offsetInCU: 0x4AB7D, offset: 0x5F50A, size: 0x8, addend: 0x0, symName: __ZNK7testing15AssertionResultntEv, symObjAddr: 0x4C50, symBinAddr: 0x10000DC50, symSize: 0xF8 }
  - { offsetInCU: 0x4ABC0, offset: 0x5F54D, size: 0x8, addend: 0x0, symName: __ZN7testing15AssertionResultlsINSt3__112basic_stringIcNS2_11char_traitsIcEENS2_9allocatorIcEEEEEERS0_RKT_, symObjAddr: 0x4D84, symBinAddr: 0x10000DD48, symSize: 0x84 }
  - { offsetInCU: 0x4ABFE, offset: 0x5F58B, size: 0x8, addend: 0x0, symName: __ZN7testing15AssertionResultlsINS_7MessageEEERS0_RKT_, symObjAddr: 0x4EF0, symBinAddr: 0x10000DEB4, symSize: 0x84 }
  - { offsetInCU: 0x4AC3C, offset: 0x5F5C9, size: 0x8, addend: 0x0, symName: __ZNKSt3__16vectorImNS_9allocatorImEEE4sizeB7v160006Ev, symObjAddr: 0x5610, symBinAddr: 0x10000E5D4, symSize: 0x28 }
  - { offsetInCU: 0x4AC62, offset: 0x5F5EF, size: 0x8, addend: 0x0, symName: __ZNSt3__16vectorIdNS_9allocatorIdEEEC1Em, symObjAddr: 0x5638, symBinAddr: 0x10000E5FC, symSize: 0x34 }
  - { offsetInCU: 0x4AC9D, offset: 0x5F62A, size: 0x8, addend: 0x0, symName: __ZNSt3__16vectorINS0_IdNS_9allocatorIdEEEENS1_IS3_EEEC1EmRKS3_, symObjAddr: 0x566C, symBinAddr: 0x10000E630, symSize: 0x3C }
  - { offsetInCU: 0x4ACE7, offset: 0x5F674, size: 0x8, addend: 0x0, symName: __ZNSt3__16vectorIdNS_9allocatorIdEEED1B7v160006Ev, symObjAddr: 0x56A8, symBinAddr: 0x10000E66C, symSize: 0x2C }
  - { offsetInCU: 0x4AD11, offset: 0x5F69E, size: 0x8, addend: 0x0, symName: __ZNSt3__16vectorIN7testing8internal13edit_distance8EditTypeENS_9allocatorIS4_EEEC1Em, symObjAddr: 0x56D4, symBinAddr: 0x10000E698, symSize: 0x34 }
  - { offsetInCU: 0x4AD4C, offset: 0x5F6D9, size: 0x8, addend: 0x0, symName: __ZNSt3__16vectorINS0_IN7testing8internal13edit_distance8EditTypeENS_9allocatorIS4_EEEENS5_IS7_EEEC1EmRKS7_, symObjAddr: 0x5708, symBinAddr: 0x10000E6CC, symSize: 0x3C }
  - { offsetInCU: 0x4AD96, offset: 0x5F723, size: 0x8, addend: 0x0, symName: __ZNSt3__16vectorIN7testing8internal13edit_distance8EditTypeENS_9allocatorIS4_EEED1B7v160006Ev, symObjAddr: 0x5744, symBinAddr: 0x10000E708, symSize: 0x2C }
  - { offsetInCU: 0x4ADC0, offset: 0x5F74D, size: 0x8, addend: 0x0, symName: __ZNKSt3__16vectorINS0_IdNS_9allocatorIdEEEENS1_IS3_EEE4sizeB7v160006Ev, symObjAddr: 0x5770, symBinAddr: 0x10000E734, symSize: 0x28 }
  - { offsetInCU: 0x4ADE6, offset: 0x5F773, size: 0x8, addend: 0x0, symName: __ZNSt3__16vectorINS0_IdNS_9allocatorIdEEEENS1_IS3_EEEixB7v160006Em, symObjAddr: 0x5798, symBinAddr: 0x10000E75C, symSize: 0x2C }
  - { offsetInCU: 0x4AE1D, offset: 0x5F7AA, size: 0x8, addend: 0x0, symName: __ZNSt3__16vectorIdNS_9allocatorIdEEEixB7v160006Em, symObjAddr: 0x57C4, symBinAddr: 0x10000E788, symSize: 0x24 }
  - { offsetInCU: 0x4AE54, offset: 0x5F7E1, size: 0x8, addend: 0x0, symName: __ZNSt3__16vectorINS0_IN7testing8internal13edit_distance8EditTypeENS_9allocatorIS4_EEEENS5_IS7_EEEixB7v160006Em, symObjAddr: 0x57E8, symBinAddr: 0x10000E7AC, symSize: 0x2C }
  - { offsetInCU: 0x4AE8B, offset: 0x5F818, size: 0x8, addend: 0x0, symName: __ZNSt3__16vectorIN7testing8internal13edit_distance8EditTypeENS_9allocatorIS4_EEEixB7v160006Em, symObjAddr: 0x5814, symBinAddr: 0x10000E7D8, symSize: 0x24 }
  - { offsetInCU: 0x4AEC2, offset: 0x5F84F, size: 0x8, addend: 0x0, symName: __ZNKSt3__16vectorIdNS_9allocatorIdEEE4sizeB7v160006Ev, symObjAddr: 0x5838, symBinAddr: 0x10000E7FC, symSize: 0x28 }
  - { offsetInCU: 0x4AEE8, offset: 0x5F875, size: 0x8, addend: 0x0, symName: __ZNKSt3__16vectorImNS_9allocatorImEEEixB7v160006Em, symObjAddr: 0x5860, symBinAddr: 0x10000E824, symSize: 0x24 }
  - { offsetInCU: 0x4AF1F, offset: 0x5F8AC, size: 0x8, addend: 0x0, symName: __ZNSt3__16vectorIN7testing8internal13edit_distance8EditTypeENS_9allocatorIS4_EEEC1B7v160006Ev, symObjAddr: 0x5884, symBinAddr: 0x10000E848, symSize: 0x2C }
  - { offsetInCU: 0x4AF49, offset: 0x5F8D6, size: 0x8, addend: 0x0, symName: __ZNSt3__16vectorIN7testing8internal13edit_distance8EditTypeENS_9allocatorIS4_EEE9push_backB7v160006ERKS4_, symObjAddr: 0x58B0, symBinAddr: 0x10000E874, symSize: 0x6C }
  - { offsetInCU: 0x4AF80, offset: 0x5F90D, size: 0x8, addend: 0x0, symName: __ZNSt3__16vectorIN7testing8internal13edit_distance8EditTypeENS_9allocatorIS4_EEE5beginB7v160006Ev, symObjAddr: 0x5958, symBinAddr: 0x10000E91C, symSize: 0x30 }
  - { offsetInCU: 0x4AFA8, offset: 0x5F935, size: 0x8, addend: 0x0, symName: __ZNSt3__16vectorIN7testing8internal13edit_distance8EditTypeENS_9allocatorIS4_EEE3endB7v160006Ev, symObjAddr: 0x5988, symBinAddr: 0x10000E94C, symSize: 0x30 }
  - { offsetInCU: 0x4AFD0, offset: 0x5F95D, size: 0x8, addend: 0x0, symName: __ZNSt3__16vectorINS0_IN7testing8internal13edit_distance8EditTypeENS_9allocatorIS4_EEEENS5_IS7_EEED1B7v160006Ev, symObjAddr: 0x59B8, symBinAddr: 0x10000E97C, symSize: 0x2C }
  - { offsetInCU: 0x4AFFA, offset: 0x5F987, size: 0x8, addend: 0x0, symName: __ZNSt3__16vectorINS0_IdNS_9allocatorIdEEEENS1_IS3_EEED1B7v160006Ev, symObjAddr: 0x59E4, symBinAddr: 0x10000E9A8, symSize: 0x2C }
  - { offsetInCU: 0x4B024, offset: 0x5F9B1, size: 0x8, addend: 0x0, symName: __ZNSt3__16vectorImNS_9allocatorImEEEC1B7v160006Ev, symObjAddr: 0x5BB0, symBinAddr: 0x10000EB74, symSize: 0x2C }
  - { offsetInCU: 0x4B053, offset: 0x5F9E0, size: 0x8, addend: 0x0, symName: __ZN7testing8internal13edit_distance12_GLOBAL__N_115InternalStringsC1Ev, symObjAddr: 0x5BDC, symBinAddr: 0x10000EBA0, symSize: 0x2C }
  - { offsetInCU: 0x4B080, offset: 0x5FA0D, size: 0x8, addend: 0x0, symName: __ZNKSt3__16vectorINS_12basic_stringIcNS_11char_traitsIcEENS_9allocatorIcEEEENS4_IS6_EEE4sizeB7v160006Ev, symObjAddr: 0x5C08, symBinAddr: 0x10000EBCC, symSize: 0x28 }
  - { offsetInCU: 0x4B0A6, offset: 0x5FA33, size: 0x8, addend: 0x0, symName: __ZNSt3__16vectorImNS_9allocatorImEEE9push_backB7v160006EOm, symObjAddr: 0x5C30, symBinAddr: 0x10000EBF4, symSize: 0x6C }
  - { offsetInCU: 0x4B0DD, offset: 0x5FA6A, size: 0x8, addend: 0x0, symName: __ZN7testing8internal13edit_distance12_GLOBAL__N_115InternalStrings5GetIdERKNSt3__112basic_stringIcNS4_11char_traitsIcEENS4_9allocatorIcEEEE, symObjAddr: 0x5C9C, symBinAddr: 0x10000EC60, symSize: 0xB0 }
  - { offsetInCU: 0x4B130, offset: 0x5FABD, size: 0x8, addend: 0x0, symName: __ZNKSt3__16vectorINS_12basic_stringIcNS_11char_traitsIcEENS_9allocatorIcEEEENS4_IS6_EEEixB7v160006Em, symObjAddr: 0x5D4C, symBinAddr: 0x10000ED10, symSize: 0x2C }
  - { offsetInCU: 0x4B167, offset: 0x5FAF4, size: 0x8, addend: 0x0, symName: __ZN7testing8internal13edit_distance12_GLOBAL__N_115InternalStringsD1Ev, symObjAddr: 0x5D78, symBinAddr: 0x10000ED3C, symSize: 0x2C }
  - { offsetInCU: 0x4B194, offset: 0x5FB21, size: 0x8, addend: 0x0, symName: __ZNSt3__16vectorImNS_9allocatorImEEED1B7v160006Ev, symObjAddr: 0x5DA4, symBinAddr: 0x10000ED68, symSize: 0x2C }
  - { offsetInCU: 0x4B1BE, offset: 0x5FB4B, size: 0x8, addend: 0x0, symName: __ZNKSt3__16vectorIN7testing8internal13edit_distance8EditTypeENS_9allocatorIS4_EEE4sizeB7v160006Ev, symObjAddr: 0x6344, symBinAddr: 0x10000F308, symSize: 0x28 }
  - { offsetInCU: 0x4B1E4, offset: 0x5FB71, size: 0x8, addend: 0x0, symName: __ZNKSt3__16vectorIN7testing8internal13edit_distance8EditTypeENS_9allocatorIS4_EEEixB7v160006Em, symObjAddr: 0x636C, symBinAddr: 0x10000F330, symSize: 0x24 }
  - { offsetInCU: 0x4B40A, offset: 0x5FD97, size: 0x8, addend: 0x0, symName: __ZN7testing8internal13edit_distance12_GLOBAL__N_14HunkC1Emm, symObjAddr: 0x63BC, symBinAddr: 0x10000F380, symSize: 0x3C }
  - { offsetInCU: 0x4B452, offset: 0x5FDDF, size: 0x8, addend: 0x0, symName: __ZN7testing8internal13edit_distance12_GLOBAL__N_14Hunk8PushLineEcPKc, symObjAddr: 0x63F8, symBinAddr: 0x10000F3BC, symSize: 0x158 }
  - { offsetInCU: 0x4B496, offset: 0x5FE23, size: 0x8, addend: 0x0, symName: __ZNKSt3__16vectorIN7testing8internal13edit_distance8EditTypeENS_9allocatorIS4_EEE5beginB7v160006Ev, symObjAddr: 0x6550, symBinAddr: 0x10000F514, symSize: 0x30 }
  - { offsetInCU: 0x4B4BE, offset: 0x5FE4B, size: 0x8, addend: 0x0, symName: __ZNKSt3__111__wrap_iterIPKN7testing8internal13edit_distance8EditTypeEEplB7v160006El, symObjAddr: 0x6580, symBinAddr: 0x10000F544, symSize: 0x3C }
  - { offsetInCU: 0x4B501, offset: 0x5FE8E, size: 0x8, addend: 0x0, symName: __ZNKSt3__16vectorIN7testing8internal13edit_distance8EditTypeENS_9allocatorIS4_EEE3endB7v160006Ev, symObjAddr: 0x65F0, symBinAddr: 0x10000F5B4, symSize: 0x30 }
  - { offsetInCU: 0x4B529, offset: 0x5FEB6, size: 0x8, addend: 0x0, symName: __ZNKSt3__111__wrap_iterIPKN7testing8internal13edit_distance8EditTypeEEdeB7v160006Ev, symObjAddr: 0x6620, symBinAddr: 0x10000F5E4, symSize: 0x18 }
  - { offsetInCU: 0x4B54F, offset: 0x5FEDC, size: 0x8, addend: 0x0, symName: __ZNSt3__111__wrap_iterIPKN7testing8internal13edit_distance8EditTypeEEppB7v160006Ev, symObjAddr: 0x6638, symBinAddr: 0x10000F5FC, symSize: 0x20 }
  - { offsetInCU: 0x4B575, offset: 0x5FF02, size: 0x8, addend: 0x0, symName: __ZNK7testing8internal13edit_distance12_GLOBAL__N_14Hunk9has_editsEv, symObjAddr: 0x66E8, symBinAddr: 0x10000F6AC, symSize: 0x54 }
  - { offsetInCU: 0x4B59B, offset: 0x5FF28, size: 0x8, addend: 0x0, symName: __ZN7testing8internal13edit_distance12_GLOBAL__N_14Hunk7PrintToEPNSt3__113basic_ostreamIcNS4_11char_traitsIcEEEE, symObjAddr: 0x673C, symBinAddr: 0x10000F700, symSize: 0xEC }
  - { offsetInCU: 0x4B5EE, offset: 0x5FF7B, size: 0x8, addend: 0x0, symName: __ZN7testing8internal13edit_distance12_GLOBAL__N_14HunkD1Ev, symObjAddr: 0x6828, symBinAddr: 0x10000F7EC, symSize: 0x2C }
  - { offsetInCU: 0x4B61B, offset: 0x5FFA8, size: 0x8, addend: 0x0, symName: __ZNKSt3__118basic_stringstreamIcNS_11char_traitsIcEENS_9allocatorIcEEE3strB7v160006Ev, symObjAddr: 0x6854, symBinAddr: 0x10000F818, symSize: 0x30 }
  - { offsetInCU: 0x4B646, offset: 0x5FFD3, size: 0x8, addend: 0x0, symName: __ZNSt3__118basic_stringstreamIcNS_11char_traitsIcEENS_9allocatorIcEEED1Ev, symObjAddr: 0x6884, symBinAddr: 0x10000F848, symSize: 0x40 }
  - { offsetInCU: 0x4B689, offset: 0x60016, size: 0x8, addend: 0x0, symName: __ZN7testing7MessagelsIA35_cEERS0_RKT_, symObjAddr: 0x6BAC, symBinAddr: 0x10000FB70, symSize: 0x3C }
  - { offsetInCU: 0x4B6E3, offset: 0x60070, size: 0x8, addend: 0x0, symName: __ZN7testing7MessagelsIA4_cEERS0_RKT_, symObjAddr: 0x6BE8, symBinAddr: 0x10000FBAC, symSize: 0x3C }
  - { offsetInCU: 0x4B72C, offset: 0x600B9, size: 0x8, addend: 0x0, symName: __ZN7testing7MessagelsIKcEERS0_RKPT_, symObjAddr: 0x6C24, symBinAddr: 0x10000FBE8, symSize: 0x7C }
  - { offsetInCU: 0x4B77F, offset: 0x6010C, size: 0x8, addend: 0x0, symName: __ZN7testing7MessagelsIA16_cEERS0_RKT_, symObjAddr: 0x6CD4, symBinAddr: 0x10000FC98, symSize: 0x3C }
  - { offsetInCU: 0x4B7D9, offset: 0x60166, size: 0x8, addend: 0x0, symName: __ZN7testing7MessagelsIA15_cEERS0_RKT_, symObjAddr: 0x6D10, symBinAddr: 0x10000FCD4, symSize: 0x3C }
  - { offsetInCU: 0x4B833, offset: 0x601C0, size: 0x8, addend: 0x0, symName: __ZN7testing7MessagelsIA13_cEERS0_RKT_, symObjAddr: 0x6FAC, symBinAddr: 0x10000FF70, symSize: 0x3C }
  - { offsetInCU: 0x4B877, offset: 0x60204, size: 0x8, addend: 0x0, symName: __ZNK7testing15AssertionResult7messageEv, symObjAddr: 0x7140, symBinAddr: 0x100010104, symSize: 0x68 }
  - { offsetInCU: 0x4B8B3, offset: 0x60240, size: 0x8, addend: 0x0, symName: __ZN7testing7MessagelsIA11_cEERS0_RKT_, symObjAddr: 0x71A8, symBinAddr: 0x10001016C, symSize: 0x3C }
  - { offsetInCU: 0x4B90D, offset: 0x6029A, size: 0x8, addend: 0x0, symName: __ZN7testing7MessagelsIA12_cEERS0_RKT_, symObjAddr: 0x71E4, symBinAddr: 0x1000101A8, symSize: 0x3C }
  - { offsetInCU: 0x4B967, offset: 0x602F4, size: 0x8, addend: 0x0, symName: __ZN7testing7MessagelsIA3_cEERS0_RKT_, symObjAddr: 0x7220, symBinAddr: 0x1000101E4, symSize: 0x3C }
  - { offsetInCU: 0x4B9C1, offset: 0x6034E, size: 0x8, addend: 0x0, symName: __ZN7testing7MessagelsIA2_cEERS0_RKT_, symObjAddr: 0x725C, symBinAddr: 0x100010220, symSize: 0x3C }
  - { offsetInCU: 0x4BA1B, offset: 0x603A8, size: 0x8, addend: 0x0, symName: __ZN7testing15AssertionResultlsIA24_cEERS0_RKT_, symObjAddr: 0x7524, symBinAddr: 0x1000104E8, symSize: 0x84 }
  - { offsetInCU: 0x4BA59, offset: 0x603E6, size: 0x8, addend: 0x0, symName: __ZN7testing15AssertionResultlsIPKcEERS0_RKT_, symObjAddr: 0x75A8, symBinAddr: 0x10001056C, symSize: 0x84 }
  - { offsetInCU: 0x4BAAD, offset: 0x6043A, size: 0x8, addend: 0x0, symName: __ZN7testing15AssertionResultlsIA6_cEERS0_RKT_, symObjAddr: 0x762C, symBinAddr: 0x1000105F0, symSize: 0x84 }
  - { offsetInCU: 0x4BB01, offset: 0x6048E, size: 0x8, addend: 0x0, symName: __ZN7testing15AssertionResultlsIA5_cEERS0_RKT_, symObjAddr: 0x76B0, symBinAddr: 0x100010674, symSize: 0x84 }
  - { offsetInCU: 0x4BB3F, offset: 0x604CC, size: 0x8, addend: 0x0, symName: __ZN7testing15AssertionResultlsIdEERS0_RKT_, symObjAddr: 0x7734, symBinAddr: 0x1000106F8, symSize: 0x84 }
  - { offsetInCU: 0x4BB93, offset: 0x60520, size: 0x8, addend: 0x0, symName: __ZN7testing15AssertionResultlsIA17_cEERS0_RKT_, symObjAddr: 0x77B8, symBinAddr: 0x10001077C, symSize: 0x84 }
  - { offsetInCU: 0x4BBE7, offset: 0x60574, size: 0x8, addend: 0x0, symName: __ZN7testing15AssertionResultlsIA9_cEERS0_RKT_, symObjAddr: 0x783C, symBinAddr: 0x100010800, symSize: 0x84 }
  - { offsetInCU: 0x4BC25, offset: 0x605B2, size: 0x8, addend: 0x0, symName: __ZN7testing15AssertionResultlsIA15_cEERS0_RKT_, symObjAddr: 0x78C0, symBinAddr: 0x100010884, symSize: 0x84 }
  - { offsetInCU: 0x4BC63, offset: 0x605F0, size: 0x8, addend: 0x0, symName: __ZN7testing15AssertionResultlsIA3_cEERS0_RKT_, symObjAddr: 0x7944, symBinAddr: 0x100010908, symSize: 0x84 }
  - { offsetInCU: 0x4BCB7, offset: 0x60644, size: 0x8, addend: 0x0, symName: __ZN7testing15AssertionResultlsIA7_cEERS0_RKT_, symObjAddr: 0x79C8, symBinAddr: 0x10001098C, symSize: 0x84 }
  - { offsetInCU: 0x4BCF5, offset: 0x60682, size: 0x8, addend: 0x0, symName: __ZN7testing15AssertionResultlsIA2_cEERS0_RKT_, symObjAddr: 0x7A4C, symBinAddr: 0x100010A10, symSize: 0x84 }
  - { offsetInCU: 0x4BD33, offset: 0x606C0, size: 0x8, addend: 0x0, symName: __ZN7testing15AssertionResultlsIA12_cEERS0_RKT_, symObjAddr: 0x8450, symBinAddr: 0x100011414, symSize: 0x84 }
  - { offsetInCU: 0x4BD71, offset: 0x606FE, size: 0x8, addend: 0x0, symName: __ZN7testing8internal6String28CaseInsensitiveCStringEqualsEPKcS3_, symObjAddr: 0x8E70, symBinAddr: 0x100011E34, symSize: 0xA4 }
  - { offsetInCU: 0x4BDA7, offset: 0x60734, size: 0x8, addend: 0x0, symName: __ZN7testing15AssertionResultlsIA13_cEERS0_RKT_, symObjAddr: 0x9074, symBinAddr: 0x100012038, symSize: 0x84 }
  - { offsetInCU: 0x4BDFB, offset: 0x60788, size: 0x8, addend: 0x0, symName: __ZN7testing15AssertionResultlsIA29_cEERS0_RKT_, symObjAddr: 0x9258, symBinAddr: 0x10001221C, symSize: 0x84 }
  - { offsetInCU: 0x4BE39, offset: 0x607C6, size: 0x8, addend: 0x0, symName: __ZN7testing8internal6String12FormatHexIntEi, symObjAddr: 0xA130, symBinAddr: 0x1000130B0, symSize: 0xB4 }
  - { offsetInCU: 0x4BE6F, offset: 0x607FC, size: 0x8, addend: 0x0, symName: __ZN7testing8internal6String17WideCStringEqualsEPKwS3_, symObjAddr: 0xA49C, symBinAddr: 0x1000133D0, symSize: 0xA4 }
  - { offsetInCU: 0x4BEA5, offset: 0x60832, size: 0x8, addend: 0x0, symName: __ZN7testing8internal6String32CaseInsensitiveWideCStringEqualsEPKwS3_, symObjAddr: 0xA8D8, symBinAddr: 0x10001380C, symSize: 0x118 }
  - { offsetInCU: 0x4BEF9, offset: 0x60886, size: 0x8, addend: 0x0, symName: __ZN7testing8internal6String23EndsWithCaseInsensitiveERKNSt3__112basic_stringIcNS2_11char_traitsIcEENS2_9allocatorIcEEEESA_, symObjAddr: 0xAA14, symBinAddr: 0x100013948, symSize: 0x98 }
  - { offsetInCU: 0x4BF4D, offset: 0x608DA, size: 0x8, addend: 0x0, symName: __ZNKSt3__112basic_stringIcNS_11char_traitsIcEENS_9allocatorIcEEE6lengthB7v160006Ev, symObjAddr: 0xAAAC, symBinAddr: 0x1000139E0, symSize: 0x24 }
  - { offsetInCU: 0x4BF73, offset: 0x60900, size: 0x8, addend: 0x0, symName: __ZN7testing8internal6String15FormatIntWidth2Ei, symObjAddr: 0xAAD0, symBinAddr: 0x100013A04, symSize: 0xD8 }
  - { offsetInCU: 0x4BFAA, offset: 0x60937, size: 0x8, addend: 0x0, symName: __ZNSt3__113basic_ostreamIcNS_11char_traitsIcEEElsB7v160006EPFRNS_8ios_baseES5_E, symObjAddr: 0xAC80, symBinAddr: 0x100013BB4, symSize: 0x40 }
  - { offsetInCU: 0x4BFDE, offset: 0x6096B, size: 0x8, addend: 0x0, symName: __ZN7testing8internal6String10FormatByteEh, symObjAddr: 0xAD1C, symBinAddr: 0x100013C50, symSize: 0x108 }
  - { offsetInCU: 0x4C015, offset: 0x609A2, size: 0x8, addend: 0x0, symName: __ZNSt3__112basic_stringIcNS_11char_traitsIcEENS_9allocatorIcEEEpLB7v160006EPKc, symObjAddr: 0xAE24, symBinAddr: 0x100013D58, symSize: 0x2C }
  - { offsetInCU: 0x4C04A, offset: 0x609D7, size: 0x8, addend: 0x0, symName: __ZNSt3__112basic_stringIcNS_11char_traitsIcEENS_9allocatorIcEEEpLB7v160006Ec, symObjAddr: 0xAE50, symBinAddr: 0x100013D84, symSize: 0x34 }
  - { offsetInCU: 0x4C07F, offset: 0x60A0C, size: 0x8, addend: 0x0, symName: __ZN7testing10TestResultC2Ev, symObjAddr: 0xAEC4, symBinAddr: 0x100013DF8, symSize: 0x4C }
  - { offsetInCU: 0x4C0AC, offset: 0x60A39, size: 0x8, addend: 0x0, symName: __ZN7testing8internal5MutexC1Ev, symObjAddr: 0xAF10, symBinAddr: 0x100013E44, symSize: 0x2C }
  - { offsetInCU: 0x4C0D6, offset: 0x60A63, size: 0x8, addend: 0x0, symName: __ZNSt3__16vectorIN7testing14TestPartResultENS_9allocatorIS2_EEEC1B7v160006Ev, symObjAddr: 0xAF3C, symBinAddr: 0x100013E70, symSize: 0x2C }
  - { offsetInCU: 0x4C100, offset: 0x60A8D, size: 0x8, addend: 0x0, symName: __ZNSt3__16vectorIN7testing12TestPropertyENS_9allocatorIS2_EEEC1B7v160006Ev, symObjAddr: 0xAF68, symBinAddr: 0x100013E9C, symSize: 0x2C }
  - { offsetInCU: 0x4C12A, offset: 0x60AB7, size: 0x8, addend: 0x0, symName: __ZN7testing10TestResultC1Ev, symObjAddr: 0xAF94, symBinAddr: 0x100013EC8, symSize: 0x2C }
  - { offsetInCU: 0x4C157, offset: 0x60AE4, size: 0x8, addend: 0x0, symName: __ZN7testing10TestResultD2Ev, symObjAddr: 0xAFC0, symBinAddr: 0x100013EF4, symSize: 0x44 }
  - { offsetInCU: 0x4C184, offset: 0x60B11, size: 0x8, addend: 0x0, symName: __ZNSt3__16vectorIN7testing12TestPropertyENS_9allocatorIS2_EEED1B7v160006Ev, symObjAddr: 0xB004, symBinAddr: 0x100013F38, symSize: 0x2C }
  - { offsetInCU: 0x4C1AE, offset: 0x60B3B, size: 0x8, addend: 0x0, symName: __ZNSt3__16vectorIN7testing14TestPartResultENS_9allocatorIS2_EEED1B7v160006Ev, symObjAddr: 0xB030, symBinAddr: 0x100013F64, symSize: 0x2C }
  - { offsetInCU: 0x4C1D8, offset: 0x60B65, size: 0x8, addend: 0x0, symName: __ZN7testing8internal5MutexD1Ev, symObjAddr: 0xB05C, symBinAddr: 0x100013F90, symSize: 0x2C }
  - { offsetInCU: 0x4C202, offset: 0x60B8F, size: 0x8, addend: 0x0, symName: __ZN7testing10TestResultD1Ev, symObjAddr: 0xB088, symBinAddr: 0x100013FBC, symSize: 0x2C }
  - { offsetInCU: 0x4C22F, offset: 0x60BBC, size: 0x8, addend: 0x0, symName: __ZNK7testing10TestResult17GetTestPartResultEi, symObjAddr: 0xB0B4, symBinAddr: 0x100013FE8, symSize: 0x74 }
  - { offsetInCU: 0x4C267, offset: 0x60BF4, size: 0x8, addend: 0x0, symName: __ZNK7testing10TestResult16total_part_countEv, symObjAddr: 0xB128, symBinAddr: 0x10001405C, symSize: 0x28 }
  - { offsetInCU: 0x4C290, offset: 0x60C1D, size: 0x8, addend: 0x0, symName: __ZNKSt3__16vectorIN7testing14TestPartResultENS_9allocatorIS2_EEE2atEm, symObjAddr: 0xB15C, symBinAddr: 0x100014090, symSize: 0x68 }
  - { offsetInCU: 0x4C2C7, offset: 0x60C54, size: 0x8, addend: 0x0, symName: __ZNK7testing10TestResult15GetTestPropertyEi, symObjAddr: 0xB1C4, symBinAddr: 0x1000140F8, symSize: 0x74 }
  - { offsetInCU: 0x4C2FF, offset: 0x60C8C, size: 0x8, addend: 0x0, symName: __ZNK7testing10TestResult19test_property_countEv, symObjAddr: 0xB238, symBinAddr: 0x10001416C, symSize: 0x28 }
  - { offsetInCU: 0x4C328, offset: 0x60CB5, size: 0x8, addend: 0x0, symName: __ZNKSt3__16vectorIN7testing12TestPropertyENS_9allocatorIS2_EEE2atEm, symObjAddr: 0xB260, symBinAddr: 0x100014194, symSize: 0x68 }
  - { offsetInCU: 0x4C35F, offset: 0x60CEC, size: 0x8, addend: 0x0, symName: __ZN7testing10TestResult20ClearTestPartResultsEv, symObjAddr: 0xB2C8, symBinAddr: 0x1000141FC, symSize: 0x28 }
  - { offsetInCU: 0x4C388, offset: 0x60D15, size: 0x8, addend: 0x0, symName: __ZNSt3__16vectorIN7testing14TestPartResultENS_9allocatorIS2_EEE5clearB7v160006Ev, symObjAddr: 0xB2F0, symBinAddr: 0x100014224, symSize: 0x54 }
  - { offsetInCU: 0x4C3BD, offset: 0x60D4A, size: 0x8, addend: 0x0, symName: __ZNSt3__16vectorIN7testing14TestPartResultENS_9allocatorIS2_EEE9push_backB7v160006ERKS2_, symObjAddr: 0xB344, symBinAddr: 0x100014278, symSize: 0x6C }
  - { offsetInCU: 0x4C3F4, offset: 0x60D81, size: 0x8, addend: 0x0, symName: __ZN7testing10TestResult14RecordPropertyERKNSt3__112basic_stringIcNS1_11char_traitsIcEENS1_9allocatorIcEEEERKNS_12TestPropertyE, symObjAddr: 0xB3B0, symBinAddr: 0x1000142E4, symSize: 0x1E4 }
  - { offsetInCU: 0x4C459, offset: 0x60DE6, size: 0x8, addend: 0x0, symName: __ZN7testing10TestResult20ValidateTestPropertyERKNSt3__112basic_stringIcNS1_11char_traitsIcEENS1_9allocatorIcEEEERKNS_12TestPropertyE, symObjAddr: 0xB594, symBinAddr: 0x1000144C8, symSize: 0xAC }
  - { offsetInCU: 0x4C48F, offset: 0x60E1C, size: 0x8, addend: 0x0, symName: __ZNSt3__16vectorIN7testing12TestPropertyENS_9allocatorIS2_EEE5beginB7v160006Ev, symObjAddr: 0xB6BC, symBinAddr: 0x1000145F0, symSize: 0x30 }
  - { offsetInCU: 0x4C4B7, offset: 0x60E44, size: 0x8, addend: 0x0, symName: __ZNSt3__16vectorIN7testing12TestPropertyENS_9allocatorIS2_EEE3endB7v160006Ev, symObjAddr: 0xB6EC, symBinAddr: 0x100014620, symSize: 0x30 }
  - { offsetInCU: 0x4C4DF, offset: 0x60E6C, size: 0x8, addend: 0x0, symName: __ZNK7testing12TestProperty3keyEv, symObjAddr: 0xB71C, symBinAddr: 0x100014650, symSize: 0x24 }
  - { offsetInCU: 0x4C505, offset: 0x60E92, size: 0x8, addend: 0x0, symName: __ZN7testing8internal17TestPropertyKeyIsC1ERKNSt3__112basic_stringIcNS2_11char_traitsIcEENS2_9allocatorIcEEEE, symObjAddr: 0xB740, symBinAddr: 0x100014674, symSize: 0x34 }
  - { offsetInCU: 0x4C53E, offset: 0x60ECB, size: 0x8, addend: 0x0, symName: __ZN7testing8internal17TestPropertyKeyIsD1Ev, symObjAddr: 0xB774, symBinAddr: 0x1000146A8, symSize: 0x2C }
  - { offsetInCU: 0x4C56B, offset: 0x60EF8, size: 0x8, addend: 0x0, symName: __ZNSt3__16vectorIN7testing12TestPropertyENS_9allocatorIS2_EEE9push_backB7v160006ERKS2_, symObjAddr: 0xB7E8, symBinAddr: 0x10001471C, symSize: 0x6C }
  - { offsetInCU: 0x4C5A2, offset: 0x60F2F, size: 0x8, addend: 0x0, symName: __ZNKSt3__111__wrap_iterIPN7testing12TestPropertyEEptB7v160006Ev, symObjAddr: 0xB854, symBinAddr: 0x100014788, symSize: 0x28 }
  - { offsetInCU: 0x4C5C8, offset: 0x60F55, size: 0x8, addend: 0x0, symName: __ZN7testing12TestProperty8SetValueERKNSt3__112basic_stringIcNS1_11char_traitsIcEENS1_9allocatorIcEEEE, symObjAddr: 0xB87C, symBinAddr: 0x1000147B0, symSize: 0x30 }
  - { offsetInCU: 0x4C5FD, offset: 0x60F8A, size: 0x8, addend: 0x0, symName: __ZNK7testing12TestProperty5valueEv, symObjAddr: 0xB8AC, symBinAddr: 0x1000147E0, symSize: 0x28 }
  - { offsetInCU: 0x4C623, offset: 0x60FB0, size: 0x8, addend: 0x0, symName: __ZN7testing10TestResult5ClearEv, symObjAddr: 0xBC40, symBinAddr: 0x100014B74, symSize: 0x44 }
  - { offsetInCU: 0x4C64C, offset: 0x60FD9, size: 0x8, addend: 0x0, symName: __ZNSt3__16vectorIN7testing12TestPropertyENS_9allocatorIS2_EEE5clearB7v160006Ev, symObjAddr: 0xBC84, symBinAddr: 0x100014BB8, symSize: 0x4C }
  - { offsetInCU: 0x4C681, offset: 0x6100E, size: 0x8, addend: 0x0, symName: __ZNK7testing10TestResult7SkippedEv, symObjAddr: 0xBCD0, symBinAddr: 0x100014C04, symSize: 0x64 }
  - { offsetInCU: 0x4C6AA, offset: 0x61037, size: 0x8, addend: 0x0, symName: __ZNK7testing10TestResult6FailedEv, symObjAddr: 0xBD34, symBinAddr: 0x100014C68, symSize: 0xAC }
  - { offsetInCU: 0x4C6F1, offset: 0x6107E, size: 0x8, addend: 0x0, symName: __ZNK7testing14TestPartResult6failedEv, symObjAddr: 0xBEA0, symBinAddr: 0x100014DD4, symSize: 0x50 }
  - { offsetInCU: 0x4C717, offset: 0x610A4, size: 0x8, addend: 0x0, symName: __ZNK7testing10TestResult15HasFatalFailureEv, symObjAddr: 0xBEF0, symBinAddr: 0x100014E24, symSize: 0x3C }
  - { offsetInCU: 0x4C740, offset: 0x610CD, size: 0x8, addend: 0x0, symName: __ZNK7testing10TestResult18HasNonfatalFailureEv, symObjAddr: 0xBF54, symBinAddr: 0x100014E88, symSize: 0x3C }
  - { offsetInCU: 0x4C769, offset: 0x610F6, size: 0x8, addend: 0x0, symName: __ZNKSt3__16vectorIN7testing14TestPartResultENS_9allocatorIS2_EEE4sizeB7v160006Ev, symObjAddr: 0xBFB8, symBinAddr: 0x100014EEC, symSize: 0x28 }
  - { offsetInCU: 0x4C78F, offset: 0x6111C, size: 0x8, addend: 0x0, symName: __ZNKSt3__16vectorIN7testing12TestPropertyENS_9allocatorIS2_EEE4sizeB7v160006Ev, symObjAddr: 0xBFE0, symBinAddr: 0x100014F14, symSize: 0x28 }
  - { offsetInCU: 0x4C7B5, offset: 0x61142, size: 0x8, addend: 0x0, symName: __ZN7testing4TestC2Ev, symObjAddr: 0xC008, symBinAddr: 0x100014F3C, symSize: 0x80 }
  - { offsetInCU: 0x4C7E2, offset: 0x6116F, size: 0x8, addend: 0x0, symName: __ZN7testing8internal14GTestFlagSaverC1Ev, symObjAddr: 0xC088, symBinAddr: 0x100014FBC, symSize: 0x2C }
  - { offsetInCU: 0x4C80C, offset: 0x61199, size: 0x8, addend: 0x0, symName: __ZNSt3__110unique_ptrIN7testing8internal14GTestFlagSaverENS_14default_deleteIS3_EEEC1B7v160006ILb1EvEEPS3_, symObjAddr: 0xC0B4, symBinAddr: 0x100014FE8, symSize: 0x34 }
  - { offsetInCU: 0x4C84F, offset: 0x611DC, size: 0x8, addend: 0x0, symName: __ZN7testing4TestD2Ev, symObjAddr: 0xC0E8, symBinAddr: 0x10001501C, symSize: 0x40 }
  - { offsetInCU: 0x4C87C, offset: 0x61209, size: 0x8, addend: 0x0, symName: __ZNSt3__110unique_ptrIN7testing8internal14GTestFlagSaverENS_14default_deleteIS3_EEED1B7v160006Ev, symObjAddr: 0xC128, symBinAddr: 0x10001505C, symSize: 0x2C }
  - { offsetInCU: 0x4C8A6, offset: 0x61233, size: 0x8, addend: 0x0, symName: __ZN7testing4TestD1Ev, symObjAddr: 0xC154, symBinAddr: 0x100015088, symSize: 0x14 }
  - { offsetInCU: 0x4C8D3, offset: 0x61260, size: 0x8, addend: 0x0, symName: __ZN7testing4TestD0Ev, symObjAddr: 0xC168, symBinAddr: 0x10001509C, symSize: 0xC }
  - { offsetInCU: 0x4C900, offset: 0x6128D, size: 0x8, addend: 0x0, symName: __ZN7testing4Test5SetUpEv, symObjAddr: 0xC174, symBinAddr: 0x1000150A8, symSize: 0x10 }
  - { offsetInCU: 0x4C929, offset: 0x612B6, size: 0x8, addend: 0x0, symName: __ZN7testing4Test8TearDownEv, symObjAddr: 0xC184, symBinAddr: 0x1000150B8, symSize: 0x10 }
  - { offsetInCU: 0x4C952, offset: 0x612DF, size: 0x8, addend: 0x0, symName: __ZN7testing4Test14RecordPropertyERKNSt3__112basic_stringIcNS1_11char_traitsIcEENS1_9allocatorIcEEEES9_, symObjAddr: 0xC194, symBinAddr: 0x1000150C8, symSize: 0x30 }
  - { offsetInCU: 0x4C988, offset: 0x61315, size: 0x8, addend: 0x0, symName: __ZN7testing8UnitTest14RecordPropertyERKNSt3__112basic_stringIcNS1_11char_traitsIcEENS1_9allocatorIcEEEES9_, symObjAddr: 0xC1C4, symBinAddr: 0x1000150F8, symSize: 0x7C }
  - { offsetInCU: 0x4C9CF, offset: 0x6135C, size: 0x8, addend: 0x0, symName: __ZN7testing4Test14RecordPropertyERKNSt3__112basic_stringIcNS1_11char_traitsIcEENS1_9allocatorIcEEEEi, symObjAddr: 0xC240, symBinAddr: 0x100015174, symSize: 0xF4 }
  - { offsetInCU: 0x4CA14, offset: 0x613A1, size: 0x8, addend: 0x0, symName: __ZN7testing7MessagelsIiEERS0_RKT_, symObjAddr: 0xC334, symBinAddr: 0x100015268, symSize: 0x40 }
  - { offsetInCU: 0x4CA58, offset: 0x613E5, size: 0x8, addend: 0x0, symName: __ZN7testing4Test19HasSameFixtureClassEv, symObjAddr: 0xC408, symBinAddr: 0x10001533C, symSize: 0x52C }
  - { offsetInCU: 0x4CB37, offset: 0x614C4, size: 0x8, addend: 0x0, symName: __ZNK7testing8internal12UnitTestImpl17current_test_caseEv, symObjAddr: 0xC934, symBinAddr: 0x100015868, symSize: 0x18 }
  - { offsetInCU: 0x4CB5D, offset: 0x614EA, size: 0x8, addend: 0x0, symName: __ZNK7testing8TestCase14test_info_listEv, symObjAddr: 0xC94C, symBinAddr: 0x100015880, symSize: 0x18 }
  - { offsetInCU: 0x4CB83, offset: 0x61510, size: 0x8, addend: 0x0, symName: __ZNKSt3__16vectorIPN7testing8TestInfoENS_9allocatorIS3_EEEixB7v160006Em, symObjAddr: 0xC964, symBinAddr: 0x100015898, symSize: 0x24 }
  - { offsetInCU: 0x4CBBA, offset: 0x61547, size: 0x8, addend: 0x0, symName: __ZNK7testing8TestInfo4nameEv, symObjAddr: 0xC988, symBinAddr: 0x1000158BC, symSize: 0x28 }
  - { offsetInCU: 0x4CBE0, offset: 0x6156D, size: 0x8, addend: 0x0, symName: __ZN7testing8internal12UnitTestImpl17current_test_infoEv, symObjAddr: 0xC9B0, symBinAddr: 0x1000158E4, symSize: 0x18 }
  - { offsetInCU: 0x4CC1C, offset: 0x615A9, size: 0x8, addend: 0x0, symName: __ZN7testing7MessagelsIA64_cEERS0_RKT_, symObjAddr: 0xC9C8, symBinAddr: 0x1000158FC, symSize: 0x3C }
  - { offsetInCU: 0x4CC76, offset: 0x61603, size: 0x8, addend: 0x0, symName: __ZN7testing7MessagelsIA59_cEERS0_RKT_, symObjAddr: 0xCA04, symBinAddr: 0x100015938, symSize: 0x3C }
  - { offsetInCU: 0x4CCBA, offset: 0x61647, size: 0x8, addend: 0x0, symName: __ZN7testing7MessagelsIA24_cEERS0_RKT_, symObjAddr: 0xCA40, symBinAddr: 0x100015974, symSize: 0x3C }
  - { offsetInCU: 0x4CCFE, offset: 0x6168B, size: 0x8, addend: 0x0, symName: __ZNK7testing8TestInfo14test_case_nameEv, symObjAddr: 0xCA7C, symBinAddr: 0x1000159B0, symSize: 0x24 }
  - { offsetInCU: 0x4CD24, offset: 0x616B1, size: 0x8, addend: 0x0, symName: __ZN7testing7MessagelsIA6_cEERS0_RKT_, symObjAddr: 0xCAA0, symBinAddr: 0x1000159D4, symSize: 0x3C }
  - { offsetInCU: 0x4CD7E, offset: 0x6170B, size: 0x8, addend: 0x0, symName: __ZN7testing7MessagelsIA30_cEERS0_RKT_, symObjAddr: 0xCADC, symBinAddr: 0x100015A10, symSize: 0x3C }
  - { offsetInCU: 0x4CDD8, offset: 0x61765, size: 0x8, addend: 0x0, symName: __ZN7testing7MessagelsIA39_cEERS0_RKT_, symObjAddr: 0xCB18, symBinAddr: 0x100015A4C, symSize: 0x3C }
  - { offsetInCU: 0x4CE32, offset: 0x617BF, size: 0x8, addend: 0x0, symName: __ZN7testing7MessagelsIA62_cEERS0_RKT_, symObjAddr: 0xCB54, symBinAddr: 0x100015A88, symSize: 0x3C }
  - { offsetInCU: 0x4CE8C, offset: 0x61819, size: 0x8, addend: 0x0, symName: __ZN7testing7MessagelsIA31_cEERS0_RKT_, symObjAddr: 0xCB90, symBinAddr: 0x100015AC4, symSize: 0x3C }
  - { offsetInCU: 0x4CEE6, offset: 0x61873, size: 0x8, addend: 0x0, symName: __ZN7testing7MessagelsIA18_cEERS0_RKT_, symObjAddr: 0xCBCC, symBinAddr: 0x100015B00, symSize: 0x3C }
  - { offsetInCU: 0x4CF40, offset: 0x618CD, size: 0x8, addend: 0x0, symName: __ZN7testing7MessagelsIA63_cEERS0_RKT_, symObjAddr: 0xCC08, symBinAddr: 0x100015B3C, symSize: 0x3C }
  - { offsetInCU: 0x4CF84, offset: 0x61911, size: 0x8, addend: 0x0, symName: __ZN7testing8internal26GoogleTestFailureExceptionC2ERKNS_14TestPartResultE, symObjAddr: 0xCC44, symBinAddr: 0x100015B78, symSize: 0x94 }
  - { offsetInCU: 0x4CFC0, offset: 0x6194D, size: 0x8, addend: 0x0, symName: __ZN7testing8internal26GoogleTestFailureExceptionC1ERKNS_14TestPartResultE, symObjAddr: 0xCE28, symBinAddr: 0x100015D5C, symSize: 0x34 }
  - { offsetInCU: 0x4CFFC, offset: 0x61989, size: 0x8, addend: 0x0, symName: __ZN7testing4Test3RunEv, symObjAddr: 0xCE5C, symBinAddr: 0x100015D90, symSize: 0x110 }
  - { offsetInCU: 0x4D034, offset: 0x619C1, size: 0x8, addend: 0x0, symName: __ZN7testing4Test15HasFatalFailureEv, symObjAddr: 0xD1D0, symBinAddr: 0x100016104, symSize: 0x20 }
  - { offsetInCU: 0x4D04B, offset: 0x619D8, size: 0x8, addend: 0x0, symName: __ZN7testing4Test9IsSkippedEv, symObjAddr: 0xD1F0, symBinAddr: 0x100016124, symSize: 0x20 }
  - { offsetInCU: 0x4D062, offset: 0x619EF, size: 0x8, addend: 0x0, symName: __ZN7testing4Test18HasNonfatalFailureEv, symObjAddr: 0xD210, symBinAddr: 0x100016144, symSize: 0x20 }
  - { offsetInCU: 0x4D079, offset: 0x61A06, size: 0x8, addend: 0x0, symName: __ZN7testing8TestInfoC2ERKNSt3__112basic_stringIcNS1_11char_traitsIcEENS1_9allocatorIcEEEES9_PKcSB_NS_8internal12CodeLocationEPKvPNSC_15TestFactoryBaseE, symObjAddr: 0xD230, symBinAddr: 0x100016164, symSize: 0x2B0 }
  - { offsetInCU: 0x4D111, offset: 0x61A9E, size: 0x8, addend: 0x0, symName: __ZNSt3__110unique_ptrIKNS_12basic_stringIcNS_11char_traitsIcEENS_9allocatorIcEEEENS_14default_deleteIS7_EEEC1B7v160006ILb1EvEEPS7_, symObjAddr: 0xD4E0, symBinAddr: 0x100016414, symSize: 0x34 }
  - { offsetInCU: 0x4D15E, offset: 0x61AEB, size: 0x8, addend: 0x0, symName: __ZN7testing8internal12CodeLocationC1ERKS1_, symObjAddr: 0xD514, symBinAddr: 0x100016448, symSize: 0x34 }
  - { offsetInCU: 0x4D194, offset: 0x61B21, size: 0x8, addend: 0x0, symName: __ZNSt3__110unique_ptrIKNS_12basic_stringIcNS_11char_traitsIcEENS_9allocatorIcEEEENS_14default_deleteIS7_EEED1B7v160006Ev, symObjAddr: 0xD574, symBinAddr: 0x10001647C, symSize: 0x2C }
  - { offsetInCU: 0x4D1BE, offset: 0x61B4B, size: 0x8, addend: 0x0, symName: __ZN7testing8TestInfoC1ERKNSt3__112basic_stringIcNS1_11char_traitsIcEENS1_9allocatorIcEEEES9_PKcSB_NS_8internal12CodeLocationEPKvPNSC_15TestFactoryBaseE, symObjAddr: 0xD5A0, symBinAddr: 0x1000164A8, symSize: 0x64 }
  - { offsetInCU: 0x4D255, offset: 0x61BE2, size: 0x8, addend: 0x0, symName: __ZN7testing8TestInfoD2Ev, symObjAddr: 0xD604, symBinAddr: 0x10001650C, symSize: 0xA0 }
  - { offsetInCU: 0x4D282, offset: 0x61C0F, size: 0x8, addend: 0x0, symName: __ZN7testing8TestInfoD1Ev, symObjAddr: 0xD6A4, symBinAddr: 0x1000165AC, symSize: 0x2C }
  - { offsetInCU: 0x4D2AF, offset: 0x61C3C, size: 0x8, addend: 0x0, symName: __ZN7testing8internal12UnitTestImpl11AddTestInfoEPFvvES3_PNS_8TestInfoE, symObjAddr: 0xD87C, symBinAddr: 0x100016784, symSize: 0x15C }
  - { offsetInCU: 0x4D318, offset: 0x61CA5, size: 0x8, addend: 0x0, symName: __ZN7testing7MessagelsIA37_cEERS0_RKT_, symObjAddr: 0xDC44, symBinAddr: 0x100016B4C, symSize: 0x3C }
  - { offsetInCU: 0x4D372, offset: 0x61CFF, size: 0x8, addend: 0x0, symName: __ZN7testing7MessagelsIA68_cEERS0_RKT_, symObjAddr: 0xDC80, symBinAddr: 0x100016B88, symSize: 0x3C }
  - { offsetInCU: 0x4D3B6, offset: 0x61D43, size: 0x8, addend: 0x0, symName: __ZN7testing8internal12UnitTestImpl26RegisterParameterizedTestsEv, symObjAddr: 0xDE4C, symBinAddr: 0x100016D54, symSize: 0x4C }
  - { offsetInCU: 0x4D3DF, offset: 0x61D6C, size: 0x8, addend: 0x0, symName: __ZN7testing8internal29ParameterizedTestCaseRegistry13RegisterTestsEv, symObjAddr: 0xDE98, symBinAddr: 0x100016DA0, symSize: 0x78 }
  - { offsetInCU: 0x4D423, offset: 0x61DB0, size: 0x8, addend: 0x0, symName: __ZN7testing8TestInfo3RunEv, symObjAddr: 0xDF10, symBinAddr: 0x100016E18, symSize: 0x168 }
  - { offsetInCU: 0x4D488, offset: 0x61E15, size: 0x8, addend: 0x0, symName: __ZN7testing8internal12UnitTestImpl21set_current_test_infoEPNS_8TestInfoE, symObjAddr: 0xE078, symBinAddr: 0x100016F80, symSize: 0x20 }
  - { offsetInCU: 0x4D4BD, offset: 0x61E4A, size: 0x8, addend: 0x0, symName: __ZN7testing8UnitTest9listenersEv, symObjAddr: 0xE098, symBinAddr: 0x100016FA0, symSize: 0x28 }
  - { offsetInCU: 0x4D4E6, offset: 0x61E73, size: 0x8, addend: 0x0, symName: __ZN7testing4Test11DeleteSelf_Ev, symObjAddr: 0xE33C, symBinAddr: 0x100017244, symSize: 0x48 }
  - { offsetInCU: 0x4D50C, offset: 0x61E99, size: 0x8, addend: 0x0, symName: __ZN7testing10TestResult16set_elapsed_timeEx, symObjAddr: 0xE384, symBinAddr: 0x10001728C, symSize: 0x20 }
  - { offsetInCU: 0x4D541, offset: 0x61ECE, size: 0x8, addend: 0x0, symName: __ZN7testing8TestCase10TestPassedEPKNS_8TestInfoE, symObjAddr: 0xE440, symBinAddr: 0x100017348, symSize: 0x50 }
  - { offsetInCU: 0x4D565, offset: 0x61EF2, size: 0x8, addend: 0x0, symName: __ZN7testing8TestCase11TestSkippedEPKNS_8TestInfoE, symObjAddr: 0xE490, symBinAddr: 0x100017398, symSize: 0x50 }
  - { offsetInCU: 0x4D589, offset: 0x61F16, size: 0x8, addend: 0x0, symName: __ZN7testing8TestCase10TestFailedEPKNS_8TestInfoE, symObjAddr: 0xE4E0, symBinAddr: 0x1000173E8, symSize: 0x50 }
  - { offsetInCU: 0x4D5AD, offset: 0x61F3A, size: 0x8, addend: 0x0, symName: __ZN7testing8TestCase22TestReportableDisabledEPKNS_8TestInfoE, symObjAddr: 0xE530, symBinAddr: 0x100017438, symSize: 0x4C }
  - { offsetInCU: 0x4D5D1, offset: 0x61F5E, size: 0x8, addend: 0x0, symName: __ZN7testing8TestCase12TestDisabledEPKNS_8TestInfoE, symObjAddr: 0xE57C, symBinAddr: 0x100017484, symSize: 0x1C }
  - { offsetInCU: 0x4D5F5, offset: 0x61F82, size: 0x8, addend: 0x0, symName: __ZN7testing8TestCase14TestReportableEPKNS_8TestInfoE, symObjAddr: 0xE598, symBinAddr: 0x1000174A0, symSize: 0x28 }
  - { offsetInCU: 0x4D619, offset: 0x61FA6, size: 0x8, addend: 0x0, symName: __ZN7testing8TestCase13ShouldRunTestEPKNS_8TestInfoE, symObjAddr: 0xE5C0, symBinAddr: 0x1000174C8, symSize: 0x28 }
  - { offsetInCU: 0x4D63D, offset: 0x61FCA, size: 0x8, addend: 0x0, symName: __ZNKSt3__16vectorIPN7testing8TestInfoENS_9allocatorIS3_EEE4sizeB7v160006Ev, symObjAddr: 0xE5E8, symBinAddr: 0x1000174F0, symSize: 0x28 }
  - { offsetInCU: 0x4D663, offset: 0x61FF0, size: 0x8, addend: 0x0, symName: __ZN7testing8TestCaseC2EPKcS2_PFvvES4_, symObjAddr: 0xE610, symBinAddr: 0x100017518, symSize: 0x1AC }
  - { offsetInCU: 0x4D6CC, offset: 0x62059, size: 0x8, addend: 0x0, symName: __ZNSt3__16vectorIPN7testing8TestInfoENS_9allocatorIS3_EEEC1B7v160006Ev, symObjAddr: 0xE7BC, symBinAddr: 0x1000176C4, symSize: 0x2C }
  - { offsetInCU: 0x4D6F6, offset: 0x62083, size: 0x8, addend: 0x0, symName: __ZNSt3__16vectorIiNS_9allocatorIiEEEC1B7v160006Ev, symObjAddr: 0xE7E8, symBinAddr: 0x1000176F0, symSize: 0x2C }
  - { offsetInCU: 0x4D720, offset: 0x620AD, size: 0x8, addend: 0x0, symName: __ZNSt3__16vectorIiNS_9allocatorIiEEED1B7v160006Ev, symObjAddr: 0xE814, symBinAddr: 0x10001771C, symSize: 0x2C }
  - { offsetInCU: 0x4D74A, offset: 0x620D7, size: 0x8, addend: 0x0, symName: __ZNSt3__16vectorIPN7testing8TestInfoENS_9allocatorIS3_EEED1B7v160006Ev, symObjAddr: 0xE840, symBinAddr: 0x100017748, symSize: 0x2C }
  - { offsetInCU: 0x4D774, offset: 0x62101, size: 0x8, addend: 0x0, symName: __ZN7testing8TestCaseC1EPKcS2_PFvvES4_, symObjAddr: 0xE86C, symBinAddr: 0x100017774, symSize: 0x4C }
  - { offsetInCU: 0x4D7DD, offset: 0x6216A, size: 0x8, addend: 0x0, symName: __ZN7testing8TestCaseD2Ev, symObjAddr: 0xE8B8, symBinAddr: 0x1000177C0, symSize: 0x8C }
  - { offsetInCU: 0x4D80A, offset: 0x62197, size: 0x8, addend: 0x0, symName: __ZN7testing8TestCaseD1Ev, symObjAddr: 0xE9D4, symBinAddr: 0x1000178DC, symSize: 0x2C }
  - { offsetInCU: 0x4D837, offset: 0x621C4, size: 0x8, addend: 0x0, symName: __ZN7testing8TestCaseD0Ev, symObjAddr: 0xEA00, symBinAddr: 0x100017908, symSize: 0x30 }
  - { offsetInCU: 0x4D864, offset: 0x621F1, size: 0x8, addend: 0x0, symName: __ZNK7testing8TestCase11GetTestInfoEi, symObjAddr: 0xEA30, symBinAddr: 0x100017938, symSize: 0x7C }
  - { offsetInCU: 0x4D8AB, offset: 0x62238, size: 0x8, addend: 0x0, symName: __ZN7testing8TestCase18GetMutableTestInfoEi, symObjAddr: 0xEB34, symBinAddr: 0x100017A3C, symSize: 0x7C }
  - { offsetInCU: 0x4D8F2, offset: 0x6227F, size: 0x8, addend: 0x0, symName: __ZNSt3__16vectorIPN7testing8TestInfoENS_9allocatorIS3_EEEixB7v160006Em, symObjAddr: 0xEBB0, symBinAddr: 0x100017AB8, symSize: 0x24 }
  - { offsetInCU: 0x4D929, offset: 0x622B6, size: 0x8, addend: 0x0, symName: __ZN7testing8TestCase11AddTestInfoEPNS_8TestInfoE, symObjAddr: 0xEBD4, symBinAddr: 0x100017ADC, symSize: 0x5C }
  - { offsetInCU: 0x4D961, offset: 0x622EE, size: 0x8, addend: 0x0, symName: __ZNSt3__16vectorIPN7testing8TestInfoENS_9allocatorIS3_EEE9push_backB7v160006ERKS3_, symObjAddr: 0xEC30, symBinAddr: 0x100017B38, symSize: 0x6C }
  - { offsetInCU: 0x4D998, offset: 0x62325, size: 0x8, addend: 0x0, symName: __ZNSt3__16vectorIiNS_9allocatorIiEEE9push_backB7v160006EOi, symObjAddr: 0xEC9C, symBinAddr: 0x100017BA4, symSize: 0x6C }
  - { offsetInCU: 0x4D9CF, offset: 0x6235C, size: 0x8, addend: 0x0, symName: __ZNKSt3__16vectorIiNS_9allocatorIiEEE4sizeB7v160006Ev, symObjAddr: 0xED08, symBinAddr: 0x100017C10, symSize: 0x28 }
  - { offsetInCU: 0x4D9F5, offset: 0x62382, size: 0x8, addend: 0x0, symName: __ZN7testing8TestCase3RunEv, symObjAddr: 0xED30, symBinAddr: 0x100017C38, symSize: 0x184 }
  - { offsetInCU: 0x4DA69, offset: 0x623F6, size: 0x8, addend: 0x0, symName: __ZN7testing8internal12UnitTestImpl21set_current_test_caseEPNS_8TestCaseE, symObjAddr: 0xEEB4, symBinAddr: 0x100017DBC, symSize: 0x20 }
  - { offsetInCU: 0x4DA9E, offset: 0x6242B, size: 0x8, addend: 0x0, symName: __ZN7testing8TestCase16RunSetUpTestCaseEv, symObjAddr: 0xF138, symBinAddr: 0x100018040, symSize: 0x28 }
  - { offsetInCU: 0x4DAC4, offset: 0x62451, size: 0x8, addend: 0x0, symName: __ZN7testing8TestCase19RunTearDownTestCaseEv, symObjAddr: 0xF160, symBinAddr: 0x100018068, symSize: 0x28 }
  - { offsetInCU: 0x4DAEA, offset: 0x62477, size: 0x8, addend: 0x0, symName: __ZN7testing8TestCase11ClearResultEv, symObjAddr: 0xF188, symBinAddr: 0x100018090, symSize: 0x40 }
  - { offsetInCU: 0x4DB13, offset: 0x624A0, size: 0x8, addend: 0x0, symName: __ZN7testing8TestInfo15ClearTestResultEPS0_, symObjAddr: 0xF1C8, symBinAddr: 0x1000180D0, symSize: 0x28 }
  - { offsetInCU: 0x4DB37, offset: 0x624C4, size: 0x8, addend: 0x0, symName: __ZN7testing8TestCase12ShuffleTestsEPNS_8internal6RandomE, symObjAddr: 0xF1F0, symBinAddr: 0x1000180F8, symSize: 0x30 }
  - { offsetInCU: 0x4DB6F, offset: 0x624FC, size: 0x8, addend: 0x0, symName: __ZN7testing8TestCase14UnshuffleTestsEv, symObjAddr: 0xF268, symBinAddr: 0x100018170, symSize: 0x88 }
  - { offsetInCU: 0x4DBB6, offset: 0x62543, size: 0x8, addend: 0x0, symName: __ZNSt3__16vectorIiNS_9allocatorIiEEEixB7v160006Em, symObjAddr: 0xF2F0, symBinAddr: 0x1000181F8, symSize: 0x24 }
  - { offsetInCU: 0x4DBF2, offset: 0x6257F, size: 0x8, addend: 0x0, symName: __ZN7testing8internal27PrettyUnitTestResultPrinter20OnTestIterationStartERKNS_8UnitTestEi, symObjAddr: 0xF818, symBinAddr: 0x100018720, symSize: 0x238 }
  - { offsetInCU: 0x4DC65, offset: 0x625F2, size: 0x8, addend: 0x0, symName: __ZNK7testing8UnitTest11random_seedEv, symObjAddr: 0x10188, symBinAddr: 0x100019090, symSize: 0x28 }
  - { offsetInCU: 0x4DC8E, offset: 0x6261B, size: 0x8, addend: 0x0, symName: __ZNK7testing8UnitTest17test_to_run_countEv, symObjAddr: 0x101EC, symBinAddr: 0x1000190F4, symSize: 0x28 }
  - { offsetInCU: 0x4DCB7, offset: 0x62644, size: 0x8, addend: 0x0, symName: __ZNK7testing8UnitTest22test_case_to_run_countEv, symObjAddr: 0x10250, symBinAddr: 0x100019158, symSize: 0x28 }
  - { offsetInCU: 0x4DCE0, offset: 0x6266D, size: 0x8, addend: 0x0, symName: __ZN7testing8internal27PrettyUnitTestResultPrinter24OnEnvironmentsSetUpStartERKNS_8UnitTestE, symObjAddr: 0x10278, symBinAddr: 0x100019180, symSize: 0x4C }
  - { offsetInCU: 0x4DD14, offset: 0x626A1, size: 0x8, addend: 0x0, symName: __ZN7testing8internal27PrettyUnitTestResultPrinter15OnTestCaseStartERKNS_8TestCaseE, symObjAddr: 0x102C4, symBinAddr: 0x1000191CC, symSize: 0x144 }
  - { offsetInCU: 0x4DD5A, offset: 0x626E7, size: 0x8, addend: 0x0, symName: __ZNK7testing8TestCase4nameEv, symObjAddr: 0x104F0, symBinAddr: 0x1000193F8, symSize: 0x28 }
  - { offsetInCU: 0x4DD80, offset: 0x6270D, size: 0x8, addend: 0x0, symName: __ZNK7testing8TestCase10type_paramEv, symObjAddr: 0x10518, symBinAddr: 0x100019420, symSize: 0x60 }
  - { offsetInCU: 0x4DDA6, offset: 0x62733, size: 0x8, addend: 0x0, symName: __ZN7testing8internal27PrettyUnitTestResultPrinter11OnTestStartERKNS_8TestInfoE, symObjAddr: 0x10578, symBinAddr: 0x100019480, symSize: 0x6C }
  - { offsetInCU: 0x4DDDD, offset: 0x6276A, size: 0x8, addend: 0x0, symName: __ZN7testing8internal27PrettyUnitTestResultPrinter13PrintTestNameEPKcS3_, symObjAddr: 0x105E4, symBinAddr: 0x1000194EC, symSize: 0x40 }
  - { offsetInCU: 0x4DE10, offset: 0x6279D, size: 0x8, addend: 0x0, symName: __ZN7testing8internal27PrettyUnitTestResultPrinter16OnTestPartResultERKNS_14TestPartResultE, symObjAddr: 0x10624, symBinAddr: 0x10001952C, symSize: 0x70 }
  - { offsetInCU: 0x4DE47, offset: 0x627D4, size: 0x8, addend: 0x0, symName: __ZNK7testing14TestPartResult4typeEv, symObjAddr: 0x10694, symBinAddr: 0x10001959C, symSize: 0x18 }
  - { offsetInCU: 0x4DE6D, offset: 0x627FA, size: 0x8, addend: 0x0, symName: __ZN7testing8internal27PrettyUnitTestResultPrinter9OnTestEndERKNS_8TestInfoE, symObjAddr: 0x1073C, symBinAddr: 0x100019644, symSize: 0x168 }
  - { offsetInCU: 0x4DEA4, offset: 0x62831, size: 0x8, addend: 0x0, symName: __ZNK7testing8TestInfo6resultEv, symObjAddr: 0x108A4, symBinAddr: 0x1000197AC, symSize: 0x18 }
  - { offsetInCU: 0x4DECA, offset: 0x62857, size: 0x8, addend: 0x0, symName: __ZNK7testing10TestResult6PassedEv, symObjAddr: 0x108BC, symBinAddr: 0x1000197C4, symSize: 0x54 }
  - { offsetInCU: 0x4DEF0, offset: 0x6287D, size: 0x8, addend: 0x0, symName: __ZNK7testing10TestResult12elapsed_timeEv, symObjAddr: 0x10A94, symBinAddr: 0x10001999C, symSize: 0x18 }
  - { offsetInCU: 0x4DF16, offset: 0x628A3, size: 0x8, addend: 0x0, symName: __ZN7testing8internal27PrettyUnitTestResultPrinter13OnTestCaseEndERKNS_8TestCaseE, symObjAddr: 0x10AAC, symBinAddr: 0x1000199B4, symSize: 0x140 }
  - { offsetInCU: 0x4DF5C, offset: 0x628E9, size: 0x8, addend: 0x0, symName: __ZNK7testing8TestCase12elapsed_timeEv, symObjAddr: 0x10BEC, symBinAddr: 0x100019AF4, symSize: 0x18 }
  - { offsetInCU: 0x4DF82, offset: 0x6290F, size: 0x8, addend: 0x0, symName: __ZN7testing8internal27PrettyUnitTestResultPrinter27OnEnvironmentsTearDownStartERKNS_8UnitTestE, symObjAddr: 0x10C04, symBinAddr: 0x100019B0C, symSize: 0x4C }
  - { offsetInCU: 0x4DFB6, offset: 0x62943, size: 0x8, addend: 0x0, symName: __ZN7testing8internal27PrettyUnitTestResultPrinter16PrintFailedTestsERKNS_8UnitTestE, symObjAddr: 0x10C50, symBinAddr: 0x100019B58, symSize: 0x188 }
  - { offsetInCU: 0x4E063, offset: 0x629F0, size: 0x8, addend: 0x0, symName: __ZNK7testing8UnitTest17failed_test_countEv, symObjAddr: 0x10DD8, symBinAddr: 0x100019CE0, symSize: 0x28 }
  - { offsetInCU: 0x4E08C, offset: 0x62A19, size: 0x8, addend: 0x0, symName: __ZNK7testing8UnitTest21total_test_case_countEv, symObjAddr: 0x10E00, symBinAddr: 0x100019D08, symSize: 0x28 }
  - { offsetInCU: 0x4E0B5, offset: 0x62A42, size: 0x8, addend: 0x0, symName: __ZNK7testing8UnitTest11GetTestCaseEi, symObjAddr: 0x10E28, symBinAddr: 0x100019D30, symSize: 0x30 }
  - { offsetInCU: 0x4E0ED, offset: 0x62A7A, size: 0x8, addend: 0x0, symName: __ZNK7testing8TestCase10should_runEv, symObjAddr: 0x10E58, symBinAddr: 0x100019D60, symSize: 0x1C }
  - { offsetInCU: 0x4E113, offset: 0x62AA0, size: 0x8, addend: 0x0, symName: __ZNK7testing8TestInfo10should_runEv, symObjAddr: 0x10E74, symBinAddr: 0x100019D7C, symSize: 0x1C }
  - { offsetInCU: 0x4E139, offset: 0x62AC6, size: 0x8, addend: 0x0, symName: __ZN7testing8internal27PrettyUnitTestResultPrinter17PrintSkippedTestsERKNS_8UnitTestE, symObjAddr: 0x10E90, symBinAddr: 0x100019D98, symSize: 0x180 }
  - { offsetInCU: 0x4E1E6, offset: 0x62B73, size: 0x8, addend: 0x0, symName: __ZNK7testing8UnitTest18skipped_test_countEv, symObjAddr: 0x11010, symBinAddr: 0x100019F18, symSize: 0x28 }
  - { offsetInCU: 0x4E20F, offset: 0x62B9C, size: 0x8, addend: 0x0, symName: __ZN7testing8internal27PrettyUnitTestResultPrinter18OnTestIterationEndERKNS_8UnitTestEi, symObjAddr: 0x11038, symBinAddr: 0x100019F40, symSize: 0x440 }
  - { offsetInCU: 0x4E2A1, offset: 0x62C2E, size: 0x8, addend: 0x0, symName: __ZNK7testing8UnitTest12elapsed_timeEv, symObjAddr: 0x11478, symBinAddr: 0x10001A380, symSize: 0x28 }
  - { offsetInCU: 0x4E2CE, offset: 0x62C5B, size: 0x8, addend: 0x0, symName: __ZNK7testing8UnitTest21successful_test_countEv, symObjAddr: 0x114A0, symBinAddr: 0x10001A3A8, symSize: 0x28 }
  - { offsetInCU: 0x4E2F7, offset: 0x62C84, size: 0x8, addend: 0x0, symName: __ZNK7testing8UnitTest6PassedEv, symObjAddr: 0x114C8, symBinAddr: 0x10001A3D0, symSize: 0x2C }
  - { offsetInCU: 0x4E320, offset: 0x62CAD, size: 0x8, addend: 0x0, symName: __ZNK7testing8UnitTest30reportable_disabled_test_countEv, symObjAddr: 0x114F4, symBinAddr: 0x10001A3FC, symSize: 0x28 }
  - { offsetInCU: 0x4E349, offset: 0x62CD6, size: 0x8, addend: 0x0, symName: __ZN7testing8internal17TestEventRepeaterD2Ev, symObjAddr: 0x1151C, symBinAddr: 0x10001A424, symSize: 0x64 }
  - { offsetInCU: 0x4E375, offset: 0x62D02, size: 0x8, addend: 0x0, symName: __ZNSt3__16vectorIPN7testing17TestEventListenerENS_9allocatorIS3_EEED1B7v160006Ev, symObjAddr: 0x11610, symBinAddr: 0x10001A518, symSize: 0x2C }
  - { offsetInCU: 0x4E39F, offset: 0x62D2C, size: 0x8, addend: 0x0, symName: __ZN7testing17TestEventListenerD2Ev, symObjAddr: 0x1163C, symBinAddr: 0x10001A544, symSize: 0x14 }
  - { offsetInCU: 0x4E3C9, offset: 0x62D56, size: 0x8, addend: 0x0, symName: __ZN7testing8internal17TestEventRepeaterD1Ev, symObjAddr: 0x11650, symBinAddr: 0x10001A558, symSize: 0x2C }
  - { offsetInCU: 0x4E3F5, offset: 0x62D82, size: 0x8, addend: 0x0, symName: __ZN7testing8internal17TestEventRepeaterD0Ev, symObjAddr: 0x1167C, symBinAddr: 0x10001A584, symSize: 0x30 }
  - { offsetInCU: 0x4E421, offset: 0x62DAE, size: 0x8, addend: 0x0, symName: __ZN7testing8internal17TestEventRepeater6AppendEPNS_17TestEventListenerE, symObjAddr: 0x116AC, symBinAddr: 0x10001A5B4, symSize: 0x34 }
  - { offsetInCU: 0x4E458, offset: 0x62DE5, size: 0x8, addend: 0x0, symName: __ZNSt3__16vectorIPN7testing17TestEventListenerENS_9allocatorIS3_EEE9push_backB7v160006ERKS3_, symObjAddr: 0x116E0, symBinAddr: 0x10001A5E8, symSize: 0x6C }
  - { offsetInCU: 0x4E48F, offset: 0x62E1C, size: 0x8, addend: 0x0, symName: __ZN7testing8internal17TestEventRepeater7ReleaseEPNS_17TestEventListenerE, symObjAddr: 0x1174C, symBinAddr: 0x10001A654, symSize: 0xFC }
  - { offsetInCU: 0x4E4E4, offset: 0x62E71, size: 0x8, addend: 0x0, symName: __ZNKSt3__16vectorIPN7testing17TestEventListenerENS_9allocatorIS3_EEE4sizeB7v160006Ev, symObjAddr: 0x11848, symBinAddr: 0x10001A750, symSize: 0x28 }
  - { offsetInCU: 0x4E50A, offset: 0x62E97, size: 0x8, addend: 0x0, symName: __ZNSt3__16vectorIPN7testing17TestEventListenerENS_9allocatorIS3_EEEixB7v160006Em, symObjAddr: 0x11870, symBinAddr: 0x10001A778, symSize: 0x24 }
  - { offsetInCU: 0x4E541, offset: 0x62ECE, size: 0x8, addend: 0x0, symName: __ZNSt3__16vectorIPN7testing17TestEventListenerENS_9allocatorIS3_EEE5eraseB7v160006ENS_11__wrap_iterIPKS3_EE, symObjAddr: 0x11894, symBinAddr: 0x10001A79C, symSize: 0xA4 }
  - { offsetInCU: 0x4E596, offset: 0x62F23, size: 0x8, addend: 0x0, symName: __ZNSt3__16vectorIPN7testing17TestEventListenerENS_9allocatorIS3_EEE5beginB7v160006Ev, symObjAddr: 0x11938, symBinAddr: 0x10001A840, symSize: 0x30 }
  - { offsetInCU: 0x4E5BE, offset: 0x62F4B, size: 0x8, addend: 0x0, symName: __ZNKSt3__111__wrap_iterIPPN7testing17TestEventListenerEEplB7v160006El, symObjAddr: 0x11968, symBinAddr: 0x10001A870, symSize: 0x3C }
  - { offsetInCU: 0x4E60B, offset: 0x62F98, size: 0x8, addend: 0x0, symName: __ZNSt3__111__wrap_iterIPKPN7testing17TestEventListenerEEC1B7v160006IPS3_EERKNS0_IT_EEPNS_9enable_ifIXsr14is_convertibleIS9_S5_EE5valueEvE4typeE, symObjAddr: 0x119A4, symBinAddr: 0x10001A8AC, symSize: 0x3C }
  - { offsetInCU: 0x4E657, offset: 0x62FE4, size: 0x8, addend: 0x0, symName: __ZN7testing8internal17TestEventRepeater18OnTestProgramStartERKNS_8UnitTestE, symObjAddr: 0x119E0, symBinAddr: 0x10001A8E8, symSize: 0xA0 }
  - { offsetInCU: 0x4E6AC, offset: 0x63039, size: 0x8, addend: 0x0, symName: __ZN7testing8internal17TestEventRepeater24OnEnvironmentsSetUpStartERKNS_8UnitTestE, symObjAddr: 0x11A80, symBinAddr: 0x10001A988, symSize: 0xA0 }
  - { offsetInCU: 0x4E701, offset: 0x6308E, size: 0x8, addend: 0x0, symName: __ZN7testing8internal17TestEventRepeater15OnTestCaseStartERKNS_8TestCaseE, symObjAddr: 0x11B20, symBinAddr: 0x10001AA28, symSize: 0xA0 }
  - { offsetInCU: 0x4E756, offset: 0x630E3, size: 0x8, addend: 0x0, symName: __ZN7testing8internal17TestEventRepeater11OnTestStartERKNS_8TestInfoE, symObjAddr: 0x11BC0, symBinAddr: 0x10001AAC8, symSize: 0xA0 }
  - { offsetInCU: 0x4E7AB, offset: 0x63138, size: 0x8, addend: 0x0, symName: __ZN7testing8internal17TestEventRepeater16OnTestPartResultERKNS_14TestPartResultE, symObjAddr: 0x11C60, symBinAddr: 0x10001AB68, symSize: 0xA0 }
  - { offsetInCU: 0x4E800, offset: 0x6318D, size: 0x8, addend: 0x0, symName: __ZN7testing8internal17TestEventRepeater27OnEnvironmentsTearDownStartERKNS_8UnitTestE, symObjAddr: 0x11D00, symBinAddr: 0x10001AC08, symSize: 0xA0 }
  - { offsetInCU: 0x4E855, offset: 0x631E2, size: 0x8, addend: 0x0, symName: __ZN7testing8internal17TestEventRepeater22OnEnvironmentsSetUpEndERKNS_8UnitTestE, symObjAddr: 0x11DA0, symBinAddr: 0x10001ACA8, symSize: 0xA0 }
  - { offsetInCU: 0x4E8AA, offset: 0x63237, size: 0x8, addend: 0x0, symName: __ZN7testing8internal17TestEventRepeater25OnEnvironmentsTearDownEndERKNS_8UnitTestE, symObjAddr: 0x11E40, symBinAddr: 0x10001AD48, symSize: 0xA0 }
  - { offsetInCU: 0x4E8FF, offset: 0x6328C, size: 0x8, addend: 0x0, symName: __ZN7testing8internal17TestEventRepeater9OnTestEndERKNS_8TestInfoE, symObjAddr: 0x11EE0, symBinAddr: 0x10001ADE8, symSize: 0xA0 }
  - { offsetInCU: 0x4E954, offset: 0x632E1, size: 0x8, addend: 0x0, symName: __ZN7testing8internal17TestEventRepeater13OnTestCaseEndERKNS_8TestCaseE, symObjAddr: 0x11F80, symBinAddr: 0x10001AE88, symSize: 0xA0 }
  - { offsetInCU: 0x4E9A9, offset: 0x63336, size: 0x8, addend: 0x0, symName: __ZN7testing8internal17TestEventRepeater16OnTestProgramEndERKNS_8UnitTestE, symObjAddr: 0x12020, symBinAddr: 0x10001AF28, symSize: 0xA0 }
  - { offsetInCU: 0x4E9FE, offset: 0x6338B, size: 0x8, addend: 0x0, symName: __ZN7testing8internal17TestEventRepeater20OnTestIterationStartERKNS_8UnitTestEi, symObjAddr: 0x120C0, symBinAddr: 0x10001AFC8, symSize: 0xA8 }
  - { offsetInCU: 0x4EA62, offset: 0x633EF, size: 0x8, addend: 0x0, symName: __ZN7testing8internal17TestEventRepeater18OnTestIterationEndERKNS_8UnitTestEi, symObjAddr: 0x12168, symBinAddr: 0x10001B070, symSize: 0xA8 }
  - { offsetInCU: 0x4EAC6, offset: 0x63453, size: 0x8, addend: 0x0, symName: __ZN7testing8internal24XmlUnitTestResultPrinterC2EPKc, symObjAddr: 0x12210, symBinAddr: 0x10001B118, symSize: 0x120 }
  - { offsetInCU: 0x4EB01, offset: 0x6348E, size: 0x8, addend: 0x0, symName: __ZN7testing22EmptyTestEventListenerC2Ev, symObjAddr: 0x12330, symBinAddr: 0x10001B238, symSize: 0x44 }
  - { offsetInCU: 0x4EB2E, offset: 0x634BB, size: 0x8, addend: 0x0, symName: __ZN7testing22EmptyTestEventListenerD2Ev, symObjAddr: 0x12374, symBinAddr: 0x10001B27C, symSize: 0x2C }
  - { offsetInCU: 0x4EB5B, offset: 0x634E8, size: 0x8, addend: 0x0, symName: __ZN7testing8internal24XmlUnitTestResultPrinterC1EPKc, symObjAddr: 0x123A0, symBinAddr: 0x10001B2A8, symSize: 0x34 }
  - { offsetInCU: 0x4EB96, offset: 0x63523, size: 0x8, addend: 0x0, symName: __ZN7testing8internal24XmlUnitTestResultPrinter18OnTestIterationEndERKNS_8UnitTestEi, symObjAddr: 0x123D4, symBinAddr: 0x10001B2DC, symSize: 0x11C }
  - { offsetInCU: 0x4EBF8, offset: 0x63585, size: 0x8, addend: 0x0, symName: __ZN7testing8internal24XmlUnitTestResultPrinter16PrintXmlUnitTestEPNSt3__113basic_ostreamIcNS2_11char_traitsIcEEEERKNS_8UnitTestE, symObjAddr: 0x12668, symBinAddr: 0x10001B570, symSize: 0x788 }
  - { offsetInCU: 0x4EC52, offset: 0x635DF, size: 0x8, addend: 0x0, symName: __ZN7testing8internal24XmlUnitTestResultPrinter23ListTestsMatchingFilterERKNSt3__16vectorIPNS_8TestCaseENS2_9allocatorIS5_EEEE, symObjAddr: 0x12DF0, symBinAddr: 0x10001BCF8, symSize: 0x118 }
  - { offsetInCU: 0x4ECA8, offset: 0x63635, size: 0x8, addend: 0x0, symName: __ZN7testing8internal24XmlUnitTestResultPrinter17PrintXmlTestsListEPNSt3__113basic_ostreamIcNS2_11char_traitsIcEEEERKNS2_6vectorIPNS_8TestCaseENS2_9allocatorISA_EEEE, symObjAddr: 0x12F08, symBinAddr: 0x10001BE10, symSize: 0x2D4 }
  - { offsetInCU: 0x4ED3A, offset: 0x636C7, size: 0x8, addend: 0x0, symName: __ZN7testing8internal24XmlUnitTestResultPrinter9EscapeXmlERKNSt3__112basic_stringIcNS2_11char_traitsIcEENS2_9allocatorIcEEEEb, symObjAddr: 0x131DC, symBinAddr: 0x10001C0E4, symSize: 0x29C }
  - { offsetInCU: 0x4EDBA, offset: 0x63747, size: 0x8, addend: 0x0, symName: __ZNKSt3__112basic_stringIcNS_11char_traitsIcEENS_9allocatorIcEEEixB7v160006Em, symObjAddr: 0x13540, symBinAddr: 0x10001C3F4, symSize: 0x30 }
  - { offsetInCU: 0x4EDEF, offset: 0x6377C, size: 0x8, addend: 0x0, symName: __ZN7testing7MessagelsIA5_cEERS0_RKT_, symObjAddr: 0x13570, symBinAddr: 0x10001C424, symSize: 0x3C }
  - { offsetInCU: 0x4EE33, offset: 0x637C0, size: 0x8, addend: 0x0, symName: __ZN7testing7MessagelsIA7_cEERS0_RKT_, symObjAddr: 0x135AC, symBinAddr: 0x10001C460, symSize: 0x3C }
  - { offsetInCU: 0x4EE77, offset: 0x63804, size: 0x8, addend: 0x0, symName: __ZN7testing7MessagelsIcEERS0_RKT_, symObjAddr: 0x135E8, symBinAddr: 0x10001C49C, symSize: 0x40 }
  - { offsetInCU: 0x4EEBB, offset: 0x63848, size: 0x8, addend: 0x0, symName: __ZN7testing8internal24XmlUnitTestResultPrinter19IsValidXmlCharacterEc, symObjAddr: 0x13628, symBinAddr: 0x10001C4DC, symSize: 0x50 }
  - { offsetInCU: 0x4EEDF, offset: 0x6386C, size: 0x8, addend: 0x0, symName: __ZN7testing8internal24XmlUnitTestResultPrinter24IsNormalizableWhitespaceEc, symObjAddr: 0x13678, symBinAddr: 0x10001C52C, symSize: 0x64 }
  - { offsetInCU: 0x4EF03, offset: 0x63890, size: 0x8, addend: 0x0, symName: __ZN7testing8internal24XmlUnitTestResultPrinter26RemoveInvalidXmlCharactersERKNSt3__112basic_stringIcNS2_11char_traitsIcEENS2_9allocatorIcEEEE, symObjAddr: 0x136DC, symBinAddr: 0x10001C590, symSize: 0x12C }
  - { offsetInCU: 0x4EF4E, offset: 0x638DB, size: 0x8, addend: 0x0, symName: __ZNKSt3__112basic_stringIcNS_11char_traitsIcEENS_9allocatorIcEEE5beginB7v160006Ev, symObjAddr: 0x13808, symBinAddr: 0x10001C6BC, symSize: 0x4C }
  - { offsetInCU: 0x4EF74, offset: 0x63901, size: 0x8, addend: 0x0, symName: __ZNKSt3__112basic_stringIcNS_11char_traitsIcEENS_9allocatorIcEEE3endB7v160006Ev, symObjAddr: 0x13888, symBinAddr: 0x10001C73C, symSize: 0x54 }
  - { offsetInCU: 0x4EF9A, offset: 0x63927, size: 0x8, addend: 0x0, symName: __ZNKSt3__111__wrap_iterIPKcEdeB7v160006Ev, symObjAddr: 0x138DC, symBinAddr: 0x10001C790, symSize: 0x18 }
  - { offsetInCU: 0x4EFC0, offset: 0x6394D, size: 0x8, addend: 0x0, symName: __ZNSt3__111__wrap_iterIPKcEppB7v160006Ev, symObjAddr: 0x138F4, symBinAddr: 0x10001C7A8, symSize: 0x20 }
  - { offsetInCU: 0x4EFE6, offset: 0x63973, size: 0x8, addend: 0x0, symName: __ZN7testing8internal24XmlUnitTestResultPrinter21OutputXmlCDataSectionEPNSt3__113basic_ostreamIcNS2_11char_traitsIcEEEEPKc, symObjAddr: 0x13E80, symBinAddr: 0x10001CD34, symSize: 0xC0 }
  - { offsetInCU: 0x4F047, offset: 0x639D4, size: 0x8, addend: 0x0, symName: __Z6strstrB7v160006Ua9enable_ifIXLb1EEEPKcS0_, symObjAddr: 0x13F40, symBinAddr: 0x10001CDF4, symSize: 0x2C }
  - { offsetInCU: 0x4F082, offset: 0x63A0F, size: 0x8, addend: 0x0, symName: __ZN7testing8internal24XmlUnitTestResultPrinter18OutputXmlAttributeEPNSt3__113basic_ostreamIcNS2_11char_traitsIcEEEERKNS2_12basic_stringIcS5_NS2_9allocatorIcEEEESD_SD_, symObjAddr: 0x13F6C, symBinAddr: 0x10001CE20, symSize: 0x260 }
  - { offsetInCU: 0x4F0E4, offset: 0x63A71, size: 0x8, addend: 0x0, symName: __ZNKSt3__16vectorINS_12basic_stringIcNS_11char_traitsIcEENS_9allocatorIcEEEENS4_IS6_EEE5beginB7v160006Ev, symObjAddr: 0x14274, symBinAddr: 0x10001D128, symSize: 0x30 }
  - { offsetInCU: 0x4F10C, offset: 0x63A99, size: 0x8, addend: 0x0, symName: __ZNKSt3__16vectorINS_12basic_stringIcNS_11char_traitsIcEENS_9allocatorIcEEEENS4_IS6_EEE3endB7v160006Ev, symObjAddr: 0x142A4, symBinAddr: 0x10001D158, symSize: 0x30 }
  - { offsetInCU: 0x4F134, offset: 0x63AC1, size: 0x8, addend: 0x0, symName: __ZN7testing8internal24XmlUnitTestResultPrinter18EscapeXmlAttributeERKNSt3__112basic_stringIcNS2_11char_traitsIcEENS2_9allocatorIcEEEE, symObjAddr: 0x142D4, symBinAddr: 0x10001D188, symSize: 0x34 }
  - { offsetInCU: 0x4F158, offset: 0x63AE5, size: 0x8, addend: 0x0, symName: __ZN7testing8internal24XmlUnitTestResultPrinter17OutputXmlTestInfoEPNSt3__113basic_ostreamIcNS2_11char_traitsIcEEEEPKcRKNS_8TestInfoE, symObjAddr: 0x14308, symBinAddr: 0x10001D1BC, symSize: 0x9C0 }
  - { offsetInCU: 0x4F22D, offset: 0x63BBA, size: 0x8, addend: 0x0, symName: __ZNK7testing8TestInfo19is_in_another_shardEv, symObjAddr: 0x14CC8, symBinAddr: 0x10001DB7C, symSize: 0x1C }
  - { offsetInCU: 0x4F253, offset: 0x63BE0, size: 0x8, addend: 0x0, symName: __ZNK7testing8TestInfo11value_paramEv, symObjAddr: 0x14CE4, symBinAddr: 0x10001DB98, symSize: 0x60 }
  - { offsetInCU: 0x4F279, offset: 0x63C06, size: 0x8, addend: 0x0, symName: __ZNK7testing8TestInfo10type_paramEv, symObjAddr: 0x14D44, symBinAddr: 0x10001DBF8, symSize: 0x60 }
  - { offsetInCU: 0x4F29F, offset: 0x63C2C, size: 0x8, addend: 0x0, symName: __ZNK7testing8TestInfo4fileEv, symObjAddr: 0x14DA4, symBinAddr: 0x10001DC58, symSize: 0x28 }
  - { offsetInCU: 0x4F2C5, offset: 0x63C52, size: 0x8, addend: 0x0, symName: __ZNK7testing8TestInfo4lineEv, symObjAddr: 0x14DCC, symBinAddr: 0x10001DC80, symSize: 0x18 }
  - { offsetInCU: 0x4F2EB, offset: 0x63C78, size: 0x8, addend: 0x0, symName: __ZNK7testing14TestPartResult9file_nameEv, symObjAddr: 0x14F30, symBinAddr: 0x10001DDE4, symSize: 0x58 }
  - { offsetInCU: 0x4F311, offset: 0x63C9E, size: 0x8, addend: 0x0, symName: __ZNK7testing14TestPartResult11line_numberEv, symObjAddr: 0x14F88, symBinAddr: 0x10001DE3C, symSize: 0x18 }
  - { offsetInCU: 0x4F337, offset: 0x63CC4, size: 0x8, addend: 0x0, symName: __ZNK7testing14TestPartResult7summaryEv, symObjAddr: 0x14FA0, symBinAddr: 0x10001DE54, symSize: 0x28 }
  - { offsetInCU: 0x4F35D, offset: 0x63CEA, size: 0x8, addend: 0x0, symName: __ZNK7testing14TestPartResult7messageEv, symObjAddr: 0x14FC8, symBinAddr: 0x10001DE7C, symSize: 0x28 }
  - { offsetInCU: 0x4F383, offset: 0x63D10, size: 0x8, addend: 0x0, symName: __ZN7testing8internal24XmlUnitTestResultPrinter23OutputXmlTestPropertiesEPNSt3__113basic_ostreamIcNS2_11char_traitsIcEEEERKNS_10TestResultE, symObjAddr: 0x14FF0, symBinAddr: 0x10001DEA4, symSize: 0x348 }
  - { offsetInCU: 0x4F403, offset: 0x63D90, size: 0x8, addend: 0x0, symName: __ZN7testing8internal24XmlUnitTestResultPrinter16PrintXmlTestCaseEPNSt3__113basic_ostreamIcNS2_11char_traitsIcEEEERKNS_8TestCaseE, symObjAddr: 0x15338, symBinAddr: 0x10001E1EC, symSize: 0x62C }
  - { offsetInCU: 0x4F466, offset: 0x63DF3, size: 0x8, addend: 0x0, symName: __ZN7testing8internal24XmlUnitTestResultPrinter29TestPropertiesAsXmlAttributesERKNS_10TestResultE, symObjAddr: 0x15964, symBinAddr: 0x10001E818, symSize: 0x1D4 }
  - { offsetInCU: 0x4F4CE, offset: 0x63E5B, size: 0x8, addend: 0x0, symName: __ZNK7testing8TestCase18ad_hoc_test_resultEv, symObjAddr: 0x15B38, symBinAddr: 0x10001E9EC, symSize: 0x18 }
  - { offsetInCU: 0x4F4F4, offset: 0x63E81, size: 0x8, addend: 0x0, symName: __ZNK7testing8TestInfo13is_reportableEv, symObjAddr: 0x15B50, symBinAddr: 0x10001EA04, symSize: 0x48 }
  - { offsetInCU: 0x4F51A, offset: 0x63EA7, size: 0x8, addend: 0x0, symName: __ZNK7testing8UnitTest21reportable_test_countEv, symObjAddr: 0x15B98, symBinAddr: 0x10001EA4C, symSize: 0x28 }
  - { offsetInCU: 0x4F543, offset: 0x63ED0, size: 0x8, addend: 0x0, symName: __ZNK7testing8UnitTest15start_timestampEv, symObjAddr: 0x15BC0, symBinAddr: 0x10001EA74, symSize: 0x28 }
  - { offsetInCU: 0x4F570, offset: 0x63EFD, size: 0x8, addend: 0x0, symName: __ZNK7testing8UnitTest18ad_hoc_test_resultEv, symObjAddr: 0x15BE8, symBinAddr: 0x10001EA9C, symSize: 0x28 }
  - { offsetInCU: 0x4F599, offset: 0x63F26, size: 0x8, addend: 0x0, symName: __ZNKSt3__16vectorIPN7testing8TestCaseENS_9allocatorIS3_EEEixB7v160006Em, symObjAddr: 0x15C10, symBinAddr: 0x10001EAC4, symSize: 0x24 }
  - { offsetInCU: 0x4F5D0, offset: 0x63F5D, size: 0x8, addend: 0x0, symName: __ZN7testing8internal25JsonUnitTestResultPrinterC2EPKc, symObjAddr: 0x15C34, symBinAddr: 0x10001EAE8, symSize: 0x120 }
  - { offsetInCU: 0x4F60B, offset: 0x63F98, size: 0x8, addend: 0x0, symName: __ZN7testing8internal25JsonUnitTestResultPrinterC1EPKc, symObjAddr: 0x15D54, symBinAddr: 0x10001EC08, symSize: 0x34 }
  - { offsetInCU: 0x4F646, offset: 0x63FD3, size: 0x8, addend: 0x0, symName: __ZN7testing8internal25JsonUnitTestResultPrinter18OnTestIterationEndERKNS_8UnitTestEi, symObjAddr: 0x15D88, symBinAddr: 0x10001EC3C, symSize: 0x11C }
  - { offsetInCU: 0x4F6A8, offset: 0x64035, size: 0x8, addend: 0x0, symName: __ZN7testing8internal25JsonUnitTestResultPrinter17PrintJsonUnitTestEPNSt3__113basic_ostreamIcNS2_11char_traitsIcEEEERKNS_8UnitTestE, symObjAddr: 0x15EA4, symBinAddr: 0x10001ED58, symSize: 0x6C8 }
  - { offsetInCU: 0x4F722, offset: 0x640AF, size: 0x8, addend: 0x0, symName: __ZN7testing8internal25JsonUnitTestResultPrinter10EscapeJsonERKNSt3__112basic_stringIcNS2_11char_traitsIcEENS2_9allocatorIcEEEE, symObjAddr: 0x1656C, symBinAddr: 0x10001F420, symSize: 0x290 }
  - { offsetInCU: 0x4F793, offset: 0x64120, size: 0x8, addend: 0x0, symName: __ZN7testing8internal25JsonUnitTestResultPrinter13OutputJsonKeyEPNSt3__113basic_ostreamIcNS2_11char_traitsIcEEEERKNS2_12basic_stringIcS5_NS2_9allocatorIcEEEESD_SD_SD_b, symObjAddr: 0x167FC, symBinAddr: 0x10001F6B0, symSize: 0x2A4 }
  - { offsetInCU: 0x4F814, offset: 0x641A1, size: 0x8, addend: 0x0, symName: __ZN7testing8internal25JsonUnitTestResultPrinter13OutputJsonKeyEPNSt3__113basic_ostreamIcNS2_11char_traitsIcEEEERKNS2_12basic_stringIcS5_NS2_9allocatorIcEEEESD_iSD_b, symObjAddr: 0x16AA0, symBinAddr: 0x10001F954, symSize: 0x28C }
  - { offsetInCU: 0x4F895, offset: 0x64222, size: 0x8, addend: 0x0, symName: __ZN7testing8internal25JsonUnitTestResultPrinter18OutputJsonTestInfoEPNSt3__113basic_ostreamIcNS2_11char_traitsIcEEEEPKcRKNS_8TestInfoE, symObjAddr: 0x16D2C, symBinAddr: 0x10001FBE0, symSize: 0xAE4 }
  - { offsetInCU: 0x4F96A, offset: 0x642F7, size: 0x8, addend: 0x0, symName: __ZN7testing8internal25JsonUnitTestResultPrinter20TestPropertiesAsJsonERKNS_10TestResultERKNSt3__112basic_stringIcNS5_11char_traitsIcEENS5_9allocatorIcEEEE, symObjAddr: 0x1790C, symBinAddr: 0x1000207C0, symSize: 0x204 }
  - { offsetInCU: 0x4F9E1, offset: 0x6436E, size: 0x8, addend: 0x0, symName: __ZN7testing8internal25JsonUnitTestResultPrinter17PrintJsonTestCaseEPNSt3__113basic_ostreamIcNS2_11char_traitsIcEEEERKNS_8TestCaseE, symObjAddr: 0x17B10, symBinAddr: 0x1000209C4, symSize: 0x650 }
  - { offsetInCU: 0x4FA64, offset: 0x643F1, size: 0x8, addend: 0x0, symName: __ZN7testing8internal25JsonUnitTestResultPrinter17PrintJsonTestListEPNSt3__113basic_ostreamIcNS2_11char_traitsIcEEEERKNS2_6vectorIPNS_8TestCaseENS2_9allocatorISA_EEEE, symObjAddr: 0x18568, symBinAddr: 0x10002141C, symSize: 0x348 }
  - { offsetInCU: 0x4FB0C, offset: 0x64499, size: 0x8, addend: 0x0, symName: __ZN7testing8internal18OsStackTraceGetter17CurrentStackTraceEii, symObjAddr: 0x188B0, symBinAddr: 0x100021764, symSize: 0x44 }
  - { offsetInCU: 0x4FB53, offset: 0x644E0, size: 0x8, addend: 0x0, symName: __ZN7testing8internal18OsStackTraceGetter16UponLeavingGTestEv, symObjAddr: 0x188F4, symBinAddr: 0x1000217A8, symSize: 0x10 }
  - { offsetInCU: 0x4FB7C, offset: 0x64509, size: 0x8, addend: 0x0, symName: __ZN7testing18TestEventListenersC2Ev, symObjAddr: 0x18904, symBinAddr: 0x1000217B8, symSize: 0x70 }
  - { offsetInCU: 0x4FBA9, offset: 0x64536, size: 0x8, addend: 0x0, symName: __ZN7testing8internal17TestEventRepeaterC1Ev, symObjAddr: 0x18974, symBinAddr: 0x100021828, symSize: 0x2C }
  - { offsetInCU: 0x4FBD3, offset: 0x64560, size: 0x8, addend: 0x0, symName: __ZN7testing18TestEventListenersC1Ev, symObjAddr: 0x189A0, symBinAddr: 0x100021854, symSize: 0x2C }
  - { offsetInCU: 0x4FC00, offset: 0x6458D, size: 0x8, addend: 0x0, symName: __ZN7testing18TestEventListenersD2Ev, symObjAddr: 0x189CC, symBinAddr: 0x100021880, symSize: 0x58 }
  - { offsetInCU: 0x4FC2D, offset: 0x645BA, size: 0x8, addend: 0x0, symName: __ZN7testing18TestEventListenersD1Ev, symObjAddr: 0x18A24, symBinAddr: 0x1000218D8, symSize: 0x2C }
  - { offsetInCU: 0x4FC5A, offset: 0x645E7, size: 0x8, addend: 0x0, symName: __ZN7testing18TestEventListeners6AppendEPNS_17TestEventListenerE, symObjAddr: 0x18A50, symBinAddr: 0x100021904, symSize: 0x30 }
  - { offsetInCU: 0x4FC92, offset: 0x6461F, size: 0x8, addend: 0x0, symName: __ZN7testing18TestEventListeners7ReleaseEPNS_17TestEventListenerE, symObjAddr: 0x18A80, symBinAddr: 0x100021934, symSize: 0x88 }
  - { offsetInCU: 0x4FCCA, offset: 0x64657, size: 0x8, addend: 0x0, symName: __ZN7testing18TestEventListeners23SetDefaultResultPrinterEPNS_17TestEventListenerE, symObjAddr: 0x18B08, symBinAddr: 0x1000219BC, symSize: 0xA8 }
  - { offsetInCU: 0x4FD02, offset: 0x6468F, size: 0x8, addend: 0x0, symName: __ZN7testing18TestEventListeners22SetDefaultXmlGeneratorEPNS_17TestEventListenerE, symObjAddr: 0x18BB0, symBinAddr: 0x100021A64, symSize: 0xA8 }
  - { offsetInCU: 0x4FD3A, offset: 0x646C7, size: 0x8, addend: 0x0, symName: __ZNK7testing18TestEventListeners22EventForwardingEnabledEv, symObjAddr: 0x18C58, symBinAddr: 0x100021B0C, symSize: 0x2C }
  - { offsetInCU: 0x4FD63, offset: 0x646F0, size: 0x8, addend: 0x0, symName: __ZNK7testing8internal17TestEventRepeater18forwarding_enabledEv, symObjAddr: 0x18C84, symBinAddr: 0x100021B38, symSize: 0x1C }
  - { offsetInCU: 0x4FD89, offset: 0x64716, size: 0x8, addend: 0x0, symName: __ZN7testing18TestEventListeners23SuppressEventForwardingEv, symObjAddr: 0x18CA0, symBinAddr: 0x100021B54, symSize: 0x30 }
  - { offsetInCU: 0x4FDB2, offset: 0x6473F, size: 0x8, addend: 0x0, symName: __ZN7testing8internal17TestEventRepeater22set_forwarding_enabledEb, symObjAddr: 0x18CD0, symBinAddr: 0x100021B84, symSize: 0x2C }
  - { offsetInCU: 0x4FDE7, offset: 0x64774, size: 0x8, addend: 0x0, symName: __ZN7testing8UnitTestC1Ev, symObjAddr: 0x18CFC, symBinAddr: 0x100021BB0, symSize: 0x2C }
  - { offsetInCU: 0x4FE14, offset: 0x647A1, size: 0x8, addend: 0x0, symName: __ZN7testing8UnitTestD1Ev, symObjAddr: 0x18D28, symBinAddr: 0x100021BDC, symSize: 0x2C }
  - { offsetInCU: 0x4FE41, offset: 0x647CE, size: 0x8, addend: 0x0, symName: __ZNK7testing8UnitTest26successful_test_case_countEv, symObjAddr: 0x18D54, symBinAddr: 0x100021C08, symSize: 0x28 }
  - { offsetInCU: 0x4FE6A, offset: 0x647F7, size: 0x8, addend: 0x0, symName: __ZNK7testing8UnitTest4implEv, symObjAddr: 0x18D7C, symBinAddr: 0x100021C30, symSize: 0x18 }
  - { offsetInCU: 0x4FE90, offset: 0x6481D, size: 0x8, addend: 0x0, symName: __ZNK7testing8UnitTest22failed_test_case_countEv, symObjAddr: 0x18D94, symBinAddr: 0x100021C48, symSize: 0x28 }
  - { offsetInCU: 0x4FEB9, offset: 0x64846, size: 0x8, addend: 0x0, symName: __ZNK7testing8UnitTest19disabled_test_countEv, symObjAddr: 0x18DBC, symBinAddr: 0x100021C70, symSize: 0x28 }
  - { offsetInCU: 0x4FEE2, offset: 0x6486F, size: 0x8, addend: 0x0, symName: __ZNK7testing8UnitTest16total_test_countEv, symObjAddr: 0x18DE4, symBinAddr: 0x100021C98, symSize: 0x28 }
  - { offsetInCU: 0x4FF0B, offset: 0x64898, size: 0x8, addend: 0x0, symName: __ZNK7testing8internal12UnitTestImpl15start_timestampEv, symObjAddr: 0x18E0C, symBinAddr: 0x100021CC0, symSize: 0x18 }
  - { offsetInCU: 0x4FF31, offset: 0x648BE, size: 0x8, addend: 0x0, symName: __ZNK7testing8internal12UnitTestImpl12elapsed_timeEv, symObjAddr: 0x18E24, symBinAddr: 0x100021CD8, symSize: 0x18 }
  - { offsetInCU: 0x4FF57, offset: 0x648E4, size: 0x8, addend: 0x0, symName: __ZNK7testing8internal12UnitTestImpl6PassedEv, symObjAddr: 0x18E3C, symBinAddr: 0x100021CF0, symSize: 0x2C }
  - { offsetInCU: 0x4FF7D, offset: 0x6490A, size: 0x8, addend: 0x0, symName: __ZNK7testing8UnitTest6FailedEv, symObjAddr: 0x18E68, symBinAddr: 0x100021D1C, symSize: 0x2C }
  - { offsetInCU: 0x4FFA6, offset: 0x64933, size: 0x8, addend: 0x0, symName: __ZNK7testing8internal12UnitTestImpl6FailedEv, symObjAddr: 0x18E94, symBinAddr: 0x100021D48, symSize: 0x5C }
  - { offsetInCU: 0x4FFCC, offset: 0x64959, size: 0x8, addend: 0x0, symName: __ZNK7testing8internal12UnitTestImpl11GetTestCaseEi, symObjAddr: 0x18EF0, symBinAddr: 0x100021DA4, symSize: 0x7C }
  - { offsetInCU: 0x50010, offset: 0x6499D, size: 0x8, addend: 0x0, symName: __ZNK7testing8internal12UnitTestImpl18ad_hoc_test_resultEv, symObjAddr: 0x18F6C, symBinAddr: 0x100021E20, symSize: 0x18 }
  - { offsetInCU: 0x50036, offset: 0x649C3, size: 0x8, addend: 0x0, symName: __ZN7testing8UnitTest18GetMutableTestCaseEi, symObjAddr: 0x18F84, symBinAddr: 0x100021E38, symSize: 0x30 }
  - { offsetInCU: 0x5006E, offset: 0x649FB, size: 0x8, addend: 0x0, symName: __ZN7testing8internal12UnitTestImpl18GetMutableTestCaseEi, symObjAddr: 0x18FB4, symBinAddr: 0x100021E68, symSize: 0x7C }
  - { offsetInCU: 0x500B2, offset: 0x64A3F, size: 0x8, addend: 0x0, symName: __ZN7testing8UnitTest14AddEnvironmentEPNS_11EnvironmentE, symObjAddr: 0x19030, symBinAddr: 0x100021EE4, symSize: 0x68 }
  - { offsetInCU: 0x500EA, offset: 0x64A77, size: 0x8, addend: 0x0, symName: __ZN7testing8internal12UnitTestImpl12environmentsEv, symObjAddr: 0x19098, symBinAddr: 0x100021F4C, symSize: 0x18 }
  - { offsetInCU: 0x50110, offset: 0x64A9D, size: 0x8, addend: 0x0, symName: __ZNSt3__16vectorIPN7testing11EnvironmentENS_9allocatorIS3_EEE9push_backB7v160006ERKS3_, symObjAddr: 0x190B0, symBinAddr: 0x100021F64, symSize: 0x6C }
  - { offsetInCU: 0x50147, offset: 0x64AD4, size: 0x8, addend: 0x0, symName: __ZN7testing8internal12UnitTestImpl17gtest_trace_stackEv, symObjAddr: 0x1911C, symBinAddr: 0x100021FD0, symSize: 0x28 }
  - { offsetInCU: 0x5016D, offset: 0x64AFA, size: 0x8, addend: 0x0, symName: __ZNKSt3__16vectorIN7testing8internal9TraceInfoENS_9allocatorIS3_EEE4sizeB7v160006Ev, symObjAddr: 0x19144, symBinAddr: 0x100021FF8, symSize: 0x28 }
  - { offsetInCU: 0x501A9, offset: 0x64B36, size: 0x8, addend: 0x0, symName: __ZN7testing7MessagelsIA8_cEERS0_RKT_, symObjAddr: 0x1916C, symBinAddr: 0x100022020, symSize: 0x3C }
  - { offsetInCU: 0x501ED, offset: 0x64B7A, size: 0x8, addend: 0x0, symName: __ZNSt3__16vectorIN7testing8internal9TraceInfoENS_9allocatorIS3_EEEixB7v160006Em, symObjAddr: 0x191A8, symBinAddr: 0x10002205C, symSize: 0x2C }
  - { offsetInCU: 0x50224, offset: 0x64BB1, size: 0x8, addend: 0x0, symName: __ZN7testing14TestPartResultC1ENS0_4TypeEPKciS3_, symObjAddr: 0x191D4, symBinAddr: 0x100022088, symSize: 0x4C }
  - { offsetInCU: 0x50286, offset: 0x64C13, size: 0x8, addend: 0x0, symName: __ZN7testing8internal26GoogleTestFailureExceptionD1Ev, symObjAddr: 0x19220, symBinAddr: 0x1000220D4, symSize: 0x2C }
  - { offsetInCU: 0x502B2, offset: 0x64C3F, size: 0x8, addend: 0x0, symName: __ZN7testing14TestPartResultD1Ev, symObjAddr: 0x1924C, symBinAddr: 0x100022100, symSize: 0x2C }
  - { offsetInCU: 0x502DE, offset: 0x64C6B, size: 0x8, addend: 0x0, symName: __ZN7testing8internal12UnitTestImpl14RecordPropertyERKNS_12TestPropertyE, symObjAddr: 0x19278, symBinAddr: 0x10002212C, symSize: 0x114 }
  - { offsetInCU: 0x50334, offset: 0x64CC1, size: 0x8, addend: 0x0, symName: __ZN7testing12TestPropertyC1ERKNSt3__112basic_stringIcNS1_11char_traitsIcEENS1_9allocatorIcEEEES9_, symObjAddr: 0x1938C, symBinAddr: 0x100022240, symSize: 0x3C }
  - { offsetInCU: 0x5037C, offset: 0x64D09, size: 0x8, addend: 0x0, symName: __ZN7testing12TestPropertyD1Ev, symObjAddr: 0x193C8, symBinAddr: 0x10002227C, symSize: 0x2C }
  - { offsetInCU: 0x503A9, offset: 0x64D36, size: 0x8, addend: 0x0, symName: __ZN7testing8UnitTest3RunEv, symObjAddr: 0x193F4, symBinAddr: 0x1000222A8, symSize: 0x12C }
  - { offsetInCU: 0x503FF, offset: 0x64D8C, size: 0x8, addend: 0x0, symName: __ZN7testing8internal23ScopedPrematureExitFileC1EPKc, symObjAddr: 0x19520, symBinAddr: 0x1000223D4, symSize: 0x34 }
  - { offsetInCU: 0x50438, offset: 0x64DC5, size: 0x8, addend: 0x0, symName: __ZN7testing8internal12UnitTestImpl20set_catch_exceptionsEb, symObjAddr: 0x19554, symBinAddr: 0x100022408, symSize: 0x2C }
  - { offsetInCU: 0x5046D, offset: 0x64DFA, size: 0x8, addend: 0x0, symName: __ZN7testing8internal12UnitTestImpl11RunAllTestsEv, symObjAddr: 0x1981C, symBinAddr: 0x1000226D0, symSize: 0x478 }
  - { offsetInCU: 0x50568, offset: 0x64EF5, size: 0x8, addend: 0x0, symName: __ZN7testing8internal23ScopedPrematureExitFileD1Ev, symObjAddr: 0x19C94, symBinAddr: 0x100022B48, symSize: 0x2C }
  - { offsetInCU: 0x50592, offset: 0x64F1F, size: 0x8, addend: 0x0, symName: __ZNK7testing8internal8FilePath5c_strEv, symObjAddr: 0x19CC0, symBinAddr: 0x100022B74, symSize: 0x24 }
  - { offsetInCU: 0x505B8, offset: 0x64F45, size: 0x8, addend: 0x0, symName: __ZNK7testing8UnitTest17current_test_caseEv, symObjAddr: 0x19CE4, symBinAddr: 0x100022B98, symSize: 0x70 }
  - { offsetInCU: 0x505F0, offset: 0x64F7D, size: 0x8, addend: 0x0, symName: __ZNK7testing8UnitTest17current_test_infoEv, symObjAddr: 0x19D54, symBinAddr: 0x100022C08, symSize: 0x70 }
  - { offsetInCU: 0x50628, offset: 0x64FB5, size: 0x8, addend: 0x0, symName: __ZNK7testing8internal12UnitTestImpl11random_seedEv, symObjAddr: 0x19DC4, symBinAddr: 0x100022C78, symSize: 0x18 }
  - { offsetInCU: 0x5064E, offset: 0x64FDB, size: 0x8, addend: 0x0, symName: __ZN7testing8UnitTest27parameterized_test_registryEv, symObjAddr: 0x19DDC, symBinAddr: 0x100022C90, symSize: 0x28 }
  - { offsetInCU: 0x50677, offset: 0x65004, size: 0x8, addend: 0x0, symName: __ZN7testing8internal12UnitTestImpl27parameterized_test_registryEv, symObjAddr: 0x19E04, symBinAddr: 0x100022CB8, symSize: 0x18 }
  - { offsetInCU: 0x5069D, offset: 0x6502A, size: 0x8, addend: 0x0, symName: __ZN7testing8UnitTestC2Ev, symObjAddr: 0x19E1C, symBinAddr: 0x100022CD0, symSize: 0xAC }
  - { offsetInCU: 0x506CA, offset: 0x65057, size: 0x8, addend: 0x0, symName: __ZN7testing8internal12UnitTestImplC1EPNS_8UnitTestE, symObjAddr: 0x19EC8, symBinAddr: 0x100022D7C, symSize: 0x34 }
  - { offsetInCU: 0x50706, offset: 0x65093, size: 0x8, addend: 0x0, symName: __ZN7testing8UnitTestD2Ev, symObjAddr: 0x19EFC, symBinAddr: 0x100022DB0, symSize: 0x78 }
  - { offsetInCU: 0x50733, offset: 0x650C0, size: 0x8, addend: 0x0, symName: __ZN7testing8UnitTestD0Ev, symObjAddr: 0x19F74, symBinAddr: 0x100022E28, symSize: 0x30 }
  - { offsetInCU: 0x50760, offset: 0x650ED, size: 0x8, addend: 0x0, symName: __ZN7testing8UnitTest14PushGTestTraceERKNS_8internal9TraceInfoE, symObjAddr: 0x19FA4, symBinAddr: 0x100022E58, symSize: 0x80 }
  - { offsetInCU: 0x507A7, offset: 0x65134, size: 0x8, addend: 0x0, symName: __ZNSt3__16vectorIN7testing8internal9TraceInfoENS_9allocatorIS3_EEE9push_backB7v160006ERKS3_, symObjAddr: 0x1A024, symBinAddr: 0x100022ED8, symSize: 0x6C }
  - { offsetInCU: 0x507DE, offset: 0x6516B, size: 0x8, addend: 0x0, symName: __ZN7testing8UnitTest13PopGTestTraceEv, symObjAddr: 0x1A090, symBinAddr: 0x100022F44, symSize: 0x78 }
  - { offsetInCU: 0x50816, offset: 0x651A3, size: 0x8, addend: 0x0, symName: __ZNSt3__16vectorIN7testing8internal9TraceInfoENS_9allocatorIS3_EEE8pop_backEv, symObjAddr: 0x1A108, symBinAddr: 0x100022FBC, symSize: 0x2C }
  - { offsetInCU: 0x5083E, offset: 0x651CB, size: 0x8, addend: 0x0, symName: __ZN7testing8internal12UnitTestImplC2EPNS_8UnitTestE, symObjAddr: 0x1A134, symBinAddr: 0x100022FE8, symSize: 0x330 }
  - { offsetInCU: 0x5087A, offset: 0x65207, size: 0x8, addend: 0x0, symName: __ZN7testing8internal11ThreadLocalIPNS_31TestPartResultReporterInterfaceEEC1ERKS3_, symObjAddr: 0x1A464, symBinAddr: 0x100023318, symSize: 0x34 }
  - { offsetInCU: 0x508B3, offset: 0x65240, size: 0x8, addend: 0x0, symName: __ZNSt3__16vectorIPN7testing11EnvironmentENS_9allocatorIS3_EEEC1B7v160006Ev, symObjAddr: 0x1A498, symBinAddr: 0x10002334C, symSize: 0x2C }
  - { offsetInCU: 0x508DD, offset: 0x6526A, size: 0x8, addend: 0x0, symName: __ZNSt3__16vectorIPN7testing8TestCaseENS_9allocatorIS3_EEEC1B7v160006Ev, symObjAddr: 0x1A4C4, symBinAddr: 0x100023378, symSize: 0x2C }
  - { offsetInCU: 0x50907, offset: 0x65294, size: 0x8, addend: 0x0, symName: __ZN7testing8internal29ParameterizedTestCaseRegistryC1Ev, symObjAddr: 0x1A4F0, symBinAddr: 0x1000233A4, symSize: 0x2C }
  - { offsetInCU: 0x50931, offset: 0x652BE, size: 0x8, addend: 0x0, symName: __ZN7testing8internal6RandomC1Ej, symObjAddr: 0x1A51C, symBinAddr: 0x1000233D0, symSize: 0x34 }
  - { offsetInCU: 0x5096A, offset: 0x652F7, size: 0x8, addend: 0x0, symName: __ZNSt3__110unique_ptrIN7testing8internal24InternalRunDeathTestFlagENS_14default_deleteIS3_EEEC1B7v160006ILb1EvEEv, symObjAddr: 0x1A550, symBinAddr: 0x100023404, symSize: 0x2C }
  - { offsetInCU: 0x509A4, offset: 0x65331, size: 0x8, addend: 0x0, symName: __ZN7testing8internal23DefaultDeathTestFactoryC1Ev, symObjAddr: 0x1A57C, symBinAddr: 0x100023430, symSize: 0x2C }
  - { offsetInCU: 0x509D0, offset: 0x6535D, size: 0x8, addend: 0x0, symName: __ZNSt3__110unique_ptrIN7testing8internal16DeathTestFactoryENS_14default_deleteIS3_EEEC1B7v160006ILb1EvEEPS3_, symObjAddr: 0x1A5A8, symBinAddr: 0x10002345C, symSize: 0x34 }
  - { offsetInCU: 0x50A13, offset: 0x653A0, size: 0x8, addend: 0x0, symName: __ZN7testing8internal11ThreadLocalINSt3__16vectorINS0_9TraceInfoENS2_9allocatorIS4_EEEEEC1Ev, symObjAddr: 0x1A5DC, symBinAddr: 0x100023490, symSize: 0x2C }
  - { offsetInCU: 0x50A3D, offset: 0x653CA, size: 0x8, addend: 0x0, symName: __ZN7testing8internal27PrettyUnitTestResultPrinterC1Ev, symObjAddr: 0x1A608, symBinAddr: 0x1000234BC, symSize: 0x2C }
  - { offsetInCU: 0x50A67, offset: 0x653F4, size: 0x8, addend: 0x0, symName: __ZN7testing8internal11ThreadLocalINSt3__16vectorINS0_9TraceInfoENS2_9allocatorIS4_EEEEED1Ev, symObjAddr: 0x1A634, symBinAddr: 0x1000234E8, symSize: 0x2C }
  - { offsetInCU: 0x50A91, offset: 0x6541E, size: 0x8, addend: 0x0, symName: __ZNSt3__110unique_ptrIN7testing8internal16DeathTestFactoryENS_14default_deleteIS3_EEED1B7v160006Ev, symObjAddr: 0x1A660, symBinAddr: 0x100023514, symSize: 0x2C }
  - { offsetInCU: 0x50ABB, offset: 0x65448, size: 0x8, addend: 0x0, symName: __ZNSt3__110unique_ptrIN7testing8internal24InternalRunDeathTestFlagENS_14default_deleteIS3_EEED1B7v160006Ev, symObjAddr: 0x1A68C, symBinAddr: 0x100023540, symSize: 0x2C }
  - { offsetInCU: 0x50AE5, offset: 0x65472, size: 0x8, addend: 0x0, symName: __ZN7testing8internal29ParameterizedTestCaseRegistryD1Ev, symObjAddr: 0x1A6B8, symBinAddr: 0x10002356C, symSize: 0x2C }
  - { offsetInCU: 0x50B0F, offset: 0x6549C, size: 0x8, addend: 0x0, symName: __ZNSt3__16vectorIPN7testing8TestCaseENS_9allocatorIS3_EEED1B7v160006Ev, symObjAddr: 0x1A6E4, symBinAddr: 0x100023598, symSize: 0x2C }
  - { offsetInCU: 0x50B39, offset: 0x654C6, size: 0x8, addend: 0x0, symName: __ZNSt3__16vectorIPN7testing11EnvironmentENS_9allocatorIS3_EEED1B7v160006Ev, symObjAddr: 0x1A710, symBinAddr: 0x1000235C4, symSize: 0x2C }
  - { offsetInCU: 0x50B63, offset: 0x654F0, size: 0x8, addend: 0x0, symName: __ZN7testing8internal11ThreadLocalIPNS_31TestPartResultReporterInterfaceEED1Ev, symObjAddr: 0x1A73C, symBinAddr: 0x1000235F0, symSize: 0x2C }
  - { offsetInCU: 0x50B8D, offset: 0x6551A, size: 0x8, addend: 0x0, symName: __ZN7testing8internal38DefaultPerThreadTestPartResultReporterD1Ev, symObjAddr: 0x1A768, symBinAddr: 0x10002361C, symSize: 0x2C }
  - { offsetInCU: 0x50BBA, offset: 0x65547, size: 0x8, addend: 0x0, symName: __ZN7testing8internal35DefaultGlobalTestPartResultReporterD1Ev, symObjAddr: 0x1A794, symBinAddr: 0x100023648, symSize: 0x2C }
  - { offsetInCU: 0x50BE7, offset: 0x65574, size: 0x8, addend: 0x0, symName: __ZN7testing8internal12UnitTestImplD2Ev, symObjAddr: 0x1A7C0, symBinAddr: 0x100023674, symSize: 0x148 }
  - { offsetInCU: 0x50C14, offset: 0x655A1, size: 0x8, addend: 0x0, symName: __ZN7testing8internal12UnitTestImplD1Ev, symObjAddr: 0x1AA28, symBinAddr: 0x1000238DC, symSize: 0x2C }
  - { offsetInCU: 0x50C41, offset: 0x655CE, size: 0x8, addend: 0x0, symName: __ZN7testing8internal12UnitTestImplD0Ev, symObjAddr: 0x1AA54, symBinAddr: 0x100023908, symSize: 0x30 }
  - { offsetInCU: 0x50C6E, offset: 0x655FB, size: 0x8, addend: 0x0, symName: __ZN7testing8internal12UnitTestImpl32SuppressTestEventsIfInSubprocessEv, symObjAddr: 0x1AA84, symBinAddr: 0x100023938, symSize: 0x4C }
  - { offsetInCU: 0x50C97, offset: 0x65624, size: 0x8, addend: 0x0, symName: __ZNKSt3__110unique_ptrIN7testing8internal24InternalRunDeathTestFlagENS_14default_deleteIS3_EEE3getB7v160006Ev, symObjAddr: 0x1AAD0, symBinAddr: 0x100023984, symSize: 0x28 }
  - { offsetInCU: 0x50CBD, offset: 0x6564A, size: 0x8, addend: 0x0, symName: __ZN7testing8internal12UnitTestImpl18ConfigureXmlOutputEv, symObjAddr: 0x1AAF8, symBinAddr: 0x1000239AC, symSize: 0x2CC }
  - { offsetInCU: 0x50CF5, offset: 0x65682, size: 0x8, addend: 0x0, symName: __ZN7testing8internal12UnitTestImpl19PostFlagParsingInitEv, symObjAddr: 0x1AE70, symBinAddr: 0x100023C78, symSize: 0x5C }
  - { offsetInCU: 0x50D1E, offset: 0x656AB, size: 0x8, addend: 0x0, symName: __ZN7testing8internal12UnitTestImpl34InitDeathTestSubprocessControlInfoEv, symObjAddr: 0x1AECC, symBinAddr: 0x100023CD4, symSize: 0x38 }
  - { offsetInCU: 0x50D44, offset: 0x656D1, size: 0x8, addend: 0x0, symName: __ZN7testing8internal12UnitTestImpl11GetTestCaseEPKcS3_PFvvES5_, symObjAddr: 0x1AF04, symBinAddr: 0x100023D0C, symSize: 0x2C8 }
  - { offsetInCU: 0x50DC9, offset: 0x65756, size: 0x8, addend: 0x0, symName: __ZNSt3__16vectorIPN7testing8TestCaseENS_9allocatorIS3_EEE6rbeginB7v160006Ev, symObjAddr: 0x1B258, symBinAddr: 0x100024060, symSize: 0x44 }
  - { offsetInCU: 0x50DEF, offset: 0x6577C, size: 0x8, addend: 0x0, symName: __ZNSt3__16vectorIPN7testing8TestCaseENS_9allocatorIS3_EEE4rendB7v160006Ev, symObjAddr: 0x1B29C, symBinAddr: 0x1000240A4, symSize: 0x44 }
  - { offsetInCU: 0x50E15, offset: 0x657A2, size: 0x8, addend: 0x0, symName: __ZN7testing8internal14TestCaseNameIsC1ERKNSt3__112basic_stringIcNS2_11char_traitsIcEENS2_9allocatorIcEEEE, symObjAddr: 0x1B2E0, symBinAddr: 0x1000240E8, symSize: 0x34 }
  - { offsetInCU: 0x50E53, offset: 0x657E0, size: 0x8, addend: 0x0, symName: __ZNSt3__116reverse_iteratorINS_11__wrap_iterIPKPN7testing8TestCaseEEEEC1B7v160006INS1_IPS4_EEvEERKNS0_IT_EE, symObjAddr: 0x1B314, symBinAddr: 0x10002411C, symSize: 0x34 }
  - { offsetInCU: 0x50E95, offset: 0x65822, size: 0x8, addend: 0x0, symName: __ZN7testing8internal14TestCaseNameIsD1Ev, symObjAddr: 0x1B348, symBinAddr: 0x100024150, symSize: 0x2C }
  - { offsetInCU: 0x50EC2, offset: 0x6584F, size: 0x8, addend: 0x0, symName: __ZNKSt3__116reverse_iteratorINS_11__wrap_iterIPKPN7testing8TestCaseEEEEdeB7v160006Ev, symObjAddr: 0x1B3C8, symBinAddr: 0x1000241D0, symSize: 0x34 }
  - { offsetInCU: 0x50EF7, offset: 0x65884, size: 0x8, addend: 0x0, symName: __ZNSt3__16vectorIPN7testing8TestCaseENS_9allocatorIS3_EEE6insertENS_11__wrap_iterIPKS3_EERS8_, symObjAddr: 0x1B3FC, symBinAddr: 0x100024204, symSize: 0x1FC }
  - { offsetInCU: 0x50F8F, offset: 0x6591C, size: 0x8, addend: 0x0, symName: __ZNSt3__16vectorIPN7testing8TestCaseENS_9allocatorIS3_EEE5beginB7v160006Ev, symObjAddr: 0x1B5F8, symBinAddr: 0x100024400, symSize: 0x30 }
  - { offsetInCU: 0x50FB7, offset: 0x65944, size: 0x8, addend: 0x0, symName: __ZNKSt3__111__wrap_iterIPPN7testing8TestCaseEEplB7v160006El, symObjAddr: 0x1B628, symBinAddr: 0x100024430, symSize: 0x3C }
  - { offsetInCU: 0x50FFF, offset: 0x6598C, size: 0x8, addend: 0x0, symName: __ZNSt3__111__wrap_iterIPKPN7testing8TestCaseEEC1B7v160006IPS3_EERKNS0_IT_EEPNS_9enable_ifIXsr14is_convertibleIS9_S5_EE5valueEvE4typeE, symObjAddr: 0x1B664, symBinAddr: 0x10002446C, symSize: 0x3C }
  - { offsetInCU: 0x5104B, offset: 0x659D8, size: 0x8, addend: 0x0, symName: __ZNSt3__16vectorIPN7testing8TestCaseENS_9allocatorIS3_EEE9push_backB7v160006ERKS3_, symObjAddr: 0x1B6A0, symBinAddr: 0x1000244A8, symSize: 0x6C }
  - { offsetInCU: 0x51082, offset: 0x65A0F, size: 0x8, addend: 0x0, symName: __ZN7testing8internal12UnitTestImpl11FilterTestsENS1_18ReactionToShardingE, symObjAddr: 0x1B80C, symBinAddr: 0x100024614, symSize: 0x430 }
  - { offsetInCU: 0x511BC, offset: 0x65B49, size: 0x8, addend: 0x0, symName: __ZN7testing8internal12UnitTestImpl23ListTestsMatchingFilterEv, symObjAddr: 0x1BC3C, symBinAddr: 0x100024A44, symSize: 0x528 }
  - { offsetInCU: 0x512B2, offset: 0x65C3F, size: 0x8, addend: 0x0, symName: __ZN7testing8internal12UnitTestImpl23ClearNonAdHocTestResultEv, symObjAddr: 0x1C1E0, symBinAddr: 0x100024FE8, symSize: 0x30 }
  - { offsetInCU: 0x512D8, offset: 0x65C65, size: 0x8, addend: 0x0, symName: __ZN7testing8internal12UnitTestImpl6randomEv, symObjAddr: 0x1C210, symBinAddr: 0x100025018, symSize: 0x18 }
  - { offsetInCU: 0x512FE, offset: 0x65C8B, size: 0x8, addend: 0x0, symName: __ZN7testing8internal6Random6ReseedEj, symObjAddr: 0x1C228, symBinAddr: 0x100025030, symSize: 0x20 }
  - { offsetInCU: 0x51333, offset: 0x65CC0, size: 0x8, addend: 0x0, symName: __ZN7testing8internal12UnitTestImpl12ShuffleTestsEv, symObjAddr: 0x1C248, symBinAddr: 0x100025050, symSize: 0xF4 }
  - { offsetInCU: 0x5137A, offset: 0x65D07, size: 0x8, addend: 0x0, symName: __ZNSt3__16vectorIPN7testing11EnvironmentENS_9allocatorIS3_EEE6rbeginB7v160006Ev, symObjAddr: 0x1C3DC, symBinAddr: 0x1000251E4, symSize: 0x44 }
  - { offsetInCU: 0x513A0, offset: 0x65D2D, size: 0x8, addend: 0x0, symName: __ZNSt3__16vectorIPN7testing11EnvironmentENS_9allocatorIS3_EEE4rendB7v160006Ev, symObjAddr: 0x1C420, symBinAddr: 0x100025228, symSize: 0x44 }
  - { offsetInCU: 0x513C6, offset: 0x65D53, size: 0x8, addend: 0x0, symName: __ZN7testing8internal12UnitTestImpl14UnshuffleTestsEv, symObjAddr: 0x1C490, symBinAddr: 0x100025298, symSize: 0xA0 }
  - { offsetInCU: 0x51423, offset: 0x65DB0, size: 0x8, addend: 0x0, symName: __ZN7testing7MessagelsIA41_cEERS0_RKT_, symObjAddr: 0x1C6E4, symBinAddr: 0x1000254EC, symSize: 0x3C }
  - { offsetInCU: 0x51467, offset: 0x65DF4, size: 0x8, addend: 0x0, symName: __ZN7testing7MessagelsIA17_cEERS0_RKT_, symObjAddr: 0x1C720, symBinAddr: 0x100025528, symSize: 0x3C }
  - { offsetInCU: 0x514C1, offset: 0x65E4E, size: 0x8, addend: 0x0, symName: __ZN7testing7MessagelsIA19_cEERS0_RKT_, symObjAddr: 0x1C75C, symBinAddr: 0x100025564, symSize: 0x3C }
  - { offsetInCU: 0x51505, offset: 0x65E92, size: 0x8, addend: 0x0, symName: __ZN7testing7MessagelsIA9_cEERS0_RKT_, symObjAddr: 0x1C798, symBinAddr: 0x1000255A0, symSize: 0x3C }
  - { offsetInCU: 0x51549, offset: 0x65ED6, size: 0x8, addend: 0x0, symName: __ZN7testing7MessageC1ERKS0_, symObjAddr: 0x1C7D4, symBinAddr: 0x1000255DC, symSize: 0x34 }
  - { offsetInCU: 0x51597, offset: 0x65F24, size: 0x8, addend: 0x0, symName: __ZN7testing7MessagelsIA48_cEERS0_RKT_, symObjAddr: 0x1C808, symBinAddr: 0x100025610, symSize: 0x3C }
  - { offsetInCU: 0x515DB, offset: 0x65F68, size: 0x8, addend: 0x0, symName: __ZNSt3__16vectorIPN7testing8TestCaseENS_9allocatorIS3_EEEixB7v160006Em, symObjAddr: 0x1CBB4, symBinAddr: 0x1000259BC, symSize: 0x24 }
  - { offsetInCU: 0x51612, offset: 0x65F9F, size: 0x8, addend: 0x0, symName: __ZN7testing8TestCase14set_should_runEb, symObjAddr: 0x1CBD8, symBinAddr: 0x1000259E0, symSize: 0x2C }
  - { offsetInCU: 0x51647, offset: 0x65FD4, size: 0x8, addend: 0x0, symName: __ZN7testing8TestCase14test_info_listEv, symObjAddr: 0x1CC04, symBinAddr: 0x100025A0C, symSize: 0x18 }
  - { offsetInCU: 0x5166D, offset: 0x65FFA, size: 0x8, addend: 0x0, symName: __ZN7testing8internal24XmlUnitTestResultPrinterD1Ev, symObjAddr: 0x1CD14, symBinAddr: 0x100025B1C, symSize: 0x2C }
  - { offsetInCU: 0x5169A, offset: 0x66027, size: 0x8, addend: 0x0, symName: __ZN7testing8internal25JsonUnitTestResultPrinterD1Ev, symObjAddr: 0x1CD40, symBinAddr: 0x100025B48, symSize: 0x2C }
  - { offsetInCU: 0x516C7, offset: 0x66054, size: 0x8, addend: 0x0, symName: __ZN7testing8internal12UnitTestImpl25set_os_stack_trace_getterEPNS0_27OsStackTraceGetterInterfaceE, symObjAddr: 0x1CD6C, symBinAddr: 0x100025B74, symSize: 0x80 }
  - { offsetInCU: 0x516FF, offset: 0x6608C, size: 0x8, addend: 0x0, symName: __ZN7testing8internal18OsStackTraceGetterC1Ev, symObjAddr: 0x1CDEC, symBinAddr: 0x100025BF4, symSize: 0x2C }
  - { offsetInCU: 0x5173F, offset: 0x660CC, size: 0x8, addend: 0x0, symName: __ZN7testing7MessagelsIA21_cEERS0_RKT_, symObjAddr: 0x1D50C, symBinAddr: 0x100026314, symSize: 0x3C }
  - { offsetInCU: 0x51792, offset: 0x6611F, size: 0x8, addend: 0x0, symName: __ZN7testing11ScopedTrace9PushTraceEPKciNSt3__112basic_stringIcNS3_11char_traitsIcEENS3_9allocatorIcEEEE, symObjAddr: 0x1DD00, symBinAddr: 0x100026B08, symSize: 0x9C }
  - { offsetInCU: 0x517FD, offset: 0x6618A, size: 0x8, addend: 0x0, symName: __ZN7testing8internal9TraceInfoC1Ev, symObjAddr: 0x1DD9C, symBinAddr: 0x100026BA4, symSize: 0x2C }
  - { offsetInCU: 0x5182A, offset: 0x661B7, size: 0x8, addend: 0x0, symName: __ZNSt3__112basic_stringIcNS_11char_traitsIcEENS_9allocatorIcEEE4swapB7v160006ERS5_, symObjAddr: 0x1DDC8, symBinAddr: 0x100026BD0, symSize: 0xB4 }
  - { offsetInCU: 0x51861, offset: 0x661EE, size: 0x8, addend: 0x0, symName: __ZN7testing8internal9TraceInfoD1Ev, symObjAddr: 0x1DE7C, symBinAddr: 0x100026C84, symSize: 0x2C }
  - { offsetInCU: 0x5188E, offset: 0x6621B, size: 0x8, addend: 0x0, symName: __ZN7testing11ScopedTraceD2Ev, symObjAddr: 0x1DEA8, symBinAddr: 0x100026CB0, symSize: 0x44 }
  - { offsetInCU: 0x518BB, offset: 0x66248, size: 0x8, addend: 0x0, symName: __ZN7testing11ScopedTraceD1Ev, symObjAddr: 0x1DEEC, symBinAddr: 0x100026CF4, symSize: 0x2C }
  - { offsetInCU: 0x518E8, offset: 0x66275, size: 0x8, addend: 0x0, symName: __ZN7testing14ExitedWithCodeC2Ei, symObjAddr: 0x1DF90, symBinAddr: 0x100026D98, symSize: 0x20 }
  - { offsetInCU: 0x51922, offset: 0x662AF, size: 0x8, addend: 0x0, symName: __ZN7testing14ExitedWithCodeC1Ei, symObjAddr: 0x1DFB0, symBinAddr: 0x100026DB8, symSize: 0x34 }
  - { offsetInCU: 0x5195C, offset: 0x662E9, size: 0x8, addend: 0x0, symName: __ZNK7testing14ExitedWithCodeclEi, symObjAddr: 0x1DFE4, symBinAddr: 0x100026DEC, symSize: 0x60 }
  - { offsetInCU: 0x519A1, offset: 0x6632E, size: 0x8, addend: 0x0, symName: __ZN7testing14KilledBySignalC2Ei, symObjAddr: 0x1E044, symBinAddr: 0x100026E4C, symSize: 0x20 }
  - { offsetInCU: 0x519DB, offset: 0x66368, size: 0x8, addend: 0x0, symName: __ZN7testing14KilledBySignalC1Ei, symObjAddr: 0x1E064, symBinAddr: 0x100026E6C, symSize: 0x34 }
  - { offsetInCU: 0x51A15, offset: 0x663A2, size: 0x8, addend: 0x0, symName: __ZNK7testing14KilledBySignalclEi, symObjAddr: 0x1E098, symBinAddr: 0x100026EA0, symSize: 0x80 }
  - { offsetInCU: 0x51A4B, offset: 0x663D8, size: 0x8, addend: 0x0, symName: __ZN7testing8internal9DeathTestC2Ev, symObjAddr: 0x1E1E4, symBinAddr: 0x100026FEC, symSize: 0xA8 }
  - { offsetInCU: 0x51A8D, offset: 0x6641A, size: 0x8, addend: 0x0, symName: __ZN7testing8internal9DeathTest6CreateEPKcPKNS0_2REES3_iPPS1_, symObjAddr: 0x1E364, symBinAddr: 0x10002716C, symSize: 0x58 }
  - { offsetInCU: 0x51AF0, offset: 0x6647D, size: 0x8, addend: 0x0, symName: __ZN7testing8internal12UnitTestImpl18death_test_factoryEv, symObjAddr: 0x1E3BC, symBinAddr: 0x1000271C4, symSize: 0x28 }
  - { offsetInCU: 0x51B16, offset: 0x664A3, size: 0x8, addend: 0x0, symName: __ZN7testing8internal9DeathTest11LastMessageEv, symObjAddr: 0x1E3E4, symBinAddr: 0x1000271EC, symSize: 0x1C }
  - { offsetInCU: 0x51B2D, offset: 0x664BA, size: 0x8, addend: 0x0, symName: __ZN7testing8internal9DeathTest27set_last_death_test_messageERKNSt3__112basic_stringIcNS2_11char_traitsIcEENS2_9allocatorIcEEEE, symObjAddr: 0x1E400, symBinAddr: 0x100027208, symSize: 0x2C }
  - { offsetInCU: 0x51B68, offset: 0x664F5, size: 0x8, addend: 0x0, symName: __ZN7testing8internal13DeathTestImpl26ReadAndInterpretStatusByteEv, symObjAddr: 0x1E42C, symBinAddr: 0x100027234, symSize: 0x540 }
  - { offsetInCU: 0x51BC4, offset: 0x66551, size: 0x8, addend: 0x0, symName: __ZNK7testing8internal13DeathTestImpl7read_fdEv, symObjAddr: 0x1E9D4, symBinAddr: 0x1000277DC, symSize: 0x18 }
  - { offsetInCU: 0x51BEA, offset: 0x66577, size: 0x8, addend: 0x0, symName: __ZN7testing8internal13DeathTestImpl11set_outcomeENS0_16DeathTestOutcomeE, symObjAddr: 0x1E9EC, symBinAddr: 0x1000277F4, symSize: 0x20 }
  - { offsetInCU: 0x51C1F, offset: 0x665AC, size: 0x8, addend: 0x0, symName: __ZN7testing8internal13DeathTestImpl11set_read_fdEi, symObjAddr: 0x1ED20, symBinAddr: 0x100027B28, symSize: 0x20 }
  - { offsetInCU: 0x51C54, offset: 0x665E1, size: 0x8, addend: 0x0, symName: __ZN7testing8internal13DeathTestImpl12GetErrorLogsEv, symObjAddr: 0x1ED40, symBinAddr: 0x100027B48, symSize: 0x28 }
  - { offsetInCU: 0x51C7C, offset: 0x66609, size: 0x8, addend: 0x0, symName: __ZN7testing8internal13DeathTestImpl5AbortENS0_9DeathTest11AbortReasonE, symObjAddr: 0x1ED94, symBinAddr: 0x100027B9C, symSize: 0x2F0 }
  - { offsetInCU: 0x51CD7, offset: 0x66664, size: 0x8, addend: 0x0, symName: __ZNK7testing8internal13DeathTestImpl8write_fdEv, symObjAddr: 0x1F0BC, symBinAddr: 0x100027EC4, symSize: 0x18 }
  - { offsetInCU: 0x51CFD, offset: 0x6668A, size: 0x8, addend: 0x0, symName: __ZN7testing8internal13DeathTestImpl6PassedEb, symObjAddr: 0x1F0D4, symBinAddr: 0x100027EDC, symSize: 0x5D0 }
  - { offsetInCU: 0x51D82, offset: 0x6670F, size: 0x8, addend: 0x0, symName: __ZNK7testing8internal13DeathTestImpl7spawnedEv, symObjAddr: 0x1F6B8, symBinAddr: 0x1000284C0, symSize: 0x1C }
  - { offsetInCU: 0x51DA8, offset: 0x66735, size: 0x8, addend: 0x0, symName: __ZNK7testing8internal13DeathTestImpl9statementEv, symObjAddr: 0x1F6D4, symBinAddr: 0x1000284DC, symSize: 0x18 }
  - { offsetInCU: 0x51DCE, offset: 0x6675B, size: 0x8, addend: 0x0, symName: __ZNK7testing8internal13DeathTestImpl7outcomeEv, symObjAddr: 0x1F6EC, symBinAddr: 0x1000284F4, symSize: 0x18 }
  - { offsetInCU: 0x51E0A, offset: 0x66797, size: 0x8, addend: 0x0, symName: __ZN7testing7MessagelsIA28_cEERS0_RKT_, symObjAddr: 0x1F704, symBinAddr: 0x10002850C, symSize: 0x3C }
  - { offsetInCU: 0x51E64, offset: 0x667F1, size: 0x8, addend: 0x0, symName: __ZN7testing7MessagelsIA33_cEERS0_RKT_, symObjAddr: 0x1F8C8, symBinAddr: 0x1000286D0, symSize: 0x3C }
  - { offsetInCU: 0x51EBE, offset: 0x6684B, size: 0x8, addend: 0x0, symName: __ZN7testing7MessagelsIA47_cEERS0_RKT_, symObjAddr: 0x1F904, symBinAddr: 0x10002870C, symSize: 0x3C }
  - { offsetInCU: 0x51F02, offset: 0x6688F, size: 0x8, addend: 0x0, symName: __ZN7testing8internal2RE12PartialMatchEPKcRKS1_, symObjAddr: 0x1F940, symBinAddr: 0x100028748, symSize: 0x80 }
  - { offsetInCU: 0x51F47, offset: 0x668D4, size: 0x8, addend: 0x0, symName: __ZNK7testing8internal13DeathTestImpl5regexEv, symObjAddr: 0x1F9C0, symBinAddr: 0x1000287C8, symSize: 0x18 }
  - { offsetInCU: 0x51F6D, offset: 0x668FA, size: 0x8, addend: 0x0, symName: __ZNK7testing8internal2RE7patternEv, symObjAddr: 0x1F9D8, symBinAddr: 0x1000287E0, symSize: 0x18 }
  - { offsetInCU: 0x51FA9, offset: 0x66936, size: 0x8, addend: 0x0, symName: __ZN7testing7MessagelsIA51_cEERS0_RKT_, symObjAddr: 0x1F9F0, symBinAddr: 0x1000287F8, symSize: 0x3C }
  - { offsetInCU: 0x51FED, offset: 0x6697A, size: 0x8, addend: 0x0, symName: __ZNK7testing8internal13DeathTestImpl6statusEv, symObjAddr: 0x1FB74, symBinAddr: 0x10002897C, symSize: 0x18 }
  - { offsetInCU: 0x52039, offset: 0x669C6, size: 0x8, addend: 0x0, symName: __ZN7testing8internal16ForkingDeathTestC2EPKcPKNS0_2REE, symObjAddr: 0x1FB8C, symBinAddr: 0x100028994, symSize: 0x5C }
  - { offsetInCU: 0x52083, offset: 0x66A10, size: 0x8, addend: 0x0, symName: __ZN7testing8internal13DeathTestImplC2EPKcPKNS0_2REE, symObjAddr: 0x1FBE8, symBinAddr: 0x1000289F0, symSize: 0x74 }
  - { offsetInCU: 0x520CB, offset: 0x66A58, size: 0x8, addend: 0x0, symName: __ZN7testing8internal16ForkingDeathTest4WaitEv, symObjAddr: 0x1FC5C, symBinAddr: 0x100028A64, symSize: 0x2DC }
  - { offsetInCU: 0x52117, offset: 0x66AA4, size: 0x8, addend: 0x0, symName: __ZN7testing8internal13DeathTestImpl10set_statusEi, symObjAddr: 0x1FF38, symBinAddr: 0x100028D40, symSize: 0x20 }
  - { offsetInCU: 0x52151, offset: 0x66ADE, size: 0x8, addend: 0x0, symName: __ZN7testing8internal15NoExecDeathTest10AssumeRoleEv, symObjAddr: 0x1FF58, symBinAddr: 0x100028D60, symSize: 0xAF8 }
  - { offsetInCU: 0x521D3, offset: 0x66B60, size: 0x8, addend: 0x0, symName: __ZN7testing8internal16ForkingDeathTest13set_child_pidEi, symObjAddr: 0x20C8C, symBinAddr: 0x100029A94, symSize: 0x20 }
  - { offsetInCU: 0x52208, offset: 0x66B95, size: 0x8, addend: 0x0, symName: __ZN7testing8internal13DeathTestImpl12set_write_fdEi, symObjAddr: 0x20CAC, symBinAddr: 0x100029AB4, symSize: 0x20 }
  - { offsetInCU: 0x5223D, offset: 0x66BCA, size: 0x8, addend: 0x0, symName: __ZN7testing8internal13DeathTestImpl11set_spawnedEb, symObjAddr: 0x20CD0, symBinAddr: 0x100029AD8, symSize: 0x2C }
  - { offsetInCU: 0x52277, offset: 0x66C04, size: 0x8, addend: 0x0, symName: __ZN7testing8internal13ExecDeathTest10AssumeRoleEv, symObjAddr: 0x20CFC, symBinAddr: 0x100029B04, symSize: 0xE2C }
  - { offsetInCU: 0x52342, offset: 0x66CCF, size: 0x8, addend: 0x0, symName: __ZNK7testing8internal12UnitTestImpl28internal_run_death_test_flagEv, symObjAddr: 0x21B28, symBinAddr: 0x10002A930, symSize: 0x28 }
  - { offsetInCU: 0x52368, offset: 0x66CF5, size: 0x8, addend: 0x0, symName: __ZNK7testing8internal12UnitTestImpl17current_test_infoEv, symObjAddr: 0x21B50, symBinAddr: 0x10002A958, symSize: 0x18 }
  - { offsetInCU: 0x5238E, offset: 0x66D1B, size: 0x8, addend: 0x0, symName: __ZNK7testing10TestResult16death_test_countEv, symObjAddr: 0x21B68, symBinAddr: 0x10002A970, symSize: 0x18 }
  - { offsetInCU: 0x523B4, offset: 0x66D41, size: 0x8, addend: 0x0, symName: __ZNK7testing8internal24InternalRunDeathTestFlag8write_fdEv, symObjAddr: 0x21B80, symBinAddr: 0x10002A988, symSize: 0x18 }
  - { offsetInCU: 0x523DF, offset: 0x66D6C, size: 0x8, addend: 0x0, symName: __ZN7testing8internal9ArgumentsC1Ev, symObjAddr: 0x21B98, symBinAddr: 0x10002A9A0, symSize: 0x2C }
  - { offsetInCU: 0x52409, offset: 0x66D96, size: 0x8, addend: 0x0, symName: __ZN7testing8internal9Arguments12AddArgumentsINSt3__112basic_stringIcNS3_11char_traitsIcEENS3_9allocatorIcEEEEEEvRKNS3_6vectorIT_NS7_ISB_EEEE, symObjAddr: 0x21BC4, symBinAddr: 0x10002A9CC, symSize: 0xC4 }
  - { offsetInCU: 0x52465, offset: 0x66DF2, size: 0x8, addend: 0x0, symName: __ZN7testing8internal13ExecDeathTest32GetArgvsForDeathTestChildProcessEv, symObjAddr: 0x21C88, symBinAddr: 0x10002AA90, symSize: 0x68 }
  - { offsetInCU: 0x5248A, offset: 0x66E17, size: 0x8, addend: 0x0, symName: __ZN7testing8internal9Arguments11AddArgumentEPKc, symObjAddr: 0x21CF0, symBinAddr: 0x10002AAF8, symSize: 0x78 }
  - { offsetInCU: 0x524BF, offset: 0x66E4C, size: 0x8, addend: 0x0, symName: __ZN7testing8internal9Arguments4ArgvEv, symObjAddr: 0x21FC0, symBinAddr: 0x10002ADC8, symSize: 0x28 }
  - { offsetInCU: 0x524E5, offset: 0x66E72, size: 0x8, addend: 0x0, symName: __ZN7testing8internal9ArgumentsD1Ev, symObjAddr: 0x21FE8, symBinAddr: 0x10002ADF0, symSize: 0x2C }
  - { offsetInCU: 0x5250F, offset: 0x66E9C, size: 0x8, addend: 0x0, symName: __ZN7testing8internal23DefaultDeathTestFactory6CreateEPKcPKNS0_2REES3_iPPNS0_9DeathTestE, symObjAddr: 0x22014, symBinAddr: 0x10002AE1C, symSize: 0x41C }
  - { offsetInCU: 0x525B4, offset: 0x66F41, size: 0x8, addend: 0x0, symName: __ZN7testing8TestInfo26increment_death_test_countEv, symObjAddr: 0x22430, symBinAddr: 0x10002B238, symSize: 0x28 }
  - { offsetInCU: 0x525DA, offset: 0x66F67, size: 0x8, addend: 0x0, symName: __ZNK7testing8internal24InternalRunDeathTestFlag5indexEv, symObjAddr: 0x22458, symBinAddr: 0x10002B260, symSize: 0x18 }
  - { offsetInCU: 0x52600, offset: 0x66F8D, size: 0x8, addend: 0x0, symName: __ZNK7testing8internal24InternalRunDeathTestFlag4fileEv, symObjAddr: 0x22470, symBinAddr: 0x10002B278, symSize: 0x14 }
  - { offsetInCU: 0x52626, offset: 0x66FB3, size: 0x8, addend: 0x0, symName: __ZNK7testing8internal24InternalRunDeathTestFlag4lineEv, symObjAddr: 0x22484, symBinAddr: 0x10002B28C, symSize: 0x18 }
  - { offsetInCU: 0x5264C, offset: 0x66FD9, size: 0x8, addend: 0x0, symName: __ZN7testing8internal13ExecDeathTestC1EPKcPKNS0_2REES3_i, symObjAddr: 0x2249C, symBinAddr: 0x10002B2A4, symSize: 0x4C }
  - { offsetInCU: 0x526B2, offset: 0x6703F, size: 0x8, addend: 0x0, symName: __ZN7testing8internal15NoExecDeathTestC1EPKcPKNS0_2REE, symObjAddr: 0x224E8, symBinAddr: 0x10002B2F0, symSize: 0x3C }
  - { offsetInCU: 0x526FA, offset: 0x67087, size: 0x8, addend: 0x0, symName: __ZN7testing8internal24InternalRunDeathTestFlagC1ERKNSt3__112basic_stringIcNS2_11char_traitsIcEENS2_9allocatorIcEEEEiii, symObjAddr: 0x228DC, symBinAddr: 0x10002B6E4, symSize: 0x4C }
  - { offsetInCU: 0x5275C, offset: 0x670E9, size: 0x8, addend: 0x0, symName: __ZN7testing8internal8FilePath13GetCurrentDirEv, symObjAddr: 0x22928, symBinAddr: 0x10002B730, symSize: 0xF8 }
  - { offsetInCU: 0x52793, offset: 0x67120, size: 0x8, addend: 0x0, symName: __ZNK7testing8internal8FilePath15RemoveExtensionEPKc, symObjAddr: 0x22A20, symBinAddr: 0x10002B828, symSize: 0x150 }
  - { offsetInCU: 0x527D8, offset: 0x67165, size: 0x8, addend: 0x0, symName: __ZN7testing8internal8FilePathC1ERKS1_, symObjAddr: 0x22B70, symBinAddr: 0x10002B978, symSize: 0x34 }
  - { offsetInCU: 0x52810, offset: 0x6719D, size: 0x8, addend: 0x0, symName: __ZNK7testing8internal8FilePath21FindLastPathSeparatorEv, symObjAddr: 0x22BA4, symBinAddr: 0x10002B9AC, symSize: 0x34 }
  - { offsetInCU: 0x52846, offset: 0x671D3, size: 0x8, addend: 0x0, symName: __Z7strrchrB7v160006Ua9enable_ifIXLb1EEEPKci, symObjAddr: 0x22BD8, symBinAddr: 0x10002B9E0, symSize: 0x2C }
  - { offsetInCU: 0x52881, offset: 0x6720E, size: 0x8, addend: 0x0, symName: __ZNK7testing8internal8FilePath14RemoveFileNameEv, symObjAddr: 0x22C04, symBinAddr: 0x10002BA0C, symSize: 0x104 }
  - { offsetInCU: 0x528C7, offset: 0x67254, size: 0x8, addend: 0x0, symName: __ZNK7testing8internal8FilePath7IsEmptyEv, symObjAddr: 0x22D08, symBinAddr: 0x10002BB10, symSize: 0x28 }
  - { offsetInCU: 0x528ED, offset: 0x6727A, size: 0x8, addend: 0x0, symName: __ZNK7testing8internal8FilePath27RemoveTrailingPathSeparatorEv, symObjAddr: 0x22D30, symBinAddr: 0x10002BB38, symSize: 0xEC }
  - { offsetInCU: 0x52916, offset: 0x672A3, size: 0x8, addend: 0x0, symName: __ZNK7testing8internal8FilePath21FileOrDirectoryExistsEv, symObjAddr: 0x22F2C, symBinAddr: 0x10002BD34, symSize: 0x38 }
  - { offsetInCU: 0x5294D, offset: 0x672DA, size: 0x8, addend: 0x0, symName: __ZNK7testing8internal8FilePath15DirectoryExistsEv, symObjAddr: 0x22F90, symBinAddr: 0x10002BD98, symSize: 0x78 }
  - { offsetInCU: 0x529A2, offset: 0x6732F, size: 0x8, addend: 0x0, symName: __ZNK7testing8internal8FilePath15IsRootDirectoryEv, symObjAddr: 0x23030, symBinAddr: 0x10002BE38, symSize: 0x60 }
  - { offsetInCU: 0x529CA, offset: 0x67357, size: 0x8, addend: 0x0, symName: __ZNK7testing8internal8FilePath28CreateDirectoriesRecursivelyEv, symObjAddr: 0x230B0, symBinAddr: 0x10002BEB8, symSize: 0x144 }
  - { offsetInCU: 0x52A02, offset: 0x6738F, size: 0x8, addend: 0x0, symName: __ZNK7testing8internal8FilePath12CreateFolderEv, symObjAddr: 0x231F4, symBinAddr: 0x10002BFFC, symSize: 0x7C }
  - { offsetInCU: 0x52A3A, offset: 0x673C7, size: 0x8, addend: 0x0, symName: __ZN7testing8internal8FilePath9NormalizeEv, symObjAddr: 0x23270, symBinAddr: 0x10002C078, symSize: 0x160 }
  - { offsetInCU: 0x52A90, offset: 0x6741D, size: 0x8, addend: 0x0, symName: __ZN7testing7MatcherIRKNSt3__112basic_stringIcNS1_11char_traitsIcEENS1_9allocatorIcEEEEEC2ES9_, symObjAddr: 0x233D0, symBinAddr: 0x10002C1D8, symSize: 0xFC }
  - { offsetInCU: 0x52ACA, offset: 0x67457, size: 0x8, addend: 0x0, symName: __ZN7testing8internal11MatcherBaseIRKNSt3__112basic_stringIcNS2_11char_traitsIcEENS2_9allocatorIcEEEEEC2Ev, symObjAddr: 0x234CC, symBinAddr: 0x10002C2D4, symSize: 0x40 }
  - { offsetInCU: 0x52AF9, offset: 0x67486, size: 0x8, addend: 0x0, symName: __ZNK7testing8internal14ComparisonBaseINS0_9EqMatcherINSt3__112basic_stringIcNS3_11char_traitsIcEENS3_9allocatorIcEEEEEES9_NS0_5AnyEqEEcvNS_7MatcherIT_EEIRKS9_EEv, symObjAddr: 0x23544, symBinAddr: 0x10002C34C, symSize: 0x74 }
  - { offsetInCU: 0x52B32, offset: 0x674BF, size: 0x8, addend: 0x0, symName: __ZN7testing7MatcherIRKNSt3__112basic_stringIcNS1_11char_traitsIcEENS1_9allocatorIcEEEEEaSEOSA_, symObjAddr: 0x235B8, symBinAddr: 0x10002C3C0, symSize: 0x34 }
  - { offsetInCU: 0x52B64, offset: 0x674F1, size: 0x8, addend: 0x0, symName: __ZN7testing7MatcherIRKNSt3__112basic_stringIcNS1_11char_traitsIcEENS1_9allocatorIcEEEEED1Ev, symObjAddr: 0x235EC, symBinAddr: 0x10002C3F4, symSize: 0x2C }
  - { offsetInCU: 0x52B91, offset: 0x6751E, size: 0x8, addend: 0x0, symName: __ZN7testing8internal9EqMatcherINSt3__112basic_stringIcNS2_11char_traitsIcEENS2_9allocatorIcEEEEED1Ev, symObjAddr: 0x23618, symBinAddr: 0x10002C420, symSize: 0x2C }
  - { offsetInCU: 0x52BBE, offset: 0x6754B, size: 0x8, addend: 0x0, symName: __ZN7testing8internal11MatcherBaseIRKNSt3__112basic_stringIcNS2_11char_traitsIcEENS2_9allocatorIcEEEEED2Ev, symObjAddr: 0x23644, symBinAddr: 0x10002C44C, symSize: 0x40 }
  - { offsetInCU: 0x52BE8, offset: 0x67575, size: 0x8, addend: 0x0, symName: __ZN7testing7MatcherIRKNSt3__112basic_stringIcNS1_11char_traitsIcEENS1_9allocatorIcEEEEEC1ES9_, symObjAddr: 0x23684, symBinAddr: 0x10002C48C, symSize: 0x34 }
  - { offsetInCU: 0x52C22, offset: 0x675AF, size: 0x8, addend: 0x0, symName: __ZN7testing7MatcherIRKNSt3__112basic_stringIcNS1_11char_traitsIcEENS1_9allocatorIcEEEEEC2EPKc, symObjAddr: 0x236B8, symBinAddr: 0x10002C4C0, symSize: 0xFC }
  - { offsetInCU: 0x52C5C, offset: 0x675E9, size: 0x8, addend: 0x0, symName: __ZN7testing7MatcherIRKNSt3__112basic_stringIcNS1_11char_traitsIcEENS1_9allocatorIcEEEEEC1EPKc, symObjAddr: 0x237B4, symBinAddr: 0x10002C5BC, symSize: 0x34 }
  - { offsetInCU: 0x52C96, offset: 0x67623, size: 0x8, addend: 0x0, symName: __ZN7testing7MatcherINSt3__112basic_stringIcNS1_11char_traitsIcEENS1_9allocatorIcEEEEEC2ERKS7_, symObjAddr: 0x237E8, symBinAddr: 0x10002C5F0, symSize: 0xFC }
  - { offsetInCU: 0x52CD0, offset: 0x6765D, size: 0x8, addend: 0x0, symName: __ZN7testing8internal11MatcherBaseINSt3__112basic_stringIcNS2_11char_traitsIcEENS2_9allocatorIcEEEEEC2Ev, symObjAddr: 0x238E4, symBinAddr: 0x10002C6EC, symSize: 0x40 }
  - { offsetInCU: 0x52CFA, offset: 0x67687, size: 0x8, addend: 0x0, symName: __ZNK7testing8internal14ComparisonBaseINS0_9EqMatcherINSt3__112basic_stringIcNS3_11char_traitsIcEENS3_9allocatorIcEEEEEES9_NS0_5AnyEqEEcvNS_7MatcherIT_EEIS9_EEv, symObjAddr: 0x23924, symBinAddr: 0x10002C72C, symSize: 0x74 }
  - { offsetInCU: 0x52D33, offset: 0x676C0, size: 0x8, addend: 0x0, symName: __ZN7testing7MatcherINSt3__112basic_stringIcNS1_11char_traitsIcEENS1_9allocatorIcEEEEEaSEOS8_, symObjAddr: 0x23998, symBinAddr: 0x10002C7A0, symSize: 0x34 }
  - { offsetInCU: 0x52D65, offset: 0x676F2, size: 0x8, addend: 0x0, symName: __ZN7testing7MatcherINSt3__112basic_stringIcNS1_11char_traitsIcEENS1_9allocatorIcEEEEED1Ev, symObjAddr: 0x239CC, symBinAddr: 0x10002C7D4, symSize: 0x2C }
  - { offsetInCU: 0x52D92, offset: 0x6771F, size: 0x8, addend: 0x0, symName: __ZN7testing8internal11MatcherBaseINSt3__112basic_stringIcNS2_11char_traitsIcEENS2_9allocatorIcEEEEED2Ev, symObjAddr: 0x239F8, symBinAddr: 0x10002C800, symSize: 0x40 }
  - { offsetInCU: 0x52DBC, offset: 0x67749, size: 0x8, addend: 0x0, symName: __ZN7testing7MatcherINSt3__112basic_stringIcNS1_11char_traitsIcEENS1_9allocatorIcEEEEEC1ERKS7_, symObjAddr: 0x23A38, symBinAddr: 0x10002C840, symSize: 0x34 }
  - { offsetInCU: 0x52DF6, offset: 0x67783, size: 0x8, addend: 0x0, symName: __ZN7testing7MatcherINSt3__112basic_stringIcNS1_11char_traitsIcEENS1_9allocatorIcEEEEEC2EPKc, symObjAddr: 0x23A6C, symBinAddr: 0x10002C874, symSize: 0xFC }
  - { offsetInCU: 0x52E30, offset: 0x677BD, size: 0x8, addend: 0x0, symName: __ZN7testing7MatcherINSt3__112basic_stringIcNS1_11char_traitsIcEENS1_9allocatorIcEEEEEC1EPKc, symObjAddr: 0x23B68, symBinAddr: 0x10002C970, symSize: 0x34 }
  - { offsetInCU: 0x52E6A, offset: 0x677F7, size: 0x8, addend: 0x0, symName: __ZN7testing8internal2RED2Ev, symObjAddr: 0x23B9C, symBinAddr: 0x10002C9A4, symSize: 0x74 }
  - { offsetInCU: 0x52E97, offset: 0x67824, size: 0x8, addend: 0x0, symName: __ZN7testing8internal2RED1Ev, symObjAddr: 0x23C10, symBinAddr: 0x10002CA18, symSize: 0x2C }
  - { offsetInCU: 0x52EC4, offset: 0x67851, size: 0x8, addend: 0x0, symName: __ZN7testing8internal2RE9FullMatchEPKcRKS1_, symObjAddr: 0x23C3C, symBinAddr: 0x10002CA44, symSize: 0x80 }
  - { offsetInCU: 0x52F09, offset: 0x67896, size: 0x8, addend: 0x0, symName: __ZN7testing8internal2RE4InitEPKc, symObjAddr: 0x23CBC, symBinAddr: 0x10002CAC4, symSize: 0x2BC }
  - { offsetInCU: 0x52FA8, offset: 0x67935, size: 0x8, addend: 0x0, symName: __ZN7testing7MessagelsIA52_cEERS0_RKT_, symObjAddr: 0x23F9C, symBinAddr: 0x10002CDA4, symSize: 0x3C }
  - { offsetInCU: 0x52FEC, offset: 0x67979, size: 0x8, addend: 0x0, symName: __ZN7testing8internal8GTestLogC2ENS0_16GTestLogSeverityEPKci, symObjAddr: 0x23FD8, symBinAddr: 0x10002CDE0, symSize: 0x178 }
  - { offsetInCU: 0x5305B, offset: 0x679E8, size: 0x8, addend: 0x0, symName: __ZN7testing8internal8GTestLogD2Ev, symObjAddr: 0x241D4, symBinAddr: 0x10002CF58, symSize: 0x84 }
  - { offsetInCU: 0x53088, offset: 0x67A15, size: 0x8, addend: 0x0, symName: __ZNSt3__16vectorINS_12basic_stringIcNS_11char_traitsIcEENS_9allocatorIcEEEENS4_IS6_EEEC1INS_11__wrap_iterIPKS6_EELi0EEET_SE_, symObjAddr: 0x24720, symBinAddr: 0x10002D4A4, symSize: 0x3C }
  - { offsetInCU: 0x530F8, offset: 0x67A85, size: 0x8, addend: 0x0, symName: __ZN7testing7MessagelsIA10_cEERS0_RKT_, symObjAddr: 0x247AC, symBinAddr: 0x10002D530, symSize: 0x3C }
  - { offsetInCU: 0x5313C, offset: 0x67AC9, size: 0x8, addend: 0x0, symName: __ZN7testing7MessagelsIS0_EERS0_RKT_, symObjAddr: 0x247E8, symBinAddr: 0x10002D56C, symSize: 0x3C }
  - { offsetInCU: 0x53196, offset: 0x67B23, size: 0x8, addend: 0x0, symName: __ZN7testing7MessagelsIA50_cEERS0_RKT_, symObjAddr: 0x24824, symBinAddr: 0x10002D5A8, symSize: 0x3C }
  - { offsetInCU: 0x531F0, offset: 0x67B7D, size: 0x8, addend: 0x0, symName: __ZN7testing7MessagelsIA20_cEERS0_RKT_, symObjAddr: 0x24860, symBinAddr: 0x10002D5E4, symSize: 0x3C }
  - { offsetInCU: 0x5324A, offset: 0x67BD7, size: 0x8, addend: 0x0, symName: __ZN7testing7MessagelsIA22_cEERS0_RKT_, symObjAddr: 0x24A04, symBinAddr: 0x10002D788, symSize: 0x3C }
  - { offsetInCU: 0x5328E, offset: 0x67C1B, size: 0x8, addend: 0x0, symName: __ZNKSt3__112basic_stringIwNS_11char_traitsIwEENS_9allocatorIwEEE4dataB7v160006Ev, symObjAddr: 0x255E8, symBinAddr: 0x10002E344, symSize: 0x28 }
  - { offsetInCU: 0x532B4, offset: 0x67C41, size: 0x8, addend: 0x0, symName: __ZNKSt3__112basic_stringIwNS_11char_traitsIwEENS_9allocatorIwEEE4sizeB7v160006Ev, symObjAddr: 0x25610, symBinAddr: 0x10002E36C, symSize: 0x54 }
  - { offsetInCU: 0x532DA, offset: 0x67C67, size: 0x8, addend: 0x0, symName: __ZN7testing14TestPartResult14ExtractSummaryEPKc, symObjAddr: 0x25664, symBinAddr: 0x10002E3C0, symSize: 0x70 }
  - { offsetInCU: 0x5330E, offset: 0x67C9B, size: 0x8, addend: 0x0, symName: __ZNK7testing19TestPartResultArray17GetTestPartResultEi, symObjAddr: 0x25810, symBinAddr: 0x10002E56C, symSize: 0x8C }
  - { offsetInCU: 0x53344, offset: 0x67CD1, size: 0x8, addend: 0x0, symName: __ZNK7testing19TestPartResultArray4sizeEv, symObjAddr: 0x2589C, symBinAddr: 0x10002E5F8, symSize: 0x24 }
  - { offsetInCU: 0x5336C, offset: 0x67CF9, size: 0x8, addend: 0x0, symName: __ZNKSt3__16vectorIN7testing14TestPartResultENS_9allocatorIS2_EEEixB7v160006Em, symObjAddr: 0x258C0, symBinAddr: 0x10002E61C, symSize: 0x2C }
  - { offsetInCU: 0x533B7, offset: 0x67D44, size: 0x8, addend: 0x0, symName: __ZN7testing8internal24HasNewFatalFailureHelperC2Ev, symObjAddr: 0x258EC, symBinAddr: 0x10002E648, symSize: 0xB4 }
  - { offsetInCU: 0x533E3, offset: 0x67D70, size: 0x8, addend: 0x0, symName: __ZN7testing8internal24HasNewFatalFailureHelperC1Ev, symObjAddr: 0x259A0, symBinAddr: 0x10002E6FC, symSize: 0x2C }
  - { offsetInCU: 0x5340F, offset: 0x67D9C, size: 0x8, addend: 0x0, symName: __ZN7testing8internal24HasNewFatalFailureHelperD2Ev, symObjAddr: 0x259CC, symBinAddr: 0x10002E728, symSize: 0x64 }
  - { offsetInCU: 0x5343B, offset: 0x67DC8, size: 0x8, addend: 0x0, symName: __ZN7testing8internal24HasNewFatalFailureHelperD1Ev, symObjAddr: 0x25A30, symBinAddr: 0x10002E78C, symSize: 0x2C }
  - { offsetInCU: 0x53467, offset: 0x67DF4, size: 0x8, addend: 0x0, symName: __ZN7testing8internal24HasNewFatalFailureHelperD0Ev, symObjAddr: 0x25A5C, symBinAddr: 0x10002E7B8, symSize: 0x30 }
  - { offsetInCU: 0x53493, offset: 0x67E20, size: 0x8, addend: 0x0, symName: __ZN7testing8internal24HasNewFatalFailureHelper20ReportTestPartResultERKNS_14TestPartResultE, symObjAddr: 0x25A8C, symBinAddr: 0x10002E7E8, symSize: 0x60 }
  - { offsetInCU: 0x534C9, offset: 0x67E56, size: 0x8, addend: 0x0, symName: __ZNK7testing14TestPartResult14fatally_failedEv, symObjAddr: 0x25AEC, symBinAddr: 0x10002E848, symSize: 0x24 }
  - { offsetInCU: 0x535DF, offset: 0x67F6C, size: 0x8, addend: 0x0, symName: __ZN7testing8internal19TypedTestCasePState25VerifyRegisteredTestNamesEPKciS3_, symObjAddr: 0x25B10, symBinAddr: 0x10002E86C, symSize: 0x4B4 }
  - { offsetInCU: 0x5375A, offset: 0x680E7, size: 0x8, addend: 0x0, symName: __ZNSt3__13setINS_12basic_stringIcNS_11char_traitsIcEENS_9allocatorIcEEEENS_4lessIS6_EENS4_IS6_EEEC1B7v160006Ev, symObjAddr: 0x26118, symBinAddr: 0x10002EE74, symSize: 0x2C }
  - { offsetInCU: 0x53784, offset: 0x68111, size: 0x8, addend: 0x0, symName: __ZNSt3__16vectorINS_12basic_stringIcNS_11char_traitsIcEENS_9allocatorIcEEEENS4_IS6_EEE5beginB7v160006Ev, symObjAddr: 0x26144, symBinAddr: 0x10002EEA0, symSize: 0x30 }
  - { offsetInCU: 0x537B1, offset: 0x6813E, size: 0x8, addend: 0x0, symName: __ZNSt3__111__wrap_iterIPKNS_12basic_stringIcNS_11char_traitsIcEENS_9allocatorIcEEEEEC1B7v160006IPS6_EERKNS0_IT_EEPNS_9enable_ifIXsr14is_convertibleISC_S8_EE5valueEvE4typeE, symObjAddr: 0x26174, symBinAddr: 0x10002EED0, symSize: 0x3C }
  - { offsetInCU: 0x537FD, offset: 0x6818A, size: 0x8, addend: 0x0, symName: __ZNSt3__16vectorINS_12basic_stringIcNS_11char_traitsIcEENS_9allocatorIcEEEENS4_IS6_EEE3endB7v160006Ev, symObjAddr: 0x261E4, symBinAddr: 0x10002EF40, symSize: 0x30 }
  - { offsetInCU: 0x53825, offset: 0x681B2, size: 0x8, addend: 0x0, symName: __ZNKSt3__111__wrap_iterIPKNS_12basic_stringIcNS_11char_traitsIcEENS_9allocatorIcEEEEEdeB7v160006Ev, symObjAddr: 0x26214, symBinAddr: 0x10002EF70, symSize: 0x18 }
  - { offsetInCU: 0x5384B, offset: 0x681D8, size: 0x8, addend: 0x0, symName: __ZNKSt3__13setINS_12basic_stringIcNS_11char_traitsIcEENS_9allocatorIcEEEENS_4lessIS6_EENS4_IS6_EEE5countB7v160006ERKS6_, symObjAddr: 0x2622C, symBinAddr: 0x10002EF88, symSize: 0x2C }
  - { offsetInCU: 0x53880, offset: 0x6820D, size: 0x8, addend: 0x0, symName: __ZNSt3__13mapINS_12basic_stringIcNS_11char_traitsIcEENS_9allocatorIcEEEEN7testing8internal12CodeLocationENS_4lessIS6_EENS4_INS_4pairIKS6_S9_EEEEE5beginB7v160006Ev, symObjAddr: 0x26258, symBinAddr: 0x10002EFB4, symSize: 0x38 }
  - { offsetInCU: 0x538A6, offset: 0x68233, size: 0x8, addend: 0x0, symName: __ZNSt3__120__map_const_iteratorINS_21__tree_const_iteratorINS_12__value_typeINS_12basic_stringIcNS_11char_traitsIcEENS_9allocatorIcEEEEN7testing8internal12CodeLocationEEEPNS_11__tree_nodeISC_PvEElEEEC1B7v160006ENS_14__map_iteratorINS_15__tree_iteratorISC_SG_lEEEE, symObjAddr: 0x26290, symBinAddr: 0x10002EFEC, symSize: 0x34 }
  - { offsetInCU: 0x538DF, offset: 0x6826C, size: 0x8, addend: 0x0, symName: __ZNSt3__13mapINS_12basic_stringIcNS_11char_traitsIcEENS_9allocatorIcEEEEN7testing8internal12CodeLocationENS_4lessIS6_EENS4_INS_4pairIKS6_S9_EEEEE3endB7v160006Ev, symObjAddr: 0x262F4, symBinAddr: 0x10002F050, symSize: 0x38 }
  - { offsetInCU: 0x53905, offset: 0x68292, size: 0x8, addend: 0x0, symName: __ZNKSt3__120__map_const_iteratorINS_21__tree_const_iteratorINS_12__value_typeINS_12basic_stringIcNS_11char_traitsIcEENS_9allocatorIcEEEEN7testing8internal12CodeLocationEEEPNS_11__tree_nodeISC_PvEElEEEptB7v160006Ev, symObjAddr: 0x26474, symBinAddr: 0x10002F088, symSize: 0x2C }
  - { offsetInCU: 0x5392B, offset: 0x682B8, size: 0x8, addend: 0x0, symName: __ZNSt3__120__map_const_iteratorINS_21__tree_const_iteratorINS_12__value_typeINS_12basic_stringIcNS_11char_traitsIcEENS_9allocatorIcEEEEN7testing8internal12CodeLocationEEEPNS_11__tree_nodeISC_PvEElEEEppB7v160006Ev, symObjAddr: 0x264A0, symBinAddr: 0x10002F0B4, symSize: 0x2C }
  - { offsetInCU: 0x53951, offset: 0x682DE, size: 0x8, addend: 0x0, symName: __ZNSt3__13setINS_12basic_stringIcNS_11char_traitsIcEENS_9allocatorIcEEEENS_4lessIS6_EENS4_IS6_EEE6insertB7v160006ERKS6_, symObjAddr: 0x264CC, symBinAddr: 0x10002F0E0, symSize: 0x4C }
  - { offsetInCU: 0x5399C, offset: 0x68329, size: 0x8, addend: 0x0, symName: __ZN7testing7MessagelsIA34_cEERS0_RKT_, symObjAddr: 0x26518, symBinAddr: 0x10002F12C, symSize: 0x3C }
  - { offsetInCU: 0x539E0, offset: 0x6836D, size: 0x8, addend: 0x0, symName: __ZNSt3__111__wrap_iterIPKNS_12basic_stringIcNS_11char_traitsIcEENS_9allocatorIcEEEEEppB7v160006Ev, symObjAddr: 0x26554, symBinAddr: 0x10002F168, symSize: 0x20 }
  - { offsetInCU: 0x53A1C, offset: 0x683A9, size: 0x8, addend: 0x0, symName: __ZN7testing7MessagelsIA25_cEERS0_RKT_, symObjAddr: 0x26574, symBinAddr: 0x10002F188, symSize: 0x3C }
  - { offsetInCU: 0x53A60, offset: 0x683ED, size: 0x8, addend: 0x0, symName: __ZNSt3__13setINS_12basic_stringIcNS_11char_traitsIcEENS_9allocatorIcEEEENS_4lessIS6_EENS4_IS6_EEED1B7v160006Ev, symObjAddr: 0x265B0, symBinAddr: 0x10002F1C4, symSize: 0x2C }
  - { offsetInCU: 0x53A8A, offset: 0x68417, size: 0x8, addend: 0x0, symName: __ZN7testing8internal18OsStackTraceGetterD1Ev, symObjAddr: 0x265DC, symBinAddr: 0x10002F1F0, symSize: 0x2C }
  - { offsetInCU: 0x53AB7, offset: 0x68444, size: 0x8, addend: 0x0, symName: __ZN7testing8internal18OsStackTraceGetterD0Ev, symObjAddr: 0x26608, symBinAddr: 0x10002F21C, symSize: 0x30 }
  - { offsetInCU: 0x53AE4, offset: 0x68471, size: 0x8, addend: 0x0, symName: __ZN7testing8internal35DefaultGlobalTestPartResultReporterD0Ev, symObjAddr: 0x26638, symBinAddr: 0x10002F24C, symSize: 0x30 }
  - { offsetInCU: 0x53B11, offset: 0x6849E, size: 0x8, addend: 0x0, symName: __ZN7testing8internal38DefaultPerThreadTestPartResultReporterD0Ev, symObjAddr: 0x26668, symBinAddr: 0x10002F27C, symSize: 0x30 }
  - { offsetInCU: 0x53B3E, offset: 0x684CB, size: 0x8, addend: 0x0, symName: __ZN7testing8internal27PrettyUnitTestResultPrinterD1Ev, symObjAddr: 0x266AC, symBinAddr: 0x10002F2AC, symSize: 0x2C }
  - { offsetInCU: 0x53B6B, offset: 0x684F8, size: 0x8, addend: 0x0, symName: __ZN7testing8internal27PrettyUnitTestResultPrinterD0Ev, symObjAddr: 0x266D8, symBinAddr: 0x10002F2D8, symSize: 0x30 }
  - { offsetInCU: 0x53B98, offset: 0x68525, size: 0x8, addend: 0x0, symName: __ZN7testing8internal27PrettyUnitTestResultPrinter18OnTestProgramStartERKNS_8UnitTestE, symObjAddr: 0x26708, symBinAddr: 0x10002F308, symSize: 0x14 }
  - { offsetInCU: 0x53BCA, offset: 0x68557, size: 0x8, addend: 0x0, symName: __ZN7testing8internal27PrettyUnitTestResultPrinter22OnEnvironmentsSetUpEndERKNS_8UnitTestE, symObjAddr: 0x2671C, symBinAddr: 0x10002F31C, symSize: 0x14 }
  - { offsetInCU: 0x53BFC, offset: 0x68589, size: 0x8, addend: 0x0, symName: __ZN7testing8internal27PrettyUnitTestResultPrinter25OnEnvironmentsTearDownEndERKNS_8UnitTestE, symObjAddr: 0x26730, symBinAddr: 0x10002F330, symSize: 0x14 }
  - { offsetInCU: 0x53C2E, offset: 0x685BB, size: 0x8, addend: 0x0, symName: __ZN7testing8internal27PrettyUnitTestResultPrinter16OnTestProgramEndERKNS_8UnitTestE, symObjAddr: 0x26744, symBinAddr: 0x10002F344, symSize: 0x14 }
  - { offsetInCU: 0x53C60, offset: 0x685ED, size: 0x8, addend: 0x0, symName: __ZN7testing8internal24XmlUnitTestResultPrinterD0Ev, symObjAddr: 0x26758, symBinAddr: 0x10002F358, symSize: 0x30 }
  - { offsetInCU: 0x53C8D, offset: 0x6861A, size: 0x8, addend: 0x0, symName: __ZN7testing22EmptyTestEventListener18OnTestProgramStartERKNS_8UnitTestE, symObjAddr: 0x26788, symBinAddr: 0x10002F388, symSize: 0x14 }
  - { offsetInCU: 0x53CBF, offset: 0x6864C, size: 0x8, addend: 0x0, symName: __ZN7testing22EmptyTestEventListener20OnTestIterationStartERKNS_8UnitTestEi, symObjAddr: 0x2679C, symBinAddr: 0x10002F39C, symSize: 0x18 }
  - { offsetInCU: 0x53CFD, offset: 0x6868A, size: 0x8, addend: 0x0, symName: __ZN7testing22EmptyTestEventListener24OnEnvironmentsSetUpStartERKNS_8UnitTestE, symObjAddr: 0x267B4, symBinAddr: 0x10002F3B4, symSize: 0x14 }
  - { offsetInCU: 0x53D2F, offset: 0x686BC, size: 0x8, addend: 0x0, symName: __ZN7testing22EmptyTestEventListener22OnEnvironmentsSetUpEndERKNS_8UnitTestE, symObjAddr: 0x267C8, symBinAddr: 0x10002F3C8, symSize: 0x14 }
  - { offsetInCU: 0x53D61, offset: 0x686EE, size: 0x8, addend: 0x0, symName: __ZN7testing22EmptyTestEventListener15OnTestCaseStartERKNS_8TestCaseE, symObjAddr: 0x267DC, symBinAddr: 0x10002F3DC, symSize: 0x14 }
  - { offsetInCU: 0x53D93, offset: 0x68720, size: 0x8, addend: 0x0, symName: __ZN7testing22EmptyTestEventListener11OnTestStartERKNS_8TestInfoE, symObjAddr: 0x267F0, symBinAddr: 0x10002F3F0, symSize: 0x14 }
  - { offsetInCU: 0x53DC5, offset: 0x68752, size: 0x8, addend: 0x0, symName: __ZN7testing22EmptyTestEventListener16OnTestPartResultERKNS_14TestPartResultE, symObjAddr: 0x26804, symBinAddr: 0x10002F404, symSize: 0x14 }
  - { offsetInCU: 0x53DF7, offset: 0x68784, size: 0x8, addend: 0x0, symName: __ZN7testing22EmptyTestEventListener9OnTestEndERKNS_8TestInfoE, symObjAddr: 0x26818, symBinAddr: 0x10002F418, symSize: 0x14 }
  - { offsetInCU: 0x53E29, offset: 0x687B6, size: 0x8, addend: 0x0, symName: __ZN7testing22EmptyTestEventListener13OnTestCaseEndERKNS_8TestCaseE, symObjAddr: 0x2682C, symBinAddr: 0x10002F42C, symSize: 0x14 }
  - { offsetInCU: 0x53E5B, offset: 0x687E8, size: 0x8, addend: 0x0, symName: __ZN7testing22EmptyTestEventListener27OnEnvironmentsTearDownStartERKNS_8UnitTestE, symObjAddr: 0x26840, symBinAddr: 0x10002F440, symSize: 0x14 }
  - { offsetInCU: 0x53E8D, offset: 0x6881A, size: 0x8, addend: 0x0, symName: __ZN7testing22EmptyTestEventListener25OnEnvironmentsTearDownEndERKNS_8UnitTestE, symObjAddr: 0x26854, symBinAddr: 0x10002F454, symSize: 0x14 }
  - { offsetInCU: 0x53EBF, offset: 0x6884C, size: 0x8, addend: 0x0, symName: __ZN7testing22EmptyTestEventListener16OnTestProgramEndERKNS_8UnitTestE, symObjAddr: 0x26868, symBinAddr: 0x10002F468, symSize: 0x14 }
  - { offsetInCU: 0x53EF1, offset: 0x6887E, size: 0x8, addend: 0x0, symName: __ZN7testing8internal25JsonUnitTestResultPrinterD0Ev, symObjAddr: 0x2687C, symBinAddr: 0x10002F47C, symSize: 0x30 }
  - { offsetInCU: 0x53F1E, offset: 0x688AB, size: 0x8, addend: 0x0, symName: __ZN7testing8internal23DefaultDeathTestFactoryD1Ev, symObjAddr: 0x268AC, symBinAddr: 0x10002F4AC, symSize: 0x2C }
  - { offsetInCU: 0x53F4A, offset: 0x688D7, size: 0x8, addend: 0x0, symName: __ZN7testing8internal23DefaultDeathTestFactoryD0Ev, symObjAddr: 0x268D8, symBinAddr: 0x10002F4D8, symSize: 0x30 }
  - { offsetInCU: 0x53F76, offset: 0x68903, size: 0x8, addend: 0x0, symName: __ZN7testing8internal13DeathTestImplD1Ev, symObjAddr: 0x26908, symBinAddr: 0x10002F508, symSize: 0x14 }
  - { offsetInCU: 0x53FA0, offset: 0x6892D, size: 0x8, addend: 0x0, symName: __ZN7testing8internal13DeathTestImplD0Ev, symObjAddr: 0x2691C, symBinAddr: 0x10002F51C, symSize: 0xC }
  - { offsetInCU: 0x53FCA, offset: 0x68957, size: 0x8, addend: 0x0, symName: __ZN7testing8internal16ForkingDeathTestD1Ev, symObjAddr: 0x26928, symBinAddr: 0x10002F528, symSize: 0x14 }
  - { offsetInCU: 0x53FF7, offset: 0x68984, size: 0x8, addend: 0x0, symName: __ZN7testing8internal16ForkingDeathTestD0Ev, symObjAddr: 0x2693C, symBinAddr: 0x10002F53C, symSize: 0xC }
  - { offsetInCU: 0x54024, offset: 0x689B1, size: 0x8, addend: 0x0, symName: __ZN7testing8internal15NoExecDeathTestD1Ev, symObjAddr: 0x26948, symBinAddr: 0x10002F548, symSize: 0x2C }
  - { offsetInCU: 0x54051, offset: 0x689DE, size: 0x8, addend: 0x0, symName: __ZN7testing8internal15NoExecDeathTestD0Ev, symObjAddr: 0x26974, symBinAddr: 0x10002F574, symSize: 0x30 }
  - { offsetInCU: 0x5407E, offset: 0x68A0B, size: 0x8, addend: 0x0, symName: __ZN7testing8internal13ExecDeathTestD1Ev, symObjAddr: 0x269A4, symBinAddr: 0x10002F5A4, symSize: 0x2C }
  - { offsetInCU: 0x540AB, offset: 0x68A38, size: 0x8, addend: 0x0, symName: __ZN7testing8internal13ExecDeathTestD0Ev, symObjAddr: 0x269D0, symBinAddr: 0x10002F5D0, symSize: 0x30 }
  - { offsetInCU: 0x540D8, offset: 0x68A65, size: 0x8, addend: 0x0, symName: __ZN7testing8internal26GoogleTestFailureExceptionD0Ev, symObjAddr: 0x26A00, symBinAddr: 0x10002F600, symSize: 0x30 }
  - { offsetInCU: 0x54104, offset: 0x68A91, size: 0x8, addend: 0x0, symName: __ZN7testing8internal9DeathTestD1Ev, symObjAddr: 0x26A30, symBinAddr: 0x10002F630, symSize: 0x14 }
  - { offsetInCU: 0x5412E, offset: 0x68ABB, size: 0x8, addend: 0x0, symName: __ZN7testing8internal9DeathTestD0Ev, symObjAddr: 0x26A44, symBinAddr: 0x10002F644, symSize: 0xC }
  - { offsetInCU: 0x54158, offset: 0x68AE5, size: 0x8, addend: 0x0, symName: __ZN7testing7MatcherIRKNSt3__112basic_stringIcNS1_11char_traitsIcEENS1_9allocatorIcEEEEED0Ev, symObjAddr: 0x26A50, symBinAddr: 0x10002F650, symSize: 0x30 }
  - { offsetInCU: 0x54185, offset: 0x68B12, size: 0x8, addend: 0x0, symName: __ZN7testing7MatcherINSt3__112basic_stringIcNS1_11char_traitsIcEENS1_9allocatorIcEEEEED0Ev, symObjAddr: 0x26A80, symBinAddr: 0x10002F680, symSize: 0x30 }
  - { offsetInCU: 0x541B2, offset: 0x68B3F, size: 0x8, addend: 0x0, symName: __ZN7testing8internal12AssertHelper16AssertHelperDataC2ENS_14TestPartResult4TypeEPKciS6_, symObjAddr: 0x26AB0, symBinAddr: 0x10002F6B0, symSize: 0x5C }
  - { offsetInCU: 0x54218, offset: 0x68BA5, size: 0x8, addend: 0x0, symName: __ZN7testing8internal12AssertHelper16AssertHelperDataD2Ev, symObjAddr: 0x26B0C, symBinAddr: 0x10002F70C, symSize: 0x30 }
  - { offsetInCU: 0x54245, offset: 0x68BD2, size: 0x8, addend: 0x0, symName: __ZN7testing8internal8FilePathC2Ev, symObjAddr: 0x26B3C, symBinAddr: 0x10002F73C, symSize: 0x34 }
  - { offsetInCU: 0x5426F, offset: 0x68BFC, size: 0x8, addend: 0x0, symName: __ZN7testing8internal8FilePathC2ERKNSt3__112basic_stringIcNS2_11char_traitsIcEENS2_9allocatorIcEEEE, symObjAddr: 0x26B70, symBinAddr: 0x10002F770, symSize: 0x64 }
  - { offsetInCU: 0x542A7, offset: 0x68C34, size: 0x8, addend: 0x0, symName: __ZN7testing8internal8FilePathD2Ev, symObjAddr: 0x26BD4, symBinAddr: 0x10002F7D4, symSize: 0x2C }
  - { offsetInCU: 0x542D3, offset: 0x68C60, size: 0x8, addend: 0x0, symName: __ZN7testing31TestPartResultReporterInterfaceD1Ev, symObjAddr: 0x26C00, symBinAddr: 0x10002F800, symSize: 0x14 }
  - { offsetInCU: 0x542FD, offset: 0x68C8A, size: 0x8, addend: 0x0, symName: __ZN7testing31TestPartResultReporterInterfaceD0Ev, symObjAddr: 0x26C14, symBinAddr: 0x10002F814, symSize: 0xC }
  - { offsetInCU: 0x54327, offset: 0x68CB4, size: 0x8, addend: 0x0, symName: __ZN7testing7MessagelsINS_14TestPartResultEEERS0_RKT_, symObjAddr: 0x26C20, symBinAddr: 0x10002F820, symSize: 0x3C }
  - { offsetInCU: 0x5436B, offset: 0x68CF8, size: 0x8, addend: 0x0, symName: __ZN7testing15AssertionResultlsIA11_cEERS0_RKT_, symObjAddr: 0x26C5C, symBinAddr: 0x10002F85C, symSize: 0x84 }
  - { offsetInCU: 0x543A9, offset: 0x68D36, size: 0x8, addend: 0x0, symName: __ZN7testing15AssertionResultlsINS_14TestPartResultEEERS0_RKT_, symObjAddr: 0x26CE0, symBinAddr: 0x10002F8E0, symSize: 0x84 }
  - { offsetInCU: 0x543FD, offset: 0x68D8A, size: 0x8, addend: 0x0, symName: __ZN7testing15AssertionResultlsIA14_cEERS0_RKT_, symObjAddr: 0x26D64, symBinAddr: 0x10002F964, symSize: 0x84 }
  - { offsetInCU: 0x5443B, offset: 0x68DC8, size: 0x8, addend: 0x0, symName: __ZN7testing15AssertionResult13AppendMessageERKNS_7MessageE, symObjAddr: 0x26DE8, symBinAddr: 0x10002F9E8, symSize: 0xCC }
  - { offsetInCU: 0x54470, offset: 0x68DFD, size: 0x8, addend: 0x0, symName: __ZNKSt3__110unique_ptrINS_12basic_stringIcNS_11char_traitsIcEENS_9allocatorIcEEEENS_14default_deleteIS6_EEEptB7v160006Ev, symObjAddr: 0x26F2C, symBinAddr: 0x10002FAB4, symSize: 0x28 }
  - { offsetInCU: 0x54496, offset: 0x68E23, size: 0x8, addend: 0x0, symName: __ZNKSt3__117__compressed_pairIPNS_12basic_stringIcNS_11char_traitsIcEENS_9allocatorIcEEEENS_14default_deleteIS6_EEE5firstB7v160006Ev, symObjAddr: 0x27010, symBinAddr: 0x10002FADC, symSize: 0x24 }
  - { offsetInCU: 0x544BC, offset: 0x68E49, size: 0x8, addend: 0x0, symName: __ZNKSt3__122__compressed_pair_elemIPNS_12basic_stringIcNS_11char_traitsIcEENS_9allocatorIcEEEELi0ELb0EE5__getB7v160006Ev, symObjAddr: 0x27034, symBinAddr: 0x10002FB00, symSize: 0x14 }
  - { offsetInCU: 0x544E2, offset: 0x68E6F, size: 0x8, addend: 0x0, symName: __ZN7testing7MessagelsIA14_cEERS0_RKT_, symObjAddr: 0x27048, symBinAddr: 0x10002FB14, symSize: 0x3C }
  - { offsetInCU: 0x54526, offset: 0x68EB3, size: 0x8, addend: 0x0, symName: __ZN7testing8internal14GTestMutexLockC2EPNS0_9MutexBaseE, symObjAddr: 0x2713C, symBinAddr: 0x10002FB50, symSize: 0x3C }
  - { offsetInCU: 0x5455F, offset: 0x68EEC, size: 0x8, addend: 0x0, symName: __ZN7testing8internal9MutexBase4LockEv, symObjAddr: 0x27178, symBinAddr: 0x10002FB8C, symSize: 0xE0 }
  - { offsetInCU: 0x5459A, offset: 0x68F27, size: 0x8, addend: 0x0, symName: __ZN7testing8internal14GTestMutexLockD2Ev, symObjAddr: 0x27258, symBinAddr: 0x10002FC6C, symSize: 0x38 }
  - { offsetInCU: 0x545C4, offset: 0x68F51, size: 0x8, addend: 0x0, symName: __ZN7testing8internal9MutexBase6UnlockEv, symObjAddr: 0x27290, symBinAddr: 0x10002FCA4, symSize: 0xCC }
  - { offsetInCU: 0x545FF, offset: 0x68F8C, size: 0x8, addend: 0x0, symName: __ZNK7testing8TestCase6PassedEv, symObjAddr: 0x2735C, symBinAddr: 0x10002FD70, symSize: 0x2C }
  - { offsetInCU: 0x54625, offset: 0x68FB2, size: 0x8, addend: 0x0, symName: __ZNK7testing8TestCase6FailedEv, symObjAddr: 0x27388, symBinAddr: 0x10002FD9C, symSize: 0x30 }
  - { offsetInCU: 0x5464B, offset: 0x68FD8, size: 0x8, addend: 0x0, symName: __ZNSt3__18__iom_t5C1B7v160006Ei, symObjAddr: 0x273B8, symBinAddr: 0x10002FDCC, symSize: 0x34 }
  - { offsetInCU: 0x54683, offset: 0x69010, size: 0x8, addend: 0x0, symName: __ZNSt3__18__iom_t5C2B7v160006Ei, symObjAddr: 0x273EC, symBinAddr: 0x10002FE00, symSize: 0x20 }
  - { offsetInCU: 0x546BB, offset: 0x69048, size: 0x8, addend: 0x0, symName: __ZN7testing8internal13edit_distance12_GLOBAL__N_115InternalStringsC2Ev, symObjAddr: 0x2740C, symBinAddr: 0x10002FE20, symSize: 0x2C }
  - { offsetInCU: 0x546E8, offset: 0x69075, size: 0x8, addend: 0x0, symName: __ZNSt3__13mapINS_12basic_stringIcNS_11char_traitsIcEENS_9allocatorIcEEEEmNS_4lessIS6_EENS4_INS_4pairIKS6_mEEEEEC1B7v160006Ev, symObjAddr: 0x27438, symBinAddr: 0x10002FE4C, symSize: 0x2C }
  - { offsetInCU: 0x54712, offset: 0x6909F, size: 0x8, addend: 0x0, symName: __ZNSt3__13mapINS_12basic_stringIcNS_11char_traitsIcEENS_9allocatorIcEEEEmNS_4lessIS6_EENS4_INS_4pairIKS6_mEEEEEC2B7v160006Ev, symObjAddr: 0x27464, symBinAddr: 0x10002FE78, symSize: 0x40 }
  - { offsetInCU: 0x5473C, offset: 0x690C9, size: 0x8, addend: 0x0, symName: __ZNSt3__119__map_value_compareINS_12basic_stringIcNS_11char_traitsIcEENS_9allocatorIcEEEENS_12__value_typeIS6_mEENS_4lessIS6_EELb1EEC1B7v160006ESA_, symObjAddr: 0x274A4, symBinAddr: 0x10002FEB8, symSize: 0x2C }
  - { offsetInCU: 0x54775, offset: 0x69102, size: 0x8, addend: 0x0, symName: __ZNSt3__16__treeINS_12__value_typeINS_12basic_stringIcNS_11char_traitsIcEENS_9allocatorIcEEEEmEENS_19__map_value_compareIS7_S8_NS_4lessIS7_EELb1EEENS5_IS8_EEEC1ERKSC_, symObjAddr: 0x274D0, symBinAddr: 0x10002FEE4, symSize: 0x34 }
  - { offsetInCU: 0x547B0, offset: 0x6913D, size: 0x8, addend: 0x0, symName: __ZNSt3__119__map_value_compareINS_12basic_stringIcNS_11char_traitsIcEENS_9allocatorIcEEEENS_12__value_typeIS6_mEENS_4lessIS6_EELb1EEC2B7v160006ESA_, symObjAddr: 0x27504, symBinAddr: 0x10002FF18, symSize: 0x14 }
  - { offsetInCU: 0x547E9, offset: 0x69176, size: 0x8, addend: 0x0, symName: __ZNSt3__16__treeINS_12__value_typeINS_12basic_stringIcNS_11char_traitsIcEENS_9allocatorIcEEEEmEENS_19__map_value_compareIS7_S8_NS_4lessIS7_EELb1EEENS5_IS8_EEEC2ERKSC_, symObjAddr: 0x27518, symBinAddr: 0x10002FF2C, symSize: 0x7C }
  - { offsetInCU: 0x54824, offset: 0x691B1, size: 0x8, addend: 0x0, symName: __ZNSt3__117__compressed_pairINS_15__tree_end_nodeIPNS_16__tree_node_baseIPvEEEENS_9allocatorINS_11__tree_nodeINS_12__value_typeINS_12basic_stringIcNS_11char_traitsIcEENS7_IcEEEEmEES3_EEEEEC1B7v160006ILb1EvEEv, symObjAddr: 0x27594, symBinAddr: 0x10002FFA8, symSize: 0x2C }
  - { offsetInCU: 0x5485E, offset: 0x691EB, size: 0x8, addend: 0x0, symName: __ZNSt3__117__compressed_pairImNS_19__map_value_compareINS_12basic_stringIcNS_11char_traitsIcEENS_9allocatorIcEEEENS_12__value_typeIS7_mEENS_4lessIS7_EELb1EEEEC1B7v160006IiRKSC_EEOT_OT0_, symObjAddr: 0x275C0, symBinAddr: 0x10002FFD4, symSize: 0x3C }
  - { offsetInCU: 0x548B6, offset: 0x69243, size: 0x8, addend: 0x0, symName: __ZNSt3__16__treeINS_12__value_typeINS_12basic_stringIcNS_11char_traitsIcEENS_9allocatorIcEEEEmEENS_19__map_value_compareIS7_S8_NS_4lessIS7_EELb1EEENS5_IS8_EEE10__end_nodeB7v160006Ev, symObjAddr: 0x275FC, symBinAddr: 0x100030010, symSize: 0x2C }
  - { offsetInCU: 0x548DC, offset: 0x69269, size: 0x8, addend: 0x0, symName: __ZNSt3__16__treeINS_12__value_typeINS_12basic_stringIcNS_11char_traitsIcEENS_9allocatorIcEEEEmEENS_19__map_value_compareIS7_S8_NS_4lessIS7_EELb1EEENS5_IS8_EEE12__begin_nodeB7v160006Ev, symObjAddr: 0x27628, symBinAddr: 0x10003003C, symSize: 0x14 }
  - { offsetInCU: 0x54902, offset: 0x6928F, size: 0x8, addend: 0x0, symName: __ZNSt3__117__compressed_pairINS_15__tree_end_nodeIPNS_16__tree_node_baseIPvEEEENS_9allocatorINS_11__tree_nodeINS_12__value_typeINS_12basic_stringIcNS_11char_traitsIcEENS7_IcEEEEmEES3_EEEEEC2B7v160006ILb1EvEEv, symObjAddr: 0x2763C, symBinAddr: 0x100030050, symSize: 0x34 }
  - { offsetInCU: 0x54937, offset: 0x692C4, size: 0x8, addend: 0x0, symName: __ZNSt3__122__compressed_pair_elemINS_15__tree_end_nodeIPNS_16__tree_node_baseIPvEEEELi0ELb0EEC2B7v160006ENS_16__value_init_tagE, symObjAddr: 0x27670, symBinAddr: 0x100030084, symSize: 0x2C }
  - { offsetInCU: 0x5496C, offset: 0x692F9, size: 0x8, addend: 0x0, symName: __ZNSt3__122__compressed_pair_elemINS_9allocatorINS_11__tree_nodeINS_12__value_typeINS_12basic_stringIcNS_11char_traitsIcEENS1_IcEEEEmEEPvEEEELi1ELb1EEC2B7v160006ENS_16__value_init_tagE, symObjAddr: 0x2769C, symBinAddr: 0x1000300B0, symSize: 0x2C }
  - { offsetInCU: 0x549A1, offset: 0x6932E, size: 0x8, addend: 0x0, symName: __ZNSt3__115__tree_end_nodeIPNS_16__tree_node_baseIPvEEEC1B7v160006Ev, symObjAddr: 0x276C8, symBinAddr: 0x1000300DC, symSize: 0x2C }
  - { offsetInCU: 0x549CB, offset: 0x69358, size: 0x8, addend: 0x0, symName: __ZNSt3__115__tree_end_nodeIPNS_16__tree_node_baseIPvEEEC2B7v160006Ev, symObjAddr: 0x276F4, symBinAddr: 0x100030108, symSize: 0x18 }
  - { offsetInCU: 0x549F5, offset: 0x69382, size: 0x8, addend: 0x0, symName: __ZNSt3__19allocatorINS_11__tree_nodeINS_12__value_typeINS_12basic_stringIcNS_11char_traitsIcEENS0_IcEEEEmEEPvEEEC2B7v160006Ev, symObjAddr: 0x2770C, symBinAddr: 0x100030120, symSize: 0x2C }
  - { offsetInCU: 0x54A1F, offset: 0x693AC, size: 0x8, addend: 0x0, symName: __ZNSt3__116__non_trivial_ifILb1ENS_9allocatorINS_11__tree_nodeINS_12__value_typeINS_12basic_stringIcNS_11char_traitsIcEENS1_IcEEEEmEEPvEEEEEC2B7v160006Ev, symObjAddr: 0x27738, symBinAddr: 0x10003014C, symSize: 0x14 }
  - { offsetInCU: 0x54A49, offset: 0x693D6, size: 0x8, addend: 0x0, symName: __ZNSt3__117__compressed_pairImNS_19__map_value_compareINS_12basic_stringIcNS_11char_traitsIcEENS_9allocatorIcEEEENS_12__value_typeIS7_mEENS_4lessIS7_EELb1EEEEC2B7v160006IiRKSC_EEOT_OT0_, symObjAddr: 0x2774C, symBinAddr: 0x100030160, symSize: 0x44 }
  - { offsetInCU: 0x54AA1, offset: 0x6942E, size: 0x8, addend: 0x0, symName: __ZNSt3__122__compressed_pair_elemINS_19__map_value_compareINS_12basic_stringIcNS_11char_traitsIcEENS_9allocatorIcEEEENS_12__value_typeIS7_mEENS_4lessIS7_EELb1EEELi1ELb1EEC2B7v160006IRKSC_vEEOT_, symObjAddr: 0x277B4, symBinAddr: 0x1000301A4, symSize: 0x18 }
  - { offsetInCU: 0x54AE3, offset: 0x69470, size: 0x8, addend: 0x0, symName: __ZNSt3__114pointer_traitsIPNS_15__tree_end_nodeIPNS_16__tree_node_baseIPvEEEEE10pointer_toB7v160006ERS6_, symObjAddr: 0x277CC, symBinAddr: 0x1000301BC, symSize: 0x14 }
  - { offsetInCU: 0x54B06, offset: 0x69493, size: 0x8, addend: 0x0, symName: __ZNSt3__117__compressed_pairINS_15__tree_end_nodeIPNS_16__tree_node_baseIPvEEEENS_9allocatorINS_11__tree_nodeINS_12__value_typeINS_12basic_stringIcNS_11char_traitsIcEENS7_IcEEEEmEES3_EEEEE5firstB7v160006Ev, symObjAddr: 0x277E0, symBinAddr: 0x1000301D0, symSize: 0x24 }
  - { offsetInCU: 0x54B2C, offset: 0x694B9, size: 0x8, addend: 0x0, symName: __ZNSt3__122__compressed_pair_elemINS_15__tree_end_nodeIPNS_16__tree_node_baseIPvEEEELi0ELb0EE5__getB7v160006Ev, symObjAddr: 0x27804, symBinAddr: 0x1000301F4, symSize: 0x14 }
  - { offsetInCU: 0x54B52, offset: 0x694DF, size: 0x8, addend: 0x0, symName: __ZNSt3__13mapINS_12basic_stringIcNS_11char_traitsIcEENS_9allocatorIcEEEEmNS_4lessIS6_EENS4_INS_4pairIKS6_mEEEEE4findB7v160006ERSA_, symObjAddr: 0x27818, symBinAddr: 0x100030208, symSize: 0x40 }
  - { offsetInCU: 0x54B87, offset: 0x69514, size: 0x8, addend: 0x0, symName: __ZNSt3__13mapINS_12basic_stringIcNS_11char_traitsIcEENS_9allocatorIcEEEEmNS_4lessIS6_EENS4_INS_4pairIKS6_mEEEEE3endB7v160006Ev, symObjAddr: 0x27888, symBinAddr: 0x100030278, symSize: 0x38 }
  - { offsetInCU: 0x54BAD, offset: 0x6953A, size: 0x8, addend: 0x0, symName: __ZNKSt3__114__map_iteratorINS_15__tree_iteratorINS_12__value_typeINS_12basic_stringIcNS_11char_traitsIcEENS_9allocatorIcEEEEmEEPNS_11__tree_nodeIS9_PvEElEEEptB7v160006Ev, symObjAddr: 0x278C0, symBinAddr: 0x1000302B0, symSize: 0x2C }
  - { offsetInCU: 0x54BD3, offset: 0x69560, size: 0x8, addend: 0x0, symName: __ZNKSt3__13mapINS_12basic_stringIcNS_11char_traitsIcEENS_9allocatorIcEEEEmNS_4lessIS6_EENS4_INS_4pairIKS6_mEEEEE4sizeB7v160006Ev, symObjAddr: 0x278EC, symBinAddr: 0x1000302DC, symSize: 0x28 }
  - { offsetInCU: 0x54BF9, offset: 0x69586, size: 0x8, addend: 0x0, symName: __ZNSt3__13mapINS_12basic_stringIcNS_11char_traitsIcEENS_9allocatorIcEEEEmNS_4lessIS6_EENS4_INS_4pairIKS6_mEEEEEixERSA_, symObjAddr: 0x27914, symBinAddr: 0x100030304, symSize: 0x80 }
  - { offsetInCU: 0x54C30, offset: 0x695BD, size: 0x8, addend: 0x0, symName: __ZNSt3__16__treeINS_12__value_typeINS_12basic_stringIcNS_11char_traitsIcEENS_9allocatorIcEEEEmEENS_19__map_value_compareIS7_S8_NS_4lessIS7_EELb1EEENS5_IS8_EEE4findIS7_EENS_15__tree_iteratorIS8_PNS_11__tree_nodeIS8_PvEElEERKT_, symObjAddr: 0x27994, symBinAddr: 0x100030384, symSize: 0xF8 }
  - { offsetInCU: 0x54C7F, offset: 0x6960C, size: 0x8, addend: 0x0, symName: __ZNSt3__114__map_iteratorINS_15__tree_iteratorINS_12__value_typeINS_12basic_stringIcNS_11char_traitsIcEENS_9allocatorIcEEEEmEEPNS_11__tree_nodeIS9_PvEElEEEC1B7v160006ESE_, symObjAddr: 0x27A8C, symBinAddr: 0x10003047C, symSize: 0x34 }
  - { offsetInCU: 0x54CB8, offset: 0x69645, size: 0x8, addend: 0x0, symName: __ZNSt3__16__treeINS_12__value_typeINS_12basic_stringIcNS_11char_traitsIcEENS_9allocatorIcEEEEmEENS_19__map_value_compareIS7_S8_NS_4lessIS7_EELb1EEENS5_IS8_EEE13__lower_boundIS7_EENS_15__tree_iteratorIS8_PNS_11__tree_nodeIS8_PvEElEERKT_SK_PNS_15__tree_end_nodeIPNS_16__tree_node_baseISI_EEEE, symObjAddr: 0x27AC0, symBinAddr: 0x1000304B0, symSize: 0xA4 }
  - { offsetInCU: 0x54D16, offset: 0x696A3, size: 0x8, addend: 0x0, symName: __ZNKSt3__16__treeINS_12__value_typeINS_12basic_stringIcNS_11char_traitsIcEENS_9allocatorIcEEEEmEENS_19__map_value_compareIS7_S8_NS_4lessIS7_EELb1EEENS5_IS8_EEE6__rootB7v160006Ev, symObjAddr: 0x27B64, symBinAddr: 0x100030554, symSize: 0x28 }
  - { offsetInCU: 0x54D3C, offset: 0x696C9, size: 0x8, addend: 0x0, symName: __ZNSt3__16__treeINS_12__value_typeINS_12basic_stringIcNS_11char_traitsIcEENS_9allocatorIcEEEEmEENS_19__map_value_compareIS7_S8_NS_4lessIS7_EELb1EEENS5_IS8_EEE3endB7v160006Ev, symObjAddr: 0x27BC0, symBinAddr: 0x1000305B0, symSize: 0x34 }
  - { offsetInCU: 0x54D62, offset: 0x696EF, size: 0x8, addend: 0x0, symName: __ZNSt3__16__treeINS_12__value_typeINS_12basic_stringIcNS_11char_traitsIcEENS_9allocatorIcEEEEmEENS_19__map_value_compareIS7_S8_NS_4lessIS7_EELb1EEENS5_IS8_EEE10value_compB7v160006Ev, symObjAddr: 0x27BF4, symBinAddr: 0x1000305E4, symSize: 0x28 }
  - { offsetInCU: 0x54D88, offset: 0x69715, size: 0x8, addend: 0x0, symName: __ZNKSt3__119__map_value_compareINS_12basic_stringIcNS_11char_traitsIcEENS_9allocatorIcEEEENS_12__value_typeIS6_mEENS_4lessIS6_EELb1EEclB7v160006ERKS6_RKS8_, symObjAddr: 0x27C1C, symBinAddr: 0x10003060C, symSize: 0x50 }
  - { offsetInCU: 0x54DCC, offset: 0x69759, size: 0x8, addend: 0x0, symName: __ZNKSt3__115__tree_iteratorINS_12__value_typeINS_12basic_stringIcNS_11char_traitsIcEENS_9allocatorIcEEEEmEEPNS_11__tree_nodeIS8_PvEElEdeB7v160006Ev, symObjAddr: 0x27C6C, symBinAddr: 0x10003065C, symSize: 0x28 }
  - { offsetInCU: 0x54DF2, offset: 0x6977F, size: 0x8, addend: 0x0, symName: __ZNKSt3__119__map_value_compareINS_12basic_stringIcNS_11char_traitsIcEENS_9allocatorIcEEEENS_12__value_typeIS6_mEENS_4lessIS6_EELb1EEclB7v160006ERKS8_RKS6_, symObjAddr: 0x27C94, symBinAddr: 0x100030684, symSize: 0x48 }
  - { offsetInCU: 0x54E36, offset: 0x697C3, size: 0x8, addend: 0x0, symName: __ZNSt3__115__tree_iteratorINS_12__value_typeINS_12basic_stringIcNS_11char_traitsIcEENS_9allocatorIcEEEEmEEPNS_11__tree_nodeIS8_PvEElEC1B7v160006EPNS_15__tree_end_nodeIPNS_16__tree_node_baseISA_EEEE, symObjAddr: 0x27CDC, symBinAddr: 0x1000306CC, symSize: 0x34 }
  - { offsetInCU: 0x54E6F, offset: 0x697FC, size: 0x8, addend: 0x0, symName: __ZNKSt3__14lessINS_12basic_stringIcNS_11char_traitsIcEENS_9allocatorIcEEEEEclB7v160006ERKS6_S9_, symObjAddr: 0x27D10, symBinAddr: 0x100030700, symSize: 0x34 }
  - { offsetInCU: 0x54EB3, offset: 0x69840, size: 0x8, addend: 0x0, symName: __ZNKSt3__112__value_typeINS_12basic_stringIcNS_11char_traitsIcEENS_9allocatorIcEEEEmE11__get_valueB7v160006Ev, symObjAddr: 0x27D44, symBinAddr: 0x100030734, symSize: 0x14 }
  - { offsetInCU: 0x54ED9, offset: 0x69866, size: 0x8, addend: 0x0, symName: __ZNKSt3__112basic_stringIcNS_11char_traitsIcEENS_9allocatorIcEEE7compareB7v160006ERKS5_, symObjAddr: 0x27D90, symBinAddr: 0x100030780, symSize: 0x4C }
  - { offsetInCU: 0x54F10, offset: 0x6989D, size: 0x8, addend: 0x0, symName: __ZNKSt3__112basic_stringIcNS_11char_traitsIcEENS_9allocatorIcEEE7compareINS_17basic_string_viewIcS2_EEEENS_9enable_ifIXsr33__can_be_converted_to_string_viewIcS2_T_EE5valueEiE4typeERKSA_, symObjAddr: 0x27DDC, symBinAddr: 0x1000307CC, symSize: 0x12C }
  - { offsetInCU: 0x54F8D, offset: 0x6991A, size: 0x8, addend: 0x0, symName: __ZNKSt3__112basic_stringIcNS_11char_traitsIcEENS_9allocatorIcEEEcvNS_17basic_string_viewIcS2_EEB7v160006Ev, symObjAddr: 0x27F08, symBinAddr: 0x1000308F8, symSize: 0x50 }
  - { offsetInCU: 0x54FB3, offset: 0x69940, size: 0x8, addend: 0x0, symName: __ZNKSt3__117basic_string_viewIcNS_11char_traitsIcEEE4sizeB7v160006Ev, symObjAddr: 0x27F58, symBinAddr: 0x100030948, symSize: 0x18 }
  - { offsetInCU: 0x54FD9, offset: 0x69966, size: 0x8, addend: 0x0, symName: __ZNKSt3__117basic_string_viewIcNS_11char_traitsIcEEE4dataB7v160006Ev, symObjAddr: 0x27FDC, symBinAddr: 0x100030960, symSize: 0x18 }
  - { offsetInCU: 0x54FFF, offset: 0x6998C, size: 0x8, addend: 0x0, symName: __ZNSt3__117basic_string_viewIcNS_11char_traitsIcEEEC1B7v160006EPKcm, symObjAddr: 0x28028, symBinAddr: 0x100030978, symSize: 0x3C }
  - { offsetInCU: 0x55047, offset: 0x699D4, size: 0x8, addend: 0x0, symName: __ZNSt3__117basic_string_viewIcNS_11char_traitsIcEEEC2B7v160006EPKcm, symObjAddr: 0x28064, symBinAddr: 0x1000309B4, symSize: 0x2C }
  - { offsetInCU: 0x5508F, offset: 0x69A1C, size: 0x8, addend: 0x0, symName: __ZNSt3__115__tree_iteratorINS_12__value_typeINS_12basic_stringIcNS_11char_traitsIcEENS_9allocatorIcEEEEmEEPNS_11__tree_nodeIS8_PvEElEC2B7v160006EPNS_15__tree_end_nodeIPNS_16__tree_node_baseISA_EEEE, symObjAddr: 0x28090, symBinAddr: 0x1000309E0, symSize: 0x20 }
  - { offsetInCU: 0x550C8, offset: 0x69A55, size: 0x8, addend: 0x0, symName: __ZNKSt3__16__treeINS_12__value_typeINS_12basic_stringIcNS_11char_traitsIcEENS_9allocatorIcEEEEmEENS_19__map_value_compareIS7_S8_NS_4lessIS7_EELb1EEENS5_IS8_EEE10__end_nodeB7v160006Ev, symObjAddr: 0x280B0, symBinAddr: 0x100030A00, symSize: 0x2C }
  - { offsetInCU: 0x550EE, offset: 0x69A7B, size: 0x8, addend: 0x0, symName: __ZNKSt3__117__compressed_pairINS_15__tree_end_nodeIPNS_16__tree_node_baseIPvEEEENS_9allocatorINS_11__tree_nodeINS_12__value_typeINS_12basic_stringIcNS_11char_traitsIcEENS7_IcEEEEmEES3_EEEEE5firstB7v160006Ev, symObjAddr: 0x280DC, symBinAddr: 0x100030A2C, symSize: 0x24 }
  - { offsetInCU: 0x55114, offset: 0x69AA1, size: 0x8, addend: 0x0, symName: __ZNKSt3__122__compressed_pair_elemINS_15__tree_end_nodeIPNS_16__tree_node_baseIPvEEEELi0ELb0EE5__getB7v160006Ev, symObjAddr: 0x28100, symBinAddr: 0x100030A50, symSize: 0x14 }
  - { offsetInCU: 0x5513A, offset: 0x69AC7, size: 0x8, addend: 0x0, symName: __ZNSt3__117__compressed_pairImNS_19__map_value_compareINS_12basic_stringIcNS_11char_traitsIcEENS_9allocatorIcEEEENS_12__value_typeIS7_mEENS_4lessIS7_EELb1EEEE6secondB7v160006Ev, symObjAddr: 0x28144, symBinAddr: 0x100030A94, symSize: 0x24 }
  - { offsetInCU: 0x55160, offset: 0x69AED, size: 0x8, addend: 0x0, symName: __ZNSt3__122__compressed_pair_elemINS_19__map_value_compareINS_12basic_stringIcNS_11char_traitsIcEENS_9allocatorIcEEEENS_12__value_typeIS7_mEENS_4lessIS7_EELb1EEELi1ELb1EE5__getB7v160006Ev, symObjAddr: 0x28168, symBinAddr: 0x100030AB8, symSize: 0x14 }
  - { offsetInCU: 0x55186, offset: 0x69B13, size: 0x8, addend: 0x0, symName: __ZNKSt3__115__tree_iteratorINS_12__value_typeINS_12basic_stringIcNS_11char_traitsIcEENS_9allocatorIcEEEEmEEPNS_11__tree_nodeIS8_PvEElE8__get_npB7v160006Ev, symObjAddr: 0x2817C, symBinAddr: 0x100030ACC, symSize: 0x18 }
  - { offsetInCU: 0x551AC, offset: 0x69B39, size: 0x8, addend: 0x0, symName: __ZNSt3__114__map_iteratorINS_15__tree_iteratorINS_12__value_typeINS_12basic_stringIcNS_11char_traitsIcEENS_9allocatorIcEEEEmEEPNS_11__tree_nodeIS9_PvEElEEEC2B7v160006ESE_, symObjAddr: 0x28194, symBinAddr: 0x100030AE4, symSize: 0x20 }
  - { offsetInCU: 0x551E5, offset: 0x69B72, size: 0x8, addend: 0x0, symName: __ZNSt3__114pointer_traitsIPNS_4pairIKNS_12basic_stringIcNS_11char_traitsIcEENS_9allocatorIcEEEEmEEE10pointer_toB7v160006ERS9_, symObjAddr: 0x281B4, symBinAddr: 0x100030B04, symSize: 0x14 }
  - { offsetInCU: 0x55208, offset: 0x69B95, size: 0x8, addend: 0x0, symName: __ZNKSt3__115__tree_iteratorINS_12__value_typeINS_12basic_stringIcNS_11char_traitsIcEENS_9allocatorIcEEEEmEEPNS_11__tree_nodeIS8_PvEElEptB7v160006Ev, symObjAddr: 0x281C8, symBinAddr: 0x100030B18, symSize: 0x2C }
  - { offsetInCU: 0x5522E, offset: 0x69BBB, size: 0x8, addend: 0x0, symName: __ZNSt3__112__value_typeINS_12basic_stringIcNS_11char_traitsIcEENS_9allocatorIcEEEEmE11__get_valueB7v160006Ev, symObjAddr: 0x281F4, symBinAddr: 0x100030B44, symSize: 0x14 }
  - { offsetInCU: 0x55254, offset: 0x69BE1, size: 0x8, addend: 0x0, symName: __ZNSt3__114pointer_traitsIPNS_12__value_typeINS_12basic_stringIcNS_11char_traitsIcEENS_9allocatorIcEEEEmEEE10pointer_toB7v160006ERS8_, symObjAddr: 0x28208, symBinAddr: 0x100030B58, symSize: 0x14 }
  - { offsetInCU: 0x55277, offset: 0x69C04, size: 0x8, addend: 0x0, symName: __ZNKSt3__16__treeINS_12__value_typeINS_12basic_stringIcNS_11char_traitsIcEENS_9allocatorIcEEEEmEENS_19__map_value_compareIS7_S8_NS_4lessIS7_EELb1EEENS5_IS8_EEE4sizeB7v160006Ev, symObjAddr: 0x2821C, symBinAddr: 0x100030B6C, symSize: 0x28 }
  - { offsetInCU: 0x5529D, offset: 0x69C2A, size: 0x8, addend: 0x0, symName: __ZNKSt3__117__compressed_pairImNS_19__map_value_compareINS_12basic_stringIcNS_11char_traitsIcEENS_9allocatorIcEEEENS_12__value_typeIS7_mEENS_4lessIS7_EELb1EEEE5firstB7v160006Ev, symObjAddr: 0x28244, symBinAddr: 0x100030B94, symSize: 0x24 }
  - { offsetInCU: 0x552D7, offset: 0x69C64, size: 0x8, addend: 0x0, symName: __ZNSt3__16__treeINS_12__value_typeINS_12basic_stringIcNS_11char_traitsIcEENS_9allocatorIcEEEEmEENS_19__map_value_compareIS7_S8_NS_4lessIS7_EELb1EEENS5_IS8_EEE25__emplace_unique_key_argsIS7_JRKNS_21piecewise_construct_tENS_5tupleIJRKS7_EEENSJ_IJEEEEEENS_4pairINS_15__tree_iteratorIS8_PNS_11__tree_nodeIS8_PvEElEEbEERKT_DpOT0_, symObjAddr: 0x2827C, symBinAddr: 0x100030BB8, symSize: 0x100 }
  - { offsetInCU: 0x553AD, offset: 0x69D3A, size: 0x8, addend: 0x0, symName: __ZNSt3__16__treeINS_12__value_typeINS_12basic_stringIcNS_11char_traitsIcEENS_9allocatorIcEEEEmEENS_19__map_value_compareIS7_S8_NS_4lessIS7_EELb1EEENS5_IS8_EEE12__find_equalIS7_EERPNS_16__tree_node_baseIPvEERPNS_15__tree_end_nodeISJ_EERKT_, symObjAddr: 0x283AC, symBinAddr: 0x100030CE8, symSize: 0x184 }
  - { offsetInCU: 0x5541A, offset: 0x69DA7, size: 0x8, addend: 0x0, symName: __ZNSt3__16__treeINS_12__value_typeINS_12basic_stringIcNS_11char_traitsIcEENS_9allocatorIcEEEEmEENS_19__map_value_compareIS7_S8_NS_4lessIS7_EELb1EEENS5_IS8_EEE16__construct_nodeIJRKNS_21piecewise_construct_tENS_5tupleIJRKS7_EEENSJ_IJEEEEEENS_10unique_ptrINS_11__tree_nodeIS8_PvEENS_22__tree_node_destructorINS5_ISR_EEEEEEDpOT_, symObjAddr: 0x28530, symBinAddr: 0x100030E6C, symSize: 0x120 }
  - { offsetInCU: 0x554A3, offset: 0x69E30, size: 0x8, addend: 0x0, symName: __ZNSt3__16__treeINS_12__value_typeINS_12basic_stringIcNS_11char_traitsIcEENS_9allocatorIcEEEEmEENS_19__map_value_compareIS7_S8_NS_4lessIS7_EELb1EEENS5_IS8_EEE16__insert_node_atEPNS_15__tree_end_nodeIPNS_16__tree_node_baseIPvEEEERSJ_SJ_, symObjAddr: 0x28650, symBinAddr: 0x100030F8C, symSize: 0xCC }
  - { offsetInCU: 0x554F8, offset: 0x69E85, size: 0x8, addend: 0x0, symName: __ZNKSt3__110unique_ptrINS_11__tree_nodeINS_12__value_typeINS_12basic_stringIcNS_11char_traitsIcEENS_9allocatorIcEEEEmEEPvEENS_22__tree_node_destructorINS6_ISB_EEEEE3getB7v160006Ev, symObjAddr: 0x2871C, symBinAddr: 0x100031058, symSize: 0x28 }
  - { offsetInCU: 0x5551E, offset: 0x69EAB, size: 0x8, addend: 0x0, symName: __ZNSt3__110unique_ptrINS_11__tree_nodeINS_12__value_typeINS_12basic_stringIcNS_11char_traitsIcEENS_9allocatorIcEEEEmEEPvEENS_22__tree_node_destructorINS6_ISB_EEEEE7releaseB7v160006Ev, symObjAddr: 0x28744, symBinAddr: 0x100031080, symSize: 0x44 }
  - { offsetInCU: 0x55553, offset: 0x69EE0, size: 0x8, addend: 0x0, symName: __ZNSt3__110unique_ptrINS_11__tree_nodeINS_12__value_typeINS_12basic_stringIcNS_11char_traitsIcEENS_9allocatorIcEEEEmEEPvEENS_22__tree_node_destructorINS6_ISB_EEEEED1B7v160006Ev, symObjAddr: 0x28788, symBinAddr: 0x1000310C4, symSize: 0x2C }
  - { offsetInCU: 0x5557D, offset: 0x69F0A, size: 0x8, addend: 0x0, symName: __ZNSt3__115__tree_iteratorINS_12__value_typeINS_12basic_stringIcNS_11char_traitsIcEENS_9allocatorIcEEEEmEEPNS_11__tree_nodeIS8_PvEElEC1B7v160006ESC_, symObjAddr: 0x287B4, symBinAddr: 0x1000310F0, symSize: 0x34 }
  - { offsetInCU: 0x555BB, offset: 0x69F48, size: 0x8, addend: 0x0, symName: __ZNSt3__14pairINS_15__tree_iteratorINS_12__value_typeINS_12basic_stringIcNS_11char_traitsIcEENS_9allocatorIcEEEEmEEPNS_11__tree_nodeIS9_PvEElEEbEC1B7v160006ISE_RbLSB_0EEEOT_OT0_, symObjAddr: 0x287E8, symBinAddr: 0x100031124, symSize: 0x3C }
  - { offsetInCU: 0x55619, offset: 0x69FA6, size: 0x8, addend: 0x0, symName: __ZNKSt3__16__treeINS_12__value_typeINS_12basic_stringIcNS_11char_traitsIcEENS_9allocatorIcEEEEmEENS_19__map_value_compareIS7_S8_NS_4lessIS7_EELb1EEENS5_IS8_EEE10__root_ptrEv, symObjAddr: 0x28824, symBinAddr: 0x100031160, symSize: 0x24 }
  - { offsetInCU: 0x5563F, offset: 0x69FCC, size: 0x8, addend: 0x0, symName: __ZNSt3__16__treeINS_12__value_typeINS_12basic_stringIcNS_11char_traitsIcEENS_9allocatorIcEEEEmEENS_19__map_value_compareIS7_S8_NS_4lessIS7_EELb1EEENS5_IS8_EEE12__node_allocB7v160006Ev, symObjAddr: 0x28848, symBinAddr: 0x100031184, symSize: 0x28 }
  - { offsetInCU: 0x55665, offset: 0x69FF2, size: 0x8, addend: 0x0, symName: __ZNSt3__116allocator_traitsINS_9allocatorINS_11__tree_nodeINS_12__value_typeINS_12basic_stringIcNS_11char_traitsIcEENS1_IcEEEEmEEPvEEEEE8allocateB7v160006ERSC_m, symObjAddr: 0x28870, symBinAddr: 0x1000311AC, symSize: 0x2C }
  - { offsetInCU: 0x55698, offset: 0x6A025, size: 0x8, addend: 0x0, symName: __ZNSt3__122__tree_node_destructorINS_9allocatorINS_11__tree_nodeINS_12__value_typeINS_12basic_stringIcNS_11char_traitsIcEENS1_IcEEEEmEEPvEEEEEC1B7v160006ERSC_b, symObjAddr: 0x2889C, symBinAddr: 0x1000311D8, symSize: 0x48 }
  - { offsetInCU: 0x556E5, offset: 0x6A072, size: 0x8, addend: 0x0, symName: __ZNSt3__110unique_ptrINS_11__tree_nodeINS_12__value_typeINS_12basic_stringIcNS_11char_traitsIcEENS_9allocatorIcEEEEmEEPvEENS_22__tree_node_destructorINS6_ISB_EEEEEC1B7v160006ILb1EvEEPSB_NS_16__dependent_typeINS_27__unique_ptr_deleter_sfinaeISE_EEXT_EE20__good_rval_ref_typeE, symObjAddr: 0x288E4, symBinAddr: 0x100031220, symSize: 0x3C }
  - { offsetInCU: 0x55736, offset: 0x6A0C3, size: 0x8, addend: 0x0, symName: __ZNSt3__116allocator_traitsINS_9allocatorINS_11__tree_nodeINS_12__value_typeINS_12basic_stringIcNS_11char_traitsIcEENS1_IcEEEEmEEPvEEEEE9constructB7v160006INS_4pairIKS8_mEEJRKNS_21piecewise_construct_tENS_5tupleIJRSG_EEENSL_IJEEEEvEEvRSC_PT_DpOT0_, symObjAddr: 0x28920, symBinAddr: 0x10003125C, symSize: 0x44 }
  - { offsetInCU: 0x557B5, offset: 0x6A142, size: 0x8, addend: 0x0, symName: __ZNSt3__122__tree_key_value_typesINS_12__value_typeINS_12basic_stringIcNS_11char_traitsIcEENS_9allocatorIcEEEEmEEE9__get_ptrB7v160006ERS8_, symObjAddr: 0x28964, symBinAddr: 0x1000312A0, symSize: 0x24 }
  - { offsetInCU: 0x557D9, offset: 0x6A166, size: 0x8, addend: 0x0, symName: __ZNKSt3__110unique_ptrINS_11__tree_nodeINS_12__value_typeINS_12basic_stringIcNS_11char_traitsIcEENS_9allocatorIcEEEEmEEPvEENS_22__tree_node_destructorINS6_ISB_EEEEEptB7v160006Ev, symObjAddr: 0x28988, symBinAddr: 0x1000312C4, symSize: 0x28 }
  - { offsetInCU: 0x557FF, offset: 0x6A18C, size: 0x8, addend: 0x0, symName: __ZNSt3__110unique_ptrINS_11__tree_nodeINS_12__value_typeINS_12basic_stringIcNS_11char_traitsIcEENS_9allocatorIcEEEEmEEPvEENS_22__tree_node_destructorINS6_ISB_EEEEE11get_deleterB7v160006Ev, symObjAddr: 0x289B0, symBinAddr: 0x1000312EC, symSize: 0x24 }
  - { offsetInCU: 0x55825, offset: 0x6A1B2, size: 0x8, addend: 0x0, symName: __ZNSt3__117__compressed_pairINS_15__tree_end_nodeIPNS_16__tree_node_baseIPvEEEENS_9allocatorINS_11__tree_nodeINS_12__value_typeINS_12basic_stringIcNS_11char_traitsIcEENS7_IcEEEEmEES3_EEEEE6secondB7v160006Ev, symObjAddr: 0x289D4, symBinAddr: 0x100031310, symSize: 0x24 }
  - { offsetInCU: 0x5584B, offset: 0x6A1D8, size: 0x8, addend: 0x0, symName: __ZNSt3__122__compressed_pair_elemINS_9allocatorINS_11__tree_nodeINS_12__value_typeINS_12basic_stringIcNS_11char_traitsIcEENS1_IcEEEEmEEPvEEEELi1ELb1EE5__getB7v160006Ev, symObjAddr: 0x289F8, symBinAddr: 0x100031334, symSize: 0x14 }
  - { offsetInCU: 0x55871, offset: 0x6A1FE, size: 0x8, addend: 0x0, symName: __ZNSt3__19allocatorINS_11__tree_nodeINS_12__value_typeINS_12basic_stringIcNS_11char_traitsIcEENS0_IcEEEEmEEPvEEE8allocateB7v160006Em, symObjAddr: 0x28A0C, symBinAddr: 0x100031348, symSize: 0x58 }
  - { offsetInCU: 0x558AF, offset: 0x6A23C, size: 0x8, addend: 0x0, symName: __ZNSt3__116allocator_traitsINS_9allocatorINS_11__tree_nodeINS_12__value_typeINS_12basic_stringIcNS_11char_traitsIcEENS1_IcEEEEmEEPvEEEEE8max_sizeB7v160006ISC_vEEmRKSC_, symObjAddr: 0x28A64, symBinAddr: 0x1000313A0, symSize: 0x24 }
  - { offsetInCU: 0x558DD, offset: 0x6A26A, size: 0x8, addend: 0x0, symName: __ZNKSt3__19allocatorINS_11__tree_nodeINS_12__value_typeINS_12basic_stringIcNS_11char_traitsIcEENS0_IcEEEEmEEPvEEE8max_sizeB7v160006Ev, symObjAddr: 0x28AE4, symBinAddr: 0x1000313C4, symSize: 0x14 }
  - { offsetInCU: 0x55903, offset: 0x6A290, size: 0x8, addend: 0x0, symName: __ZNSt3__122__tree_node_destructorINS_9allocatorINS_11__tree_nodeINS_12__value_typeINS_12basic_stringIcNS_11char_traitsIcEENS1_IcEEEEmEEPvEEEEEC2B7v160006ERSC_b, symObjAddr: 0x28B1C, symBinAddr: 0x1000313D8, symSize: 0x38 }
  - { offsetInCU: 0x5594B, offset: 0x6A2D8, size: 0x8, addend: 0x0, symName: __ZNSt3__110unique_ptrINS_11__tree_nodeINS_12__value_typeINS_12basic_stringIcNS_11char_traitsIcEENS_9allocatorIcEEEEmEEPvEENS_22__tree_node_destructorINS6_ISB_EEEEEC2B7v160006ILb1EvEEPSB_NS_16__dependent_typeINS_27__unique_ptr_deleter_sfinaeISE_EEXT_EE20__good_rval_ref_typeE, symObjAddr: 0x28B54, symBinAddr: 0x100031410, symSize: 0x48 }
  - { offsetInCU: 0x5599C, offset: 0x6A329, size: 0x8, addend: 0x0, symName: __ZNSt3__117__compressed_pairIPNS_11__tree_nodeINS_12__value_typeINS_12basic_stringIcNS_11char_traitsIcEENS_9allocatorIcEEEEmEEPvEENS_22__tree_node_destructorINS6_ISB_EEEEEC1B7v160006IRSC_SF_EEOT_OT0_, symObjAddr: 0x28B9C, symBinAddr: 0x100031458, symSize: 0x3C }
  - { offsetInCU: 0x559F4, offset: 0x6A381, size: 0x8, addend: 0x0, symName: __ZNSt3__117__compressed_pairIPNS_11__tree_nodeINS_12__value_typeINS_12basic_stringIcNS_11char_traitsIcEENS_9allocatorIcEEEEmEEPvEENS_22__tree_node_destructorINS6_ISB_EEEEEC2B7v160006IRSC_SF_EEOT_OT0_, symObjAddr: 0x28BD8, symBinAddr: 0x100031494, symSize: 0x48 }
  - { offsetInCU: 0x55A4C, offset: 0x6A3D9, size: 0x8, addend: 0x0, symName: __ZNSt3__122__compressed_pair_elemIPNS_11__tree_nodeINS_12__value_typeINS_12basic_stringIcNS_11char_traitsIcEENS_9allocatorIcEEEEmEEPvEELi0ELb0EEC2B7v160006IRSC_vEEOT_, symObjAddr: 0x28C20, symBinAddr: 0x1000314DC, symSize: 0x24 }
  - { offsetInCU: 0x55A8E, offset: 0x6A41B, size: 0x8, addend: 0x0, symName: __ZNSt3__122__compressed_pair_elemINS_22__tree_node_destructorINS_9allocatorINS_11__tree_nodeINS_12__value_typeINS_12basic_stringIcNS_11char_traitsIcEENS2_IcEEEEmEEPvEEEEEELi1ELb0EEC2B7v160006ISE_vEEOT_, symObjAddr: 0x28C44, symBinAddr: 0x100031500, symSize: 0x24 }
  - { offsetInCU: 0x55AD0, offset: 0x6A45D, size: 0x8, addend: 0x0, symName: __ZNSt3__19allocatorINS_11__tree_nodeINS_12__value_typeINS_12basic_stringIcNS_11char_traitsIcEENS0_IcEEEEmEEPvEEE9constructB7v160006INS_4pairIKS7_mEEJRKNS_21piecewise_construct_tENS_5tupleIJRSE_EEENSJ_IJEEEEEEvPT_DpOT0_, symObjAddr: 0x28C68, symBinAddr: 0x100031524, symSize: 0x44 }
  - { offsetInCU: 0x55B4C, offset: 0x6A4D9, size: 0x8, addend: 0x0, symName: __ZNSt3__14pairIKNS_12basic_stringIcNS_11char_traitsIcEENS_9allocatorIcEEEEmEC1B7v160006IJRS7_EJEEENS_21piecewise_construct_tENS_5tupleIJDpT_EEENSC_IJDpT0_EEE, symObjAddr: 0x28CAC, symBinAddr: 0x100031568, symSize: 0x3C }
  - { offsetInCU: 0x55BB3, offset: 0x6A540, size: 0x8, addend: 0x0, symName: __ZNSt3__14pairIKNS_12basic_stringIcNS_11char_traitsIcEENS_9allocatorIcEEEEmEC1B7v160006IJRS7_EJEJLm0EEJEEENS_21piecewise_construct_tERNS_5tupleIJDpT_EEERNSC_IJDpT0_EEENS_15__tuple_indicesIJXspT1_EEEENSL_IJXspT2_EEEE, symObjAddr: 0x28CE8, symBinAddr: 0x1000315A4, symSize: 0x3C }
  - { offsetInCU: 0x55C43, offset: 0x6A5D0, size: 0x8, addend: 0x0, symName: __ZNSt3__14pairIKNS_12basic_stringIcNS_11char_traitsIcEENS_9allocatorIcEEEEmEC2B7v160006IJRS7_EJEJLm0EEJEEENS_21piecewise_construct_tERNS_5tupleIJDpT_EEERNSC_IJDpT0_EEENS_15__tuple_indicesIJXspT1_EEEENSL_IJXspT2_EEEE, symObjAddr: 0x28D24, symBinAddr: 0x1000315E0, symSize: 0x48 }
  - { offsetInCU: 0x55CD3, offset: 0x6A660, size: 0x8, addend: 0x0, symName: __ZNSt3__112__tuple_leafILm0ERKNS_12basic_stringIcNS_11char_traitsIcEENS_9allocatorIcEEEELb0EE3getB7v160006Ev, symObjAddr: 0x28D90, symBinAddr: 0x10003164C, symSize: 0x18 }
  - { offsetInCU: 0x55CF9, offset: 0x6A686, size: 0x8, addend: 0x0, symName: __ZNKSt3__117__compressed_pairIPNS_11__tree_nodeINS_12__value_typeINS_12basic_stringIcNS_11char_traitsIcEENS_9allocatorIcEEEEmEEPvEENS_22__tree_node_destructorINS6_ISB_EEEEE5firstB7v160006Ev, symObjAddr: 0x28DA8, symBinAddr: 0x100031664, symSize: 0x24 }
  - { offsetInCU: 0x55D1F, offset: 0x6A6AC, size: 0x8, addend: 0x0, symName: __ZNKSt3__122__compressed_pair_elemIPNS_11__tree_nodeINS_12__value_typeINS_12basic_stringIcNS_11char_traitsIcEENS_9allocatorIcEEEEmEEPvEELi0ELb0EE5__getB7v160006Ev, symObjAddr: 0x28DCC, symBinAddr: 0x100031688, symSize: 0x14 }
  - { offsetInCU: 0x55D45, offset: 0x6A6D2, size: 0x8, addend: 0x0, symName: __ZNSt3__117__compressed_pairIPNS_11__tree_nodeINS_12__value_typeINS_12basic_stringIcNS_11char_traitsIcEENS_9allocatorIcEEEEmEEPvEENS_22__tree_node_destructorINS6_ISB_EEEEE6secondB7v160006Ev, symObjAddr: 0x28DE0, symBinAddr: 0x10003169C, symSize: 0x28 }
  - { offsetInCU: 0x55D6B, offset: 0x6A6F8, size: 0x8, addend: 0x0, symName: __ZNSt3__122__compressed_pair_elemINS_22__tree_node_destructorINS_9allocatorINS_11__tree_nodeINS_12__value_typeINS_12basic_stringIcNS_11char_traitsIcEENS2_IcEEEEmEEPvEEEEEELi1ELb0EE5__getB7v160006Ev, symObjAddr: 0x28E08, symBinAddr: 0x1000316C4, symSize: 0x14 }
  - { offsetInCU: 0x55D91, offset: 0x6A71E, size: 0x8, addend: 0x0, symName: __ZNSt3__16__treeINS_12__value_typeINS_12basic_stringIcNS_11char_traitsIcEENS_9allocatorIcEEEEmEENS_19__map_value_compareIS7_S8_NS_4lessIS7_EELb1EEENS5_IS8_EEE4sizeB7v160006Ev, symObjAddr: 0x29148, symBinAddr: 0x100031A04, symSize: 0x28 }
  - { offsetInCU: 0x55DB7, offset: 0x6A744, size: 0x8, addend: 0x0, symName: __ZNKSt3__116__tree_node_baseIPvE15__parent_unsafeB7v160006Ev, symObjAddr: 0x29170, symBinAddr: 0x100031A2C, symSize: 0x18 }
  - { offsetInCU: 0x55DDD, offset: 0x6A76A, size: 0x8, addend: 0x0, symName: __ZNSt3__116__tree_node_baseIPvE12__set_parentB7v160006EPS2_, symObjAddr: 0x29358, symBinAddr: 0x100031C14, symSize: 0x20 }
  - { offsetInCU: 0x55E12, offset: 0x6A79F, size: 0x8, addend: 0x0, symName: __ZNSt3__117__compressed_pairImNS_19__map_value_compareINS_12basic_stringIcNS_11char_traitsIcEENS_9allocatorIcEEEENS_12__value_typeIS7_mEENS_4lessIS7_EELb1EEEE5firstB7v160006Ev, symObjAddr: 0x29378, symBinAddr: 0x100031C34, symSize: 0x24 }
  - { offsetInCU: 0x55E38, offset: 0x6A7C5, size: 0x8, addend: 0x0, symName: __ZNSt3__117__compressed_pairIPNS_11__tree_nodeINS_12__value_typeINS_12basic_stringIcNS_11char_traitsIcEENS_9allocatorIcEEEEmEEPvEENS_22__tree_node_destructorINS6_ISB_EEEEE5firstB7v160006Ev, symObjAddr: 0x293B0, symBinAddr: 0x100031C58, symSize: 0x24 }
  - { offsetInCU: 0x55E5E, offset: 0x6A7EB, size: 0x8, addend: 0x0, symName: __ZNSt3__122__compressed_pair_elemIPNS_11__tree_nodeINS_12__value_typeINS_12basic_stringIcNS_11char_traitsIcEENS_9allocatorIcEEEEmEEPvEELi0ELb0EE5__getB7v160006Ev, symObjAddr: 0x293D4, symBinAddr: 0x100031C7C, symSize: 0x14 }
  - { offsetInCU: 0x55E84, offset: 0x6A811, size: 0x8, addend: 0x0, symName: __ZNSt3__110unique_ptrINS_11__tree_nodeINS_12__value_typeINS_12basic_stringIcNS_11char_traitsIcEENS_9allocatorIcEEEEmEEPvEENS_22__tree_node_destructorINS6_ISB_EEEEED2B7v160006Ev, symObjAddr: 0x293E8, symBinAddr: 0x100031C90, symSize: 0x30 }
  - { offsetInCU: 0x55EAE, offset: 0x6A83B, size: 0x8, addend: 0x0, symName: __ZNSt3__110unique_ptrINS_11__tree_nodeINS_12__value_typeINS_12basic_stringIcNS_11char_traitsIcEENS_9allocatorIcEEEEmEEPvEENS_22__tree_node_destructorINS6_ISB_EEEEE5resetB7v160006EPSB_, symObjAddr: 0x29418, symBinAddr: 0x100031CC0, symSize: 0x78 }
  - { offsetInCU: 0x55EF2, offset: 0x6A87F, size: 0x8, addend: 0x0, symName: __ZNSt3__122__tree_node_destructorINS_9allocatorINS_11__tree_nodeINS_12__value_typeINS_12basic_stringIcNS_11char_traitsIcEENS1_IcEEEEmEEPvEEEEEclB7v160006EPSB_, symObjAddr: 0x29490, symBinAddr: 0x100031D38, symSize: 0x90 }
  - { offsetInCU: 0x55F27, offset: 0x6A8B4, size: 0x8, addend: 0x0, symName: __ZNSt3__116allocator_traitsINS_9allocatorINS_11__tree_nodeINS_12__value_typeINS_12basic_stringIcNS_11char_traitsIcEENS1_IcEEEEmEEPvEEEEE7destroyB7v160006INS_4pairIKS8_mEEvvEEvRSC_PT_, symObjAddr: 0x29520, symBinAddr: 0x100031DC8, symSize: 0x28 }
  - { offsetInCU: 0x55F62, offset: 0x6A8EF, size: 0x8, addend: 0x0, symName: __ZNSt3__116allocator_traitsINS_9allocatorINS_11__tree_nodeINS_12__value_typeINS_12basic_stringIcNS_11char_traitsIcEENS1_IcEEEEmEEPvEEEEE10deallocateB7v160006ERSC_PSB_m, symObjAddr: 0x29548, symBinAddr: 0x100031DF0, symSize: 0x34 }
  - { offsetInCU: 0x55FA4, offset: 0x6A931, size: 0x8, addend: 0x0, symName: __ZNSt3__14pairIKNS_12basic_stringIcNS_11char_traitsIcEENS_9allocatorIcEEEEmED1Ev, symObjAddr: 0x2957C, symBinAddr: 0x100031E24, symSize: 0x2C }
  - { offsetInCU: 0x55FD0, offset: 0x6A95D, size: 0x8, addend: 0x0, symName: __ZNSt3__14pairIKNS_12basic_stringIcNS_11char_traitsIcEENS_9allocatorIcEEEEmED2Ev, symObjAddr: 0x295A8, symBinAddr: 0x100031E50, symSize: 0x2C }
  - { offsetInCU: 0x55FFC, offset: 0x6A989, size: 0x8, addend: 0x0, symName: __ZNSt3__19allocatorINS_11__tree_nodeINS_12__value_typeINS_12basic_stringIcNS_11char_traitsIcEENS0_IcEEEEmEEPvEEE10deallocateB7v160006EPSA_m, symObjAddr: 0x295D4, symBinAddr: 0x100031E7C, symSize: 0x40 }
  - { offsetInCU: 0x5603E, offset: 0x6A9CB, size: 0x8, addend: 0x0, symName: __ZNSt3__115__tree_iteratorINS_12__value_typeINS_12basic_stringIcNS_11char_traitsIcEENS_9allocatorIcEEEEmEEPNS_11__tree_nodeIS8_PvEElEC2B7v160006ESC_, symObjAddr: 0x29690, symBinAddr: 0x100031EBC, symSize: 0x20 }
  - { offsetInCU: 0x56077, offset: 0x6AA04, size: 0x8, addend: 0x0, symName: __ZNSt3__14pairINS_15__tree_iteratorINS_12__value_typeINS_12basic_stringIcNS_11char_traitsIcEENS_9allocatorIcEEEEmEEPNS_11__tree_nodeIS9_PvEElEEbEC2B7v160006ISE_RbLSB_0EEEOT_OT0_, symObjAddr: 0x296B0, symBinAddr: 0x100031EDC, symSize: 0x38 }
  - { offsetInCU: 0x560D5, offset: 0x6AA62, size: 0x8, addend: 0x0, symName: __ZNSt3__15tupleIJRKNS_12basic_stringIcNS_11char_traitsIcEENS_9allocatorIcEEEEEEC1B7v160006INS_4_AndELi0EEES8_, symObjAddr: 0x296E8, symBinAddr: 0x100031F14, symSize: 0x34 }
  - { offsetInCU: 0x5611F, offset: 0x6AAAC, size: 0x8, addend: 0x0, symName: __ZNSt3__15tupleIJRKNS_12basic_stringIcNS_11char_traitsIcEENS_9allocatorIcEEEEEEC2B7v160006INS_4_AndELi0EEES8_, symObjAddr: 0x2971C, symBinAddr: 0x100031F48, symSize: 0x34 }
  - { offsetInCU: 0x56169, offset: 0x6AAF6, size: 0x8, addend: 0x0, symName: __ZNSt3__112__tuple_implINS_15__tuple_indicesIJLm0EEEEJRKNS_12basic_stringIcNS_11char_traitsIcEENS_9allocatorIcEEEEEEC1B7v160006IJLm0EEJSA_EJEJEJSA_EEENS1_IJXspT_EEEENS_13__tuple_typesIJDpT0_EEENS1_IJXspT1_EEEENSE_IJDpT2_EEEDpOT3_, symObjAddr: 0x29750, symBinAddr: 0x100031F7C, symSize: 0x34 }
  - { offsetInCU: 0x561FE, offset: 0x6AB8B, size: 0x8, addend: 0x0, symName: __ZNSt3__112__tuple_implINS_15__tuple_indicesIJLm0EEEEJRKNS_12basic_stringIcNS_11char_traitsIcEENS_9allocatorIcEEEEEEC2B7v160006IJLm0EEJSA_EJEJEJSA_EEENS1_IJXspT_EEEENS_13__tuple_typesIJDpT0_EEENS1_IJXspT1_EEEENSE_IJDpT2_EEEDpOT3_, symObjAddr: 0x29784, symBinAddr: 0x100031FB0, symSize: 0x34 }
  - { offsetInCU: 0x56293, offset: 0x6AC20, size: 0x8, addend: 0x0, symName: __ZNSt3__112__tuple_leafILm0ERKNS_12basic_stringIcNS_11char_traitsIcEENS_9allocatorIcEEEELb0EEC2B7v160006IS8_vEEOT_, symObjAddr: 0x297B8, symBinAddr: 0x100031FE4, symSize: 0x20 }
  - { offsetInCU: 0x562D6, offset: 0x6AC63, size: 0x8, addend: 0x0, symName: __ZN7testing8internal13edit_distance12_GLOBAL__N_115InternalStringsD2Ev, symObjAddr: 0x297D8, symBinAddr: 0x100032004, symSize: 0x2C }
  - { offsetInCU: 0x56303, offset: 0x6AC90, size: 0x8, addend: 0x0, symName: __ZNSt3__13mapINS_12basic_stringIcNS_11char_traitsIcEENS_9allocatorIcEEEEmNS_4lessIS6_EENS4_INS_4pairIKS6_mEEEEED1B7v160006Ev, symObjAddr: 0x29804, symBinAddr: 0x100032030, symSize: 0x2C }
  - { offsetInCU: 0x5632D, offset: 0x6ACBA, size: 0x8, addend: 0x0, symName: __ZNSt3__13mapINS_12basic_stringIcNS_11char_traitsIcEENS_9allocatorIcEEEEmNS_4lessIS6_EENS4_INS_4pairIKS6_mEEEEED2B7v160006Ev, symObjAddr: 0x29830, symBinAddr: 0x10003205C, symSize: 0x2C }
  - { offsetInCU: 0x56357, offset: 0x6ACE4, size: 0x8, addend: 0x0, symName: __ZNSt3__16__treeINS_12__value_typeINS_12basic_stringIcNS_11char_traitsIcEENS_9allocatorIcEEEEmEENS_19__map_value_compareIS7_S8_NS_4lessIS7_EELb1EEENS5_IS8_EEED1Ev, symObjAddr: 0x2985C, symBinAddr: 0x100032088, symSize: 0x2C }
  - { offsetInCU: 0x56383, offset: 0x6AD10, size: 0x8, addend: 0x0, symName: __ZNSt3__16__treeINS_12__value_typeINS_12basic_stringIcNS_11char_traitsIcEENS_9allocatorIcEEEEmEENS_19__map_value_compareIS7_S8_NS_4lessIS7_EELb1EEENS5_IS8_EEED2Ev, symObjAddr: 0x29888, symBinAddr: 0x1000320B4, symSize: 0x38 }
  - { offsetInCU: 0x563AF, offset: 0x6AD3C, size: 0x8, addend: 0x0, symName: __ZNSt3__16__treeINS_12__value_typeINS_12basic_stringIcNS_11char_traitsIcEENS_9allocatorIcEEEEmEENS_19__map_value_compareIS7_S8_NS_4lessIS7_EELb1EEENS5_IS8_EEE7destroyEPNS_11__tree_nodeIS8_PvEE, symObjAddr: 0x298C0, symBinAddr: 0x1000320EC, symSize: 0x9C }
  - { offsetInCU: 0x56404, offset: 0x6AD91, size: 0x8, addend: 0x0, symName: __ZN7testing8internal13edit_distance12_GLOBAL__N_14HunkC2Emm, symObjAddr: 0x2995C, symBinAddr: 0x100032188, symSize: 0x6C }
  - { offsetInCU: 0x5644C, offset: 0x6ADD9, size: 0x8, addend: 0x0, symName: __ZNSt3__14listINS_4pairIcPKcEENS_9allocatorIS4_EEEC1B7v160006Ev, symObjAddr: 0x299C8, symBinAddr: 0x1000321F4, symSize: 0x2C }
  - { offsetInCU: 0x56476, offset: 0x6AE03, size: 0x8, addend: 0x0, symName: __ZNSt3__14listINS_4pairIcPKcEENS_9allocatorIS4_EEEC2B7v160006Ev, symObjAddr: 0x299F4, symBinAddr: 0x100032220, symSize: 0x3C }
  - { offsetInCU: 0x564A0, offset: 0x6AE2D, size: 0x8, addend: 0x0, symName: __ZNSt3__110__list_impINS_4pairIcPKcEENS_9allocatorIS4_EEEC2Ev, symObjAddr: 0x29A30, symBinAddr: 0x10003225C, symSize: 0x50 }
  - { offsetInCU: 0x564CC, offset: 0x6AE59, size: 0x8, addend: 0x0, symName: __ZNSt3__116__list_node_baseINS_4pairIcPKcEEPvEC1B7v160006Ev, symObjAddr: 0x29A90, symBinAddr: 0x1000322BC, symSize: 0x2C }
  - { offsetInCU: 0x564FB, offset: 0x6AE88, size: 0x8, addend: 0x0, symName: __ZNSt3__117__compressed_pairImNS_9allocatorINS_11__list_nodeINS_4pairIcPKcEEPvEEEEEC1B7v160006IiNS_18__default_init_tagEEEOT_OT0_, symObjAddr: 0x29ABC, symBinAddr: 0x1000322E8, symSize: 0x3C }
  - { offsetInCU: 0x56553, offset: 0x6AEE0, size: 0x8, addend: 0x0, symName: __ZNSt3__116__list_node_baseINS_4pairIcPKcEEPvEC2B7v160006Ev, symObjAddr: 0x29AF8, symBinAddr: 0x100032324, symSize: 0x4C }
  - { offsetInCU: 0x5657D, offset: 0x6AF0A, size: 0x8, addend: 0x0, symName: __ZNSt3__126__list_node_pointer_traitsINS_4pairIcPKcEEPvE26__unsafe_link_pointer_castB7v160006EPNS_16__list_node_baseIS4_S5_EE, symObjAddr: 0x29B44, symBinAddr: 0x100032370, symSize: 0x14 }
  - { offsetInCU: 0x565A1, offset: 0x6AF2E, size: 0x8, addend: 0x0, symName: __ZNSt3__116__list_node_baseINS_4pairIcPKcEEPvE6__selfB7v160006Ev, symObjAddr: 0x29B58, symBinAddr: 0x100032384, symSize: 0x24 }
  - { offsetInCU: 0x565CC, offset: 0x6AF59, size: 0x8, addend: 0x0, symName: __ZNSt3__114pointer_traitsIPNS_16__list_node_baseINS_4pairIcPKcEEPvEEE10pointer_toB7v160006ERS7_, symObjAddr: 0x29B7C, symBinAddr: 0x1000323A8, symSize: 0x14 }
  - { offsetInCU: 0x565EF, offset: 0x6AF7C, size: 0x8, addend: 0x0, symName: __ZNSt3__117__compressed_pairImNS_9allocatorINS_11__list_nodeINS_4pairIcPKcEEPvEEEEEC2B7v160006IiNS_18__default_init_tagEEEOT_OT0_, symObjAddr: 0x29B90, symBinAddr: 0x1000323BC, symSize: 0x40 }
  - { offsetInCU: 0x56647, offset: 0x6AFD4, size: 0x8, addend: 0x0, symName: __ZNSt3__122__compressed_pair_elemINS_9allocatorINS_11__list_nodeINS_4pairIcPKcEEPvEEEELi1ELb1EEC2B7v160006ENS_18__default_init_tagE, symObjAddr: 0x29BD0, symBinAddr: 0x1000323FC, symSize: 0x2C }
  - { offsetInCU: 0x5667C, offset: 0x6B009, size: 0x8, addend: 0x0, symName: __ZNSt3__19allocatorINS_11__list_nodeINS_4pairIcPKcEEPvEEEC2B7v160006Ev, symObjAddr: 0x29BFC, symBinAddr: 0x100032428, symSize: 0x2C }
  - { offsetInCU: 0x566A6, offset: 0x6B033, size: 0x8, addend: 0x0, symName: __ZNSt3__116__non_trivial_ifILb1ENS_9allocatorINS_11__list_nodeINS_4pairIcPKcEEPvEEEEEC2B7v160006Ev, symObjAddr: 0x29C28, symBinAddr: 0x100032454, symSize: 0x14 }
  - { offsetInCU: 0x566D0, offset: 0x6B05D, size: 0x8, addend: 0x0, symName: __ZN7testing8internal13edit_distance12_GLOBAL__N_14Hunk10FlushEditsEv, symObjAddr: 0x29C3C, symBinAddr: 0x100032468, symSize: 0x88 }
  - { offsetInCU: 0x566F6, offset: 0x6B083, size: 0x8, addend: 0x0, symName: __ZNSt3__14listINS_4pairIcPKcEENS_9allocatorIS4_EEE9push_backEOS4_, symObjAddr: 0x29CC4, symBinAddr: 0x1000324F0, symSize: 0xF4 }
  - { offsetInCU: 0x5674B, offset: 0x6B0D8, size: 0x8, addend: 0x0, symName: __ZNSt3__14listINS_4pairIcPKcEENS_9allocatorIS4_EEE6spliceENS_21__list_const_iteratorIS4_PvEERS7_, symObjAddr: 0x29DF0, symBinAddr: 0x10003261C, symSize: 0xAC }
  - { offsetInCU: 0x567BE, offset: 0x6B14B, size: 0x8, addend: 0x0, symName: __ZNSt3__14listINS_4pairIcPKcEENS_9allocatorIS4_EEE3endB7v160006Ev, symObjAddr: 0x29E9C, symBinAddr: 0x1000326C8, symSize: 0x2C }
  - { offsetInCU: 0x567E4, offset: 0x6B171, size: 0x8, addend: 0x0, symName: __ZNSt3__121__list_const_iteratorINS_4pairIcPKcEEPvEC1B7v160006ERKNS_15__list_iteratorIS4_S5_EE, symObjAddr: 0x29EC8, symBinAddr: 0x1000326F4, symSize: 0x34 }
  - { offsetInCU: 0x5681D, offset: 0x6B1AA, size: 0x8, addend: 0x0, symName: __ZNKSt3__14listINS_4pairIcPKcEENS_9allocatorIS4_EEE5emptyB7v160006Ev, symObjAddr: 0x29EFC, symBinAddr: 0x100032728, symSize: 0x28 }
  - { offsetInCU: 0x56843, offset: 0x6B1D0, size: 0x8, addend: 0x0, symName: __ZNSt3__110__list_impINS_4pairIcPKcEENS_9allocatorIS4_EEE14__unlink_nodesEPNS_16__list_node_baseIS4_PvEESB_, symObjAddr: 0x29F24, symBinAddr: 0x100032750, symSize: 0x3C }
  - { offsetInCU: 0x56878, offset: 0x6B205, size: 0x8, addend: 0x0, symName: __ZNSt3__14listINS_4pairIcPKcEENS_9allocatorIS4_EEE12__link_nodesEPNS_16__list_node_baseIS4_PvEESB_SB_, symObjAddr: 0x29F60, symBinAddr: 0x10003278C, symSize: 0x50 }
  - { offsetInCU: 0x568BC, offset: 0x6B249, size: 0x8, addend: 0x0, symName: __ZNSt3__110__list_impINS_4pairIcPKcEENS_9allocatorIS4_EEE4__szB7v160006Ev, symObjAddr: 0x29FB0, symBinAddr: 0x1000327DC, symSize: 0x28 }
  - { offsetInCU: 0x568E2, offset: 0x6B26F, size: 0x8, addend: 0x0, symName: __ZNKSt3__110__list_impINS_4pairIcPKcEENS_9allocatorIS4_EEE5emptyB7v160006Ev, symObjAddr: 0x29FD8, symBinAddr: 0x100032804, symSize: 0x34 }
  - { offsetInCU: 0x56908, offset: 0x6B295, size: 0x8, addend: 0x0, symName: __ZNKSt3__110__list_impINS_4pairIcPKcEENS_9allocatorIS4_EEE4__szB7v160006Ev, symObjAddr: 0x2A00C, symBinAddr: 0x100032838, symSize: 0x28 }
  - { offsetInCU: 0x5692E, offset: 0x6B2BB, size: 0x8, addend: 0x0, symName: __ZNKSt3__117__compressed_pairImNS_9allocatorINS_11__list_nodeINS_4pairIcPKcEEPvEEEEE5firstB7v160006Ev, symObjAddr: 0x2A034, symBinAddr: 0x100032860, symSize: 0x24 }
  - { offsetInCU: 0x56954, offset: 0x6B2E1, size: 0x8, addend: 0x0, symName: __ZNSt3__117__compressed_pairImNS_9allocatorINS_11__list_nodeINS_4pairIcPKcEEPvEEEEE5firstB7v160006Ev, symObjAddr: 0x2A058, symBinAddr: 0x100032884, symSize: 0x24 }
  - { offsetInCU: 0x5697A, offset: 0x6B307, size: 0x8, addend: 0x0, symName: __ZNSt3__110__list_impINS_4pairIcPKcEENS_9allocatorIS4_EEE3endB7v160006Ev, symObjAddr: 0x2A07C, symBinAddr: 0x1000328A8, symSize: 0x3C }
  - { offsetInCU: 0x569A0, offset: 0x6B32D, size: 0x8, addend: 0x0, symName: __ZNKSt3__110__list_impINS_4pairIcPKcEENS_9allocatorIS4_EEE13__end_as_linkB7v160006Ev, symObjAddr: 0x2A0B8, symBinAddr: 0x1000328E4, symSize: 0x28 }
  - { offsetInCU: 0x569C6, offset: 0x6B353, size: 0x8, addend: 0x0, symName: __ZNSt3__115__list_iteratorINS_4pairIcPKcEEPvEC1B7v160006EPNS_16__list_node_baseIS4_S5_EEPKv, symObjAddr: 0x2A0E0, symBinAddr: 0x10003290C, symSize: 0x3C }
  - { offsetInCU: 0x56A0E, offset: 0x6B39B, size: 0x8, addend: 0x0, symName: __ZNSt3__115__list_iteratorINS_4pairIcPKcEEPvEC2B7v160006EPNS_16__list_node_baseIS4_S5_EEPKv, symObjAddr: 0x2A11C, symBinAddr: 0x100032948, symSize: 0x24 }
  - { offsetInCU: 0x56A56, offset: 0x6B3E3, size: 0x8, addend: 0x0, symName: __ZNSt3__121__list_const_iteratorINS_4pairIcPKcEEPvEC2B7v160006ERKNS_15__list_iteratorIS4_S5_EE, symObjAddr: 0x2A140, symBinAddr: 0x10003296C, symSize: 0x24 }
  - { offsetInCU: 0x56A8F, offset: 0x6B41C, size: 0x8, addend: 0x0, symName: __ZNSt3__110__list_impINS_4pairIcPKcEENS_9allocatorIS4_EEE12__node_allocB7v160006Ev, symObjAddr: 0x2A164, symBinAddr: 0x100032990, symSize: 0x28 }
  - { offsetInCU: 0x56AB5, offset: 0x6B442, size: 0x8, addend: 0x0, symName: __ZNSt3__14listINS_4pairIcPKcEENS_9allocatorIS4_EEE15__allocate_nodeB7v160006ERNS5_INS_11__list_nodeIS4_PvEEEE, symObjAddr: 0x2A18C, symBinAddr: 0x1000329B8, symSize: 0x70 }
  - { offsetInCU: 0x56AF9, offset: 0x6B486, size: 0x8, addend: 0x0, symName: __ZNSt3__116allocator_traitsINS_9allocatorINS_11__list_nodeINS_4pairIcPKcEEPvEEEEE9constructB7v160006IS6_JS6_EvEEvRS9_PT_DpOT0_, symObjAddr: 0x2A1FC, symBinAddr: 0x100032A28, symSize: 0x34 }
  - { offsetInCU: 0x56B50, offset: 0x6B4DD, size: 0x8, addend: 0x0, symName: __ZNKSt3__110unique_ptrINS_11__list_nodeINS_4pairIcPKcEEPvEENS_22__allocator_destructorINS_9allocatorIS7_EEEEEptB7v160006Ev, symObjAddr: 0x2A230, symBinAddr: 0x100032A5C, symSize: 0x28 }
  - { offsetInCU: 0x56B76, offset: 0x6B503, size: 0x8, addend: 0x0, symName: __ZNSt3__14listINS_4pairIcPKcEENS_9allocatorIS4_EEE20__link_nodes_at_backEPNS_16__list_node_baseIS4_PvEESB_, symObjAddr: 0x2A258, symBinAddr: 0x100032A84, symSize: 0x60 }
  - { offsetInCU: 0x56BBC, offset: 0x6B549, size: 0x8, addend: 0x0, symName: __ZNKSt3__110unique_ptrINS_11__list_nodeINS_4pairIcPKcEEPvEENS_22__allocator_destructorINS_9allocatorIS7_EEEEE3getB7v160006Ev, symObjAddr: 0x2A2B8, symBinAddr: 0x100032AE4, symSize: 0x28 }
  - { offsetInCU: 0x56BE2, offset: 0x6B56F, size: 0x8, addend: 0x0, symName: __ZNSt3__111__list_nodeINS_4pairIcPKcEEPvE9__as_linkB7v160006Ev, symObjAddr: 0x2A2E0, symBinAddr: 0x100032B0C, symSize: 0x24 }
  - { offsetInCU: 0x56C08, offset: 0x6B595, size: 0x8, addend: 0x0, symName: __ZNSt3__110unique_ptrINS_11__list_nodeINS_4pairIcPKcEEPvEENS_22__allocator_destructorINS_9allocatorIS7_EEEEE7releaseB7v160006Ev, symObjAddr: 0x2A304, symBinAddr: 0x100032B30, symSize: 0x44 }
  - { offsetInCU: 0x56C3D, offset: 0x6B5CA, size: 0x8, addend: 0x0, symName: __ZNSt3__110unique_ptrINS_11__list_nodeINS_4pairIcPKcEEPvEENS_22__allocator_destructorINS_9allocatorIS7_EEEEED1B7v160006Ev, symObjAddr: 0x2A348, symBinAddr: 0x100032B74, symSize: 0x2C }
  - { offsetInCU: 0x56C67, offset: 0x6B5F4, size: 0x8, addend: 0x0, symName: __ZNSt3__117__compressed_pairImNS_9allocatorINS_11__list_nodeINS_4pairIcPKcEEPvEEEEE6secondB7v160006Ev, symObjAddr: 0x2A374, symBinAddr: 0x100032BA0, symSize: 0x24 }
  - { offsetInCU: 0x56C8D, offset: 0x6B61A, size: 0x8, addend: 0x0, symName: __ZNSt3__122__compressed_pair_elemINS_9allocatorINS_11__list_nodeINS_4pairIcPKcEEPvEEEELi1ELb1EE5__getB7v160006Ev, symObjAddr: 0x2A398, symBinAddr: 0x100032BC4, symSize: 0x14 }
  - { offsetInCU: 0x56CB3, offset: 0x6B640, size: 0x8, addend: 0x0, symName: __ZNSt3__116allocator_traitsINS_9allocatorINS_11__list_nodeINS_4pairIcPKcEEPvEEEEE8allocateB7v160006ERS9_m, symObjAddr: 0x2A3AC, symBinAddr: 0x100032BD8, symSize: 0x2C }
  - { offsetInCU: 0x56CE6, offset: 0x6B673, size: 0x8, addend: 0x0, symName: __ZNSt3__122__allocator_destructorINS_9allocatorINS_11__list_nodeINS_4pairIcPKcEEPvEEEEEC1B7v160006ERS9_m, symObjAddr: 0x2A3D8, symBinAddr: 0x100032C04, symSize: 0x3C }
  - { offsetInCU: 0x56D31, offset: 0x6B6BE, size: 0x8, addend: 0x0, symName: __ZNSt3__110unique_ptrINS_11__list_nodeINS_4pairIcPKcEEPvEENS_22__allocator_destructorINS_9allocatorIS7_EEEEEC1B7v160006ILb1EvEEPS7_NS_16__dependent_typeINS_27__unique_ptr_deleter_sfinaeISB_EEXT_EE20__good_rval_ref_typeE, symObjAddr: 0x2A414, symBinAddr: 0x100032C40, symSize: 0x3C }
  - { offsetInCU: 0x56D82, offset: 0x6B70F, size: 0x8, addend: 0x0, symName: __ZNSt3__19allocatorINS_11__list_nodeINS_4pairIcPKcEEPvEEE8allocateB7v160006Em, symObjAddr: 0x2A450, symBinAddr: 0x100032C7C, symSize: 0x58 }
  - { offsetInCU: 0x56DC0, offset: 0x6B74D, size: 0x8, addend: 0x0, symName: __ZNSt3__116allocator_traitsINS_9allocatorINS_11__list_nodeINS_4pairIcPKcEEPvEEEEE8max_sizeB7v160006IS9_vEEmRKS9_, symObjAddr: 0x2A4A8, symBinAddr: 0x100032CD4, symSize: 0x24 }
  - { offsetInCU: 0x56DEE, offset: 0x6B77B, size: 0x8, addend: 0x0, symName: __ZNKSt3__19allocatorINS_11__list_nodeINS_4pairIcPKcEEPvEEE8max_sizeB7v160006Ev, symObjAddr: 0x2A4CC, symBinAddr: 0x100032CF8, symSize: 0x14 }
  - { offsetInCU: 0x56E14, offset: 0x6B7A1, size: 0x8, addend: 0x0, symName: __ZNSt3__122__allocator_destructorINS_9allocatorINS_11__list_nodeINS_4pairIcPKcEEPvEEEEEC2B7v160006ERS9_m, symObjAddr: 0x2A4E0, symBinAddr: 0x100032D0C, symSize: 0x2C }
  - { offsetInCU: 0x56E5A, offset: 0x6B7E7, size: 0x8, addend: 0x0, symName: __ZNSt3__110unique_ptrINS_11__list_nodeINS_4pairIcPKcEEPvEENS_22__allocator_destructorINS_9allocatorIS7_EEEEEC2B7v160006ILb1EvEEPS7_NS_16__dependent_typeINS_27__unique_ptr_deleter_sfinaeISB_EEXT_EE20__good_rval_ref_typeE, symObjAddr: 0x2A50C, symBinAddr: 0x100032D38, symSize: 0x48 }
  - { offsetInCU: 0x56EAB, offset: 0x6B838, size: 0x8, addend: 0x0, symName: __ZNSt3__117__compressed_pairIPNS_11__list_nodeINS_4pairIcPKcEEPvEENS_22__allocator_destructorINS_9allocatorIS7_EEEEEC1B7v160006IRS8_SC_EEOT_OT0_, symObjAddr: 0x2A554, symBinAddr: 0x100032D80, symSize: 0x3C }
  - { offsetInCU: 0x56F03, offset: 0x6B890, size: 0x8, addend: 0x0, symName: __ZNSt3__117__compressed_pairIPNS_11__list_nodeINS_4pairIcPKcEEPvEENS_22__allocator_destructorINS_9allocatorIS7_EEEEEC2B7v160006IRS8_SC_EEOT_OT0_, symObjAddr: 0x2A590, symBinAddr: 0x100032DBC, symSize: 0x48 }
  - { offsetInCU: 0x56F5B, offset: 0x6B8E8, size: 0x8, addend: 0x0, symName: __ZNSt3__122__compressed_pair_elemIPNS_11__list_nodeINS_4pairIcPKcEEPvEELi0ELb0EEC2B7v160006IRS8_vEEOT_, symObjAddr: 0x2A5D8, symBinAddr: 0x100032E04, symSize: 0x24 }
  - { offsetInCU: 0x56F9D, offset: 0x6B92A, size: 0x8, addend: 0x0, symName: __ZNSt3__122__compressed_pair_elemINS_22__allocator_destructorINS_9allocatorINS_11__list_nodeINS_4pairIcPKcEEPvEEEEEELi1ELb0EEC2B7v160006ISB_vEEOT_, symObjAddr: 0x2A5FC, symBinAddr: 0x100032E28, symSize: 0x24 }
  - { offsetInCU: 0x56FDF, offset: 0x6B96C, size: 0x8, addend: 0x0, symName: __ZNSt3__19allocatorINS_11__list_nodeINS_4pairIcPKcEEPvEEE9constructB7v160006IS5_JS5_EEEvPT_DpOT0_, symObjAddr: 0x2A620, symBinAddr: 0x100032E4C, symSize: 0x28 }
  - { offsetInCU: 0x57035, offset: 0x6B9C2, size: 0x8, addend: 0x0, symName: __ZNKSt3__117__compressed_pairIPNS_11__list_nodeINS_4pairIcPKcEEPvEENS_22__allocator_destructorINS_9allocatorIS7_EEEEE5firstB7v160006Ev, symObjAddr: 0x2A648, symBinAddr: 0x100032E74, symSize: 0x24 }
  - { offsetInCU: 0x5705B, offset: 0x6B9E8, size: 0x8, addend: 0x0, symName: __ZNKSt3__122__compressed_pair_elemIPNS_11__list_nodeINS_4pairIcPKcEEPvEELi0ELb0EE5__getB7v160006Ev, symObjAddr: 0x2A66C, symBinAddr: 0x100032E98, symSize: 0x14 }
  - { offsetInCU: 0x57081, offset: 0x6BA0E, size: 0x8, addend: 0x0, symName: __ZNSt3__117__compressed_pairIPNS_11__list_nodeINS_4pairIcPKcEEPvEENS_22__allocator_destructorINS_9allocatorIS7_EEEEE5firstB7v160006Ev, symObjAddr: 0x2A680, symBinAddr: 0x100032EAC, symSize: 0x24 }
  - { offsetInCU: 0x570A7, offset: 0x6BA34, size: 0x8, addend: 0x0, symName: __ZNSt3__122__compressed_pair_elemIPNS_11__list_nodeINS_4pairIcPKcEEPvEELi0ELb0EE5__getB7v160006Ev, symObjAddr: 0x2A6A4, symBinAddr: 0x100032ED0, symSize: 0x14 }
  - { offsetInCU: 0x570CD, offset: 0x6BA5A, size: 0x8, addend: 0x0, symName: __ZNSt3__110unique_ptrINS_11__list_nodeINS_4pairIcPKcEEPvEENS_22__allocator_destructorINS_9allocatorIS7_EEEEED2B7v160006Ev, symObjAddr: 0x2A6B8, symBinAddr: 0x100032EE4, symSize: 0x30 }
  - { offsetInCU: 0x570F7, offset: 0x6BA84, size: 0x8, addend: 0x0, symName: __ZNSt3__110unique_ptrINS_11__list_nodeINS_4pairIcPKcEEPvEENS_22__allocator_destructorINS_9allocatorIS7_EEEEE5resetB7v160006EPS7_, symObjAddr: 0x2A6E8, symBinAddr: 0x100032F14, symSize: 0x78 }
  - { offsetInCU: 0x5713B, offset: 0x6BAC8, size: 0x8, addend: 0x0, symName: __ZNSt3__117__compressed_pairIPNS_11__list_nodeINS_4pairIcPKcEEPvEENS_22__allocator_destructorINS_9allocatorIS7_EEEEE6secondB7v160006Ev, symObjAddr: 0x2A760, symBinAddr: 0x100032F8C, symSize: 0x28 }
  - { offsetInCU: 0x57161, offset: 0x6BAEE, size: 0x8, addend: 0x0, symName: __ZNSt3__122__allocator_destructorINS_9allocatorINS_11__list_nodeINS_4pairIcPKcEEPvEEEEEclB7v160006EPS8_, symObjAddr: 0x2A788, symBinAddr: 0x100032FB4, symSize: 0x34 }
  - { offsetInCU: 0x57195, offset: 0x6BB22, size: 0x8, addend: 0x0, symName: __ZNSt3__122__compressed_pair_elemINS_22__allocator_destructorINS_9allocatorINS_11__list_nodeINS_4pairIcPKcEEPvEEEEEELi1ELb0EE5__getB7v160006Ev, symObjAddr: 0x2A7BC, symBinAddr: 0x100032FE8, symSize: 0x14 }
  - { offsetInCU: 0x571BB, offset: 0x6BB48, size: 0x8, addend: 0x0, symName: __ZNSt3__116allocator_traitsINS_9allocatorINS_11__list_nodeINS_4pairIcPKcEEPvEEEEE10deallocateB7v160006ERS9_PS8_m, symObjAddr: 0x2A7D0, symBinAddr: 0x100032FFC, symSize: 0x34 }
  - { offsetInCU: 0x571FD, offset: 0x6BB8A, size: 0x8, addend: 0x0, symName: __ZNSt3__19allocatorINS_11__list_nodeINS_4pairIcPKcEEPvEEE10deallocateB7v160006EPS7_m, symObjAddr: 0x2A804, symBinAddr: 0x100033030, symSize: 0x40 }
  - { offsetInCU: 0x57249, offset: 0x6BBD6, size: 0x8, addend: 0x0, symName: __ZNSt3__14pairIcPKcEC1B7v160006IcRS2_LPv0EEEOT_OT0_, symObjAddr: 0x2A844, symBinAddr: 0x100033070, symSize: 0x3C }
  - { offsetInCU: 0x572A7, offset: 0x6BC34, size: 0x8, addend: 0x0, symName: __ZNSt3__14pairIcPKcEC2B7v160006IcRS2_LPv0EEEOT_OT0_, symObjAddr: 0x2A880, symBinAddr: 0x1000330AC, symSize: 0x34 }
  - { offsetInCU: 0x57305, offset: 0x6BC92, size: 0x8, addend: 0x0, symName: __ZNKSt3__111__wrap_iterIPKN7testing8internal13edit_distance8EditTypeEE4baseB7v160006Ev, symObjAddr: 0x2A8B4, symBinAddr: 0x1000330E0, symSize: 0x18 }
  - { offsetInCU: 0x5732B, offset: 0x6BCB8, size: 0x8, addend: 0x0, symName: __ZNK7testing8internal13edit_distance12_GLOBAL__N_14Hunk11PrintHeaderEPNSt3__113basic_ostreamIcNS4_11char_traitsIcEEEE, symObjAddr: 0x2A8CC, symBinAddr: 0x1000330F8, symSize: 0x13C }
  - { offsetInCU: 0x57360, offset: 0x6BCED, size: 0x8, addend: 0x0, symName: __ZNSt3__14listINS_4pairIcPKcEENS_9allocatorIS4_EEE5beginB7v160006Ev, symObjAddr: 0x2AA08, symBinAddr: 0x100033234, symSize: 0x2C }
  - { offsetInCU: 0x57386, offset: 0x6BD13, size: 0x8, addend: 0x0, symName: __ZNKSt3__121__list_const_iteratorINS_4pairIcPKcEEPvEptB7v160006Ev, symObjAddr: 0x2AA9C, symBinAddr: 0x1000332C8, symSize: 0x30 }
  - { offsetInCU: 0x573AC, offset: 0x6BD39, size: 0x8, addend: 0x0, symName: __ZNSt3__121__list_const_iteratorINS_4pairIcPKcEEPvEppB7v160006Ev, symObjAddr: 0x2AACC, symBinAddr: 0x1000332F8, symSize: 0x20 }
  - { offsetInCU: 0x573D2, offset: 0x6BD5F, size: 0x8, addend: 0x0, symName: __ZNSt3__110__list_impINS_4pairIcPKcEENS_9allocatorIS4_EEE5beginB7v160006Ev, symObjAddr: 0x2AAEC, symBinAddr: 0x100033318, symSize: 0x30 }
  - { offsetInCU: 0x57411, offset: 0x6BD9E, size: 0x8, addend: 0x0, symName: __ZNSt3__114pointer_traitsIPKNS_4pairIcPKcEEE10pointer_toB7v160006ERS5_, symObjAddr: 0x2B488, symBinAddr: 0x100033378, symSize: 0x14 }
  - { offsetInCU: 0x57434, offset: 0x6BDC1, size: 0x8, addend: 0x0, symName: __ZNSt3__116__list_node_baseINS_4pairIcPKcEEPvE9__as_nodeB7v160006Ev, symObjAddr: 0x2B49C, symBinAddr: 0x10003338C, symSize: 0x24 }
  - { offsetInCU: 0x5745A, offset: 0x6BDE7, size: 0x8, addend: 0x0, symName: __ZN7testing8internal13edit_distance12_GLOBAL__N_14HunkD2Ev, symObjAddr: 0x2B4C0, symBinAddr: 0x1000333B0, symSize: 0x48 }
  - { offsetInCU: 0x57487, offset: 0x6BE14, size: 0x8, addend: 0x0, symName: __ZNSt3__14listINS_4pairIcPKcEENS_9allocatorIS4_EEED1Ev, symObjAddr: 0x2B508, symBinAddr: 0x1000333F8, symSize: 0x2C }
  - { offsetInCU: 0x574B4, offset: 0x6BE41, size: 0x8, addend: 0x0, symName: __ZNSt3__14listINS_4pairIcPKcEENS_9allocatorIS4_EEED2Ev, symObjAddr: 0x2B534, symBinAddr: 0x100033424, symSize: 0x2C }
  - { offsetInCU: 0x574E1, offset: 0x6BE6E, size: 0x8, addend: 0x0, symName: __ZNSt3__110__list_impINS_4pairIcPKcEENS_9allocatorIS4_EEED2Ev, symObjAddr: 0x2B560, symBinAddr: 0x100033450, symSize: 0x3C }
  - { offsetInCU: 0x5750D, offset: 0x6BE9A, size: 0x8, addend: 0x0, symName: __ZNSt3__110__list_impINS_4pairIcPKcEENS_9allocatorIS4_EEE5clearEv, symObjAddr: 0x2B59C, symBinAddr: 0x10003348C, symSize: 0xE0 }
  - { offsetInCU: 0x5757D, offset: 0x6BF0A, size: 0x8, addend: 0x0, symName: __ZNSt3__116allocator_traitsINS_9allocatorINS_11__list_nodeINS_4pairIcPKcEEPvEEEEE7destroyB7v160006IS6_vvEEvRS9_PT_, symObjAddr: 0x2B68C, symBinAddr: 0x10003357C, symSize: 0x14 }
  - { offsetInCU: 0x575B8, offset: 0x6BF45, size: 0x8, addend: 0x0, symName: __ZNSt3__118basic_stringstreamIcNS_11char_traitsIcEENS_9allocatorIcEEED2Ev, symObjAddr: 0x2B6B0, symBinAddr: 0x1000335A0, symSize: 0x6C }
  - { offsetInCU: 0x575F2, offset: 0x6BF7F, size: 0x8, addend: 0x0, symName: __ZThn16_NSt3__118basic_stringstreamIcNS_11char_traitsIcEENS_9allocatorIcEEED1Ev, symObjAddr: 0x2B71C, symBinAddr: 0x10003360C, symSize: 0x1C }
  - { offsetInCU: 0x57609, offset: 0x6BF96, size: 0x8, addend: 0x0, symName: __ZTv0_n24_NSt3__118basic_stringstreamIcNS_11char_traitsIcEENS_9allocatorIcEEED1Ev, symObjAddr: 0x2B738, symBinAddr: 0x100033628, symSize: 0x28 }
  - { offsetInCU: 0x57625, offset: 0x6BFB2, size: 0x8, addend: 0x0, symName: __ZNSt3__115basic_stringbufIcNS_11char_traitsIcEENS_9allocatorIcEEED1Ev, symObjAddr: 0x2B760, symBinAddr: 0x100033650, symSize: 0x2C }
  - { offsetInCU: 0x57652, offset: 0x6BFDF, size: 0x8, addend: 0x0, symName: __ZNSt3__115basic_stringbufIcNS_11char_traitsIcEENS_9allocatorIcEEED2Ev, symObjAddr: 0x2B78C, symBinAddr: 0x10003367C, symSize: 0x48 }
  - { offsetInCU: 0x5767F, offset: 0x6C00C, size: 0x8, addend: 0x0, symName: __ZNSt3__18__iom_t6C1B7v160006Ei, symObjAddr: 0x2B7D4, symBinAddr: 0x1000336C4, symSize: 0x34 }
  - { offsetInCU: 0x576B7, offset: 0x6C044, size: 0x8, addend: 0x0, symName: __ZNSt3__18__iom_t6C2B7v160006Ei, symObjAddr: 0x2B808, symBinAddr: 0x1000336F8, symSize: 0x20 }
  - { offsetInCU: 0x576EF, offset: 0x6C07C, size: 0x8, addend: 0x0, symName: __ZNSt3__18ios_base4setfB7v160006Ejj, symObjAddr: 0x2B828, symBinAddr: 0x100033718, symSize: 0x5C }
  - { offsetInCU: 0x57744, offset: 0x6C0D1, size: 0x8, addend: 0x0, symName: __ZNSt3__18ios_base6unsetfB7v160006Ej, symObjAddr: 0x2B884, symBinAddr: 0x100033774, symSize: 0x28 }
  - { offsetInCU: 0x5777B, offset: 0x6C108, size: 0x8, addend: 0x0, symName: __ZNSt3__18ios_base4setfB7v160006Ej, symObjAddr: 0x2B8AC, symBinAddr: 0x10003379C, symSize: 0x34 }
  - { offsetInCU: 0x577C1, offset: 0x6C14E, size: 0x8, addend: 0x0, symName: __ZN7testing8internal5MutexC2Ev, symObjAddr: 0x2B8E0, symBinAddr: 0x1000337D0, symSize: 0xE4 }
  - { offsetInCU: 0x57800, offset: 0x6C18D, size: 0x8, addend: 0x0, symName: __ZN7testing8internal5MutexD2Ev, symObjAddr: 0x2B9C4, symBinAddr: 0x1000338B4, symSize: 0xC0 }
  - { offsetInCU: 0x5783F, offset: 0x6C1CC, size: 0x8, addend: 0x0, symName: __ZN7testing8internal17TestPropertyKeyIsC2ERKNSt3__112basic_stringIcNS2_11char_traitsIcEENS2_9allocatorIcEEEE, symObjAddr: 0x2BA84, symBinAddr: 0x100033974, symSize: 0x34 }
  - { offsetInCU: 0x57878, offset: 0x6C205, size: 0x8, addend: 0x0, symName: __ZN7testing8internal17TestPropertyKeyIsD2Ev, symObjAddr: 0x2BAB8, symBinAddr: 0x1000339A8, symSize: 0x2C }
  - { offsetInCU: 0x578A5, offset: 0x6C232, size: 0x8, addend: 0x0, symName: __ZNKSt3__111__wrap_iterIPN7testing12TestPropertyEE4baseB7v160006Ev, symObjAddr: 0x2BAE4, symBinAddr: 0x1000339D4, symSize: 0x18 }
  - { offsetInCU: 0x578E1, offset: 0x6C26E, size: 0x8, addend: 0x0, symName: __ZN7testing7MessagelsIA40_cEERS0_RKT_, symObjAddr: 0x2BAFC, symBinAddr: 0x1000339EC, symSize: 0x3C }
  - { offsetInCU: 0x5792A, offset: 0x6C2B7, size: 0x8, addend: 0x0, symName: __ZNSt3__16vectorINS_12basic_stringIcNS_11char_traitsIcEENS_9allocatorIcEEEENS4_IS6_EEEC1IPKPKcLi0EEET_SE_, symObjAddr: 0x2BD2C, symBinAddr: 0x100033C1C, symSize: 0x3C }
  - { offsetInCU: 0x57984, offset: 0x6C311, size: 0x8, addend: 0x0, symName: __ZNSt3__16vectorINS_12basic_stringIcNS_11char_traitsIcEENS_9allocatorIcEEEENS4_IS6_EEEC2IPKPKcLi0EEET_SE_, symObjAddr: 0x2BD68, symBinAddr: 0x100033C58, symSize: 0x108 }
  - { offsetInCU: 0x57A08, offset: 0x6C395, size: 0x8, addend: 0x0, symName: __ZNSt3__117__compressed_pairIPNS_12basic_stringIcNS_11char_traitsIcEENS_9allocatorIcEEEENS4_IS6_EEEC1B7v160006IDnNS_18__default_init_tagEEEOT_OT0_, symObjAddr: 0x2BE70, symBinAddr: 0x100033D60, symSize: 0x3C }
  - { offsetInCU: 0x57A60, offset: 0x6C3ED, size: 0x8, addend: 0x0, symName: __ZNSt3__16vectorINS_12basic_stringIcNS_11char_traitsIcEENS_9allocatorIcEEEENS4_IS6_EEE16__destroy_vectorC1ERS8_, symObjAddr: 0x2BEEC, symBinAddr: 0x100033DDC, symSize: 0x34 }
  - { offsetInCU: 0x57A99, offset: 0x6C426, size: 0x8, addend: 0x0, symName: __ZNSt3__16vectorINS_12basic_stringIcNS_11char_traitsIcEENS_9allocatorIcEEEENS4_IS6_EEE11__vallocateB7v160006Em, symObjAddr: 0x2BF5C, symBinAddr: 0x100033E4C, symSize: 0xB4 }
  - { offsetInCU: 0x57ADD, offset: 0x6C46A, size: 0x8, addend: 0x0, symName: __ZNSt3__16vectorINS_12basic_stringIcNS_11char_traitsIcEENS_9allocatorIcEEEENS4_IS6_EEE18__construct_at_endIPKPKcLi0EEEvT_SE_m, symObjAddr: 0x2C010, symBinAddr: 0x100033F00, symSize: 0x8C }
  - { offsetInCU: 0x57B51, offset: 0x6C4DE, size: 0x8, addend: 0x0, symName: __ZNSt3__128__exception_guard_exceptionsINS_6vectorINS_12basic_stringIcNS_11char_traitsIcEENS_9allocatorIcEEEENS5_IS7_EEE16__destroy_vectorEE10__completeB7v160006Ev, symObjAddr: 0x2C09C, symBinAddr: 0x100033F8C, symSize: 0x1C }
  - { offsetInCU: 0x57B77, offset: 0x6C504, size: 0x8, addend: 0x0, symName: __ZNSt3__128__exception_guard_exceptionsINS_6vectorINS_12basic_stringIcNS_11char_traitsIcEENS_9allocatorIcEEEENS5_IS7_EEE16__destroy_vectorEED1B7v160006Ev, symObjAddr: 0x2C0B8, symBinAddr: 0x100033FA8, symSize: 0x2C }
  - { offsetInCU: 0x57BA1, offset: 0x6C52E, size: 0x8, addend: 0x0, symName: __ZNSt3__117__compressed_pairIPNS_12basic_stringIcNS_11char_traitsIcEENS_9allocatorIcEEEENS4_IS6_EEEC2B7v160006IDnNS_18__default_init_tagEEEOT_OT0_, symObjAddr: 0x2C0E4, symBinAddr: 0x100033FD4, symSize: 0x40 }
  - { offsetInCU: 0x57BF9, offset: 0x6C586, size: 0x8, addend: 0x0, symName: __ZNSt3__122__compressed_pair_elemIPNS_12basic_stringIcNS_11char_traitsIcEENS_9allocatorIcEEEELi0ELb0EEC2B7v160006IDnvEEOT_, symObjAddr: 0x2C124, symBinAddr: 0x100034014, symSize: 0x1C }
  - { offsetInCU: 0x57C3B, offset: 0x6C5C8, size: 0x8, addend: 0x0, symName: __ZNSt3__122__compressed_pair_elemINS_9allocatorINS_12basic_stringIcNS_11char_traitsIcEENS1_IcEEEEEELi1ELb1EEC2B7v160006ENS_18__default_init_tagE, symObjAddr: 0x2C140, symBinAddr: 0x100034030, symSize: 0x2C }
  - { offsetInCU: 0x57C70, offset: 0x6C5FD, size: 0x8, addend: 0x0, symName: __ZNSt3__19allocatorINS_12basic_stringIcNS_11char_traitsIcEENS0_IcEEEEEC2B7v160006Ev, symObjAddr: 0x2C16C, symBinAddr: 0x10003405C, symSize: 0x2C }
  - { offsetInCU: 0x57C9A, offset: 0x6C627, size: 0x8, addend: 0x0, symName: __ZNSt3__116__non_trivial_ifILb1ENS_9allocatorINS_12basic_stringIcNS_11char_traitsIcEENS1_IcEEEEEEEC2B7v160006Ev, symObjAddr: 0x2C198, symBinAddr: 0x100034088, symSize: 0x14 }
  - { offsetInCU: 0x57CC4, offset: 0x6C651, size: 0x8, addend: 0x0, symName: __ZNSt3__128__exception_guard_exceptionsINS_6vectorINS_12basic_stringIcNS_11char_traitsIcEENS_9allocatorIcEEEENS5_IS7_EEE16__destroy_vectorEEC1B7v160006ESA_, symObjAddr: 0x2C1AC, symBinAddr: 0x10003409C, symSize: 0x34 }
  - { offsetInCU: 0x57CFC, offset: 0x6C689, size: 0x8, addend: 0x0, symName: __ZNSt3__128__exception_guard_exceptionsINS_6vectorINS_12basic_stringIcNS_11char_traitsIcEENS_9allocatorIcEEEENS5_IS7_EEE16__destroy_vectorEEC2B7v160006ESA_, symObjAddr: 0x2C1E0, symBinAddr: 0x1000340D0, symSize: 0x24 }
  - { offsetInCU: 0x57D34, offset: 0x6C6C1, size: 0x8, addend: 0x0, symName: __ZNSt3__16vectorINS_12basic_stringIcNS_11char_traitsIcEENS_9allocatorIcEEEENS4_IS6_EEE16__destroy_vectorC2ERS8_, symObjAddr: 0x2C204, symBinAddr: 0x1000340F4, symSize: 0x20 }
  - { offsetInCU: 0x57D6D, offset: 0x6C6FA, size: 0x8, addend: 0x0, symName: __ZNKSt3__16vectorINS_12basic_stringIcNS_11char_traitsIcEENS_9allocatorIcEEEENS4_IS6_EEE8max_sizeEv, symObjAddr: 0x2C24C, symBinAddr: 0x10003413C, symSize: 0x60 }
  - { offsetInCU: 0x57D95, offset: 0x6C722, size: 0x8, addend: 0x0, symName: __ZNKSt3__16vectorINS_12basic_stringIcNS_11char_traitsIcEENS_9allocatorIcEEEENS4_IS6_EEE20__throw_length_errorB7v160006Ev, symObjAddr: 0x2C2AC, symBinAddr: 0x10003419C, symSize: 0x1C }
  - { offsetInCU: 0x57DBB, offset: 0x6C748, size: 0x8, addend: 0x0, symName: __ZNSt3__16vectorINS_12basic_stringIcNS_11char_traitsIcEENS_9allocatorIcEEEENS4_IS6_EEE7__allocB7v160006Ev, symObjAddr: 0x2C308, symBinAddr: 0x1000341F8, symSize: 0x28 }
  - { offsetInCU: 0x57DE1, offset: 0x6C76E, size: 0x8, addend: 0x0, symName: __ZNSt3__16vectorINS_12basic_stringIcNS_11char_traitsIcEENS_9allocatorIcEEEENS4_IS6_EEE9__end_capB7v160006Ev, symObjAddr: 0x2C330, symBinAddr: 0x100034220, symSize: 0x28 }
  - { offsetInCU: 0x57E07, offset: 0x6C794, size: 0x8, addend: 0x0, symName: __ZNKSt3__16vectorINS_12basic_stringIcNS_11char_traitsIcEENS_9allocatorIcEEEENS4_IS6_EEE14__annotate_newB7v160006Em, symObjAddr: 0x2C358, symBinAddr: 0x100034248, symSize: 0xC8 }
  - { offsetInCU: 0x57E46, offset: 0x6C7D3, size: 0x8, addend: 0x0, symName: __ZNSt3__116allocator_traitsINS_9allocatorINS_12basic_stringIcNS_11char_traitsIcEENS1_IcEEEEEEE8max_sizeB7v160006IS7_vEEmRKS7_, symObjAddr: 0x2C420, symBinAddr: 0x100034310, symSize: 0x24 }
  - { offsetInCU: 0x57E74, offset: 0x6C801, size: 0x8, addend: 0x0, symName: __ZNKSt3__16vectorINS_12basic_stringIcNS_11char_traitsIcEENS_9allocatorIcEEEENS4_IS6_EEE7__allocB7v160006Ev, symObjAddr: 0x2C444, symBinAddr: 0x100034334, symSize: 0x28 }
  - { offsetInCU: 0x57E9A, offset: 0x6C827, size: 0x8, addend: 0x0, symName: __ZNSt3__114numeric_limitsIlE3maxB7v160006Ev, symObjAddr: 0x2C46C, symBinAddr: 0x10003435C, symSize: 0x14 }
  - { offsetInCU: 0x57EAE, offset: 0x6C83B, size: 0x8, addend: 0x0, symName: __ZNKSt3__19allocatorINS_12basic_stringIcNS_11char_traitsIcEENS0_IcEEEEE8max_sizeB7v160006Ev, symObjAddr: 0x2C480, symBinAddr: 0x100034370, symSize: 0x18 }
  - { offsetInCU: 0x57ED4, offset: 0x6C861, size: 0x8, addend: 0x0, symName: __ZNKSt3__117__compressed_pairIPNS_12basic_stringIcNS_11char_traitsIcEENS_9allocatorIcEEEENS4_IS6_EEE6secondB7v160006Ev, symObjAddr: 0x2C498, symBinAddr: 0x100034388, symSize: 0x24 }
  - { offsetInCU: 0x57EFA, offset: 0x6C887, size: 0x8, addend: 0x0, symName: __ZNKSt3__122__compressed_pair_elemINS_9allocatorINS_12basic_stringIcNS_11char_traitsIcEENS1_IcEEEEEELi1ELb1EE5__getB7v160006Ev, symObjAddr: 0x2C4BC, symBinAddr: 0x1000343AC, symSize: 0x14 }
  - { offsetInCU: 0x57F20, offset: 0x6C8AD, size: 0x8, addend: 0x0, symName: __ZNSt3__123__libcpp_numeric_limitsIlLb1EE3maxB7v160006Ev, symObjAddr: 0x2C4D0, symBinAddr: 0x1000343C0, symSize: 0x8 }
  - { offsetInCU: 0x57F34, offset: 0x6C8C1, size: 0x8, addend: 0x0, symName: __ZNSt12length_errorC1B7v160006EPKc, symObjAddr: 0x2C53C, symBinAddr: 0x10003442C, symSize: 0x34 }
  - { offsetInCU: 0x57F6C, offset: 0x6C8F9, size: 0x8, addend: 0x0, symName: __ZNSt12length_errorC2B7v160006EPKc, symObjAddr: 0x2C570, symBinAddr: 0x100034460, symSize: 0x4C }
  - { offsetInCU: 0x57FA4, offset: 0x6C931, size: 0x8, addend: 0x0, symName: __ZNSt3__19allocatorINS_12basic_stringIcNS_11char_traitsIcEENS0_IcEEEEE8allocateB7v160006Em, symObjAddr: 0x2C5BC, symBinAddr: 0x1000344AC, symSize: 0x5C }
  - { offsetInCU: 0x57FD8, offset: 0x6C965, size: 0x8, addend: 0x0, symName: __ZNSt3__117__compressed_pairIPNS_12basic_stringIcNS_11char_traitsIcEENS_9allocatorIcEEEENS4_IS6_EEE6secondB7v160006Ev, symObjAddr: 0x2C618, symBinAddr: 0x100034508, symSize: 0x24 }
  - { offsetInCU: 0x57FFE, offset: 0x6C98B, size: 0x8, addend: 0x0, symName: __ZNSt3__122__compressed_pair_elemINS_9allocatorINS_12basic_stringIcNS_11char_traitsIcEENS1_IcEEEEEELi1ELb1EE5__getB7v160006Ev, symObjAddr: 0x2C63C, symBinAddr: 0x10003452C, symSize: 0x14 }
  - { offsetInCU: 0x58024, offset: 0x6C9B1, size: 0x8, addend: 0x0, symName: __ZNSt3__117__compressed_pairIPNS_12basic_stringIcNS_11char_traitsIcEENS_9allocatorIcEEEENS4_IS6_EEE5firstB7v160006Ev, symObjAddr: 0x2C650, symBinAddr: 0x100034540, symSize: 0x24 }
  - { offsetInCU: 0x5804A, offset: 0x6C9D7, size: 0x8, addend: 0x0, symName: __ZNKSt3__16vectorINS_12basic_stringIcNS_11char_traitsIcEENS_9allocatorIcEEEENS4_IS6_EEE31__annotate_contiguous_containerB7v160006EPKvSA_SA_SA_, symObjAddr: 0x2C674, symBinAddr: 0x100034564, symSize: 0x20 }
  - { offsetInCU: 0x580A0, offset: 0x6CA2D, size: 0x8, addend: 0x0, symName: __ZNKSt3__16vectorINS_12basic_stringIcNS_11char_traitsIcEENS_9allocatorIcEEEENS4_IS6_EEE4dataB7v160006Ev, symObjAddr: 0x2C694, symBinAddr: 0x100034584, symSize: 0x28 }
  - { offsetInCU: 0x580C6, offset: 0x6CA53, size: 0x8, addend: 0x0, symName: __ZNKSt3__16vectorINS_12basic_stringIcNS_11char_traitsIcEENS_9allocatorIcEEEENS4_IS6_EEE8capacityB7v160006Ev, symObjAddr: 0x2C6BC, symBinAddr: 0x1000345AC, symSize: 0x40 }
  - { offsetInCU: 0x580EC, offset: 0x6CA79, size: 0x8, addend: 0x0, symName: __ZNKSt3__16vectorINS_12basic_stringIcNS_11char_traitsIcEENS_9allocatorIcEEEENS4_IS6_EEE9__end_capB7v160006Ev, symObjAddr: 0x2C710, symBinAddr: 0x100034600, symSize: 0x28 }
  - { offsetInCU: 0x58112, offset: 0x6CA9F, size: 0x8, addend: 0x0, symName: __ZNKSt3__117__compressed_pairIPNS_12basic_stringIcNS_11char_traitsIcEENS_9allocatorIcEEEENS4_IS6_EEE5firstB7v160006Ev, symObjAddr: 0x2C738, symBinAddr: 0x100034628, symSize: 0x24 }
  - { offsetInCU: 0x58151, offset: 0x6CADE, size: 0x8, addend: 0x0, symName: __ZNSt3__16vectorINS_12basic_stringIcNS_11char_traitsIcEENS_9allocatorIcEEEENS4_IS6_EEE21_ConstructTransactionC1B7v160006ERS8_m, symObjAddr: 0x2C75C, symBinAddr: 0x10003464C, symSize: 0x3C }
  - { offsetInCU: 0x58199, offset: 0x6CB26, size: 0x8, addend: 0x0, symName: __ZNSt3__16vectorINS_12basic_stringIcNS_11char_traitsIcEENS_9allocatorIcEEEENS4_IS6_EEE21_ConstructTransactionD1B7v160006Ev, symObjAddr: 0x2C88C, symBinAddr: 0x10003477C, symSize: 0x2C }
  - { offsetInCU: 0x581C3, offset: 0x6CB50, size: 0x8, addend: 0x0, symName: __ZNSt3__16vectorINS_12basic_stringIcNS_11char_traitsIcEENS_9allocatorIcEEEENS4_IS6_EEE21_ConstructTransactionC2B7v160006ERS8_m, symObjAddr: 0x2C8B8, symBinAddr: 0x1000347A8, symSize: 0x4C }
  - { offsetInCU: 0x5820B, offset: 0x6CB98, size: 0x8, addend: 0x0, symName: __ZNSt3__129_AllocatorDestroyRangeReverseINS_9allocatorINS_12basic_stringIcNS_11char_traitsIcEENS1_IcEEEEEEPS6_EC1B7v160006ERS7_RS8_SB_, symObjAddr: 0x2C950, symBinAddr: 0x100034840, symSize: 0x44 }
  - { offsetInCU: 0x58262, offset: 0x6CBEF, size: 0x8, addend: 0x0, symName: __ZNSt3__116allocator_traitsINS_9allocatorINS_12basic_stringIcNS_11char_traitsIcEENS1_IcEEEEEEE9constructB7v160006IS6_JRKPKcEvEEvRS7_PT_DpOT0_, symObjAddr: 0x2C994, symBinAddr: 0x100034884, symSize: 0x34 }
  - { offsetInCU: 0x582B9, offset: 0x6CC46, size: 0x8, addend: 0x0, symName: __ZNSt3__128__exception_guard_exceptionsINS_29_AllocatorDestroyRangeReverseINS_9allocatorINS_12basic_stringIcNS_11char_traitsIcEENS2_IcEEEEEEPS7_EEE10__completeB7v160006Ev, symObjAddr: 0x2C9C8, symBinAddr: 0x1000348B8, symSize: 0x1C }
  - { offsetInCU: 0x582DF, offset: 0x6CC6C, size: 0x8, addend: 0x0, symName: __ZNSt3__128__exception_guard_exceptionsINS_29_AllocatorDestroyRangeReverseINS_9allocatorINS_12basic_stringIcNS_11char_traitsIcEENS2_IcEEEEEEPS7_EEED1B7v160006Ev, symObjAddr: 0x2C9E4, symBinAddr: 0x1000348D4, symSize: 0x2C }
  - { offsetInCU: 0x58309, offset: 0x6CC96, size: 0x8, addend: 0x0, symName: __ZNSt3__128__exception_guard_exceptionsINS_29_AllocatorDestroyRangeReverseINS_9allocatorINS_12basic_stringIcNS_11char_traitsIcEENS2_IcEEEEEEPS7_EEEC1B7v160006ESA_, symObjAddr: 0x2CA10, symBinAddr: 0x100034900, symSize: 0x34 }
  - { offsetInCU: 0x58342, offset: 0x6CCCF, size: 0x8, addend: 0x0, symName: __ZNSt3__128__exception_guard_exceptionsINS_29_AllocatorDestroyRangeReverseINS_9allocatorINS_12basic_stringIcNS_11char_traitsIcEENS2_IcEEEEEEPS7_EEEC2B7v160006ESA_, symObjAddr: 0x2CA44, symBinAddr: 0x100034934, symSize: 0x30 }
  - { offsetInCU: 0x5837B, offset: 0x6CD08, size: 0x8, addend: 0x0, symName: __ZNSt3__129_AllocatorDestroyRangeReverseINS_9allocatorINS_12basic_stringIcNS_11char_traitsIcEENS1_IcEEEEEEPS6_EC2B7v160006ERS7_RS8_SB_, symObjAddr: 0x2CA74, symBinAddr: 0x100034964, symSize: 0x38 }
  - { offsetInCU: 0x583D2, offset: 0x6CD5F, size: 0x8, addend: 0x0, symName: __ZNSt3__19allocatorINS_12basic_stringIcNS_11char_traitsIcEENS0_IcEEEEE9constructB7v160006IS5_JRKPKcEEEvPT_DpOT0_, symObjAddr: 0x2CAAC, symBinAddr: 0x10003499C, symSize: 0x34 }
  - { offsetInCU: 0x58428, offset: 0x6CDB5, size: 0x8, addend: 0x0, symName: __ZNSt3__128__exception_guard_exceptionsINS_29_AllocatorDestroyRangeReverseINS_9allocatorINS_12basic_stringIcNS_11char_traitsIcEENS2_IcEEEEEEPS7_EEED2B7v160006Ev, symObjAddr: 0x2CAE0, symBinAddr: 0x1000349D0, symSize: 0x50 }
  - { offsetInCU: 0x58452, offset: 0x6CDDF, size: 0x8, addend: 0x0, symName: __ZNKSt3__129_AllocatorDestroyRangeReverseINS_9allocatorINS_12basic_stringIcNS_11char_traitsIcEENS1_IcEEEEEEPS6_EclB7v160006Ev, symObjAddr: 0x2CB30, symBinAddr: 0x100034A20, symSize: 0x68 }
  - { offsetInCU: 0x58478, offset: 0x6CE05, size: 0x8, addend: 0x0, symName: __ZNSt3__116reverse_iteratorIPNS_12basic_stringIcNS_11char_traitsIcEENS_9allocatorIcEEEEEC1B7v160006ES7_, symObjAddr: 0x2CC08, symBinAddr: 0x100034AF8, symSize: 0x34 }
  - { offsetInCU: 0x584B0, offset: 0x6CE3D, size: 0x8, addend: 0x0, symName: __ZNSt3__116allocator_traitsINS_9allocatorINS_12basic_stringIcNS_11char_traitsIcEENS1_IcEEEEEEE7destroyB7v160006IS6_vEEvRS7_PT_, symObjAddr: 0x2CC84, symBinAddr: 0x100034B74, symSize: 0x2C }
  - { offsetInCU: 0x584ED, offset: 0x6CE7A, size: 0x8, addend: 0x0, symName: __ZNSt3__116reverse_iteratorIPNS_12basic_stringIcNS_11char_traitsIcEENS_9allocatorIcEEEEEppB7v160006Ev, symObjAddr: 0x2CCD4, symBinAddr: 0x100034BC4, symSize: 0x20 }
  - { offsetInCU: 0x58513, offset: 0x6CEA0, size: 0x8, addend: 0x0, symName: __ZNKSt3__116reverse_iteratorIPNS_12basic_stringIcNS_11char_traitsIcEENS_9allocatorIcEEEEE4baseB7v160006Ev, symObjAddr: 0x2CCF4, symBinAddr: 0x100034BE4, symSize: 0x18 }
  - { offsetInCU: 0x58539, offset: 0x6CEC6, size: 0x8, addend: 0x0, symName: __ZNSt3__19allocatorINS_12basic_stringIcNS_11char_traitsIcEENS0_IcEEEEE7destroyB7v160006EPS5_, symObjAddr: 0x2CD0C, symBinAddr: 0x100034BFC, symSize: 0x28 }
  - { offsetInCU: 0x58572, offset: 0x6CEFF, size: 0x8, addend: 0x0, symName: __ZNSt3__119__to_address_helperINS_16reverse_iteratorIPNS_12basic_stringIcNS_11char_traitsIcEENS_9allocatorIcEEEEEEvE6__callB7v160006ERKS9_, symObjAddr: 0x2CD34, symBinAddr: 0x100034C24, symSize: 0x38 }
  - { offsetInCU: 0x58595, offset: 0x6CF22, size: 0x8, addend: 0x0, symName: __ZNKSt3__116reverse_iteratorIPNS_12basic_stringIcNS_11char_traitsIcEENS_9allocatorIcEEEEEptB7v160006Ev, symObjAddr: 0x2CD6C, symBinAddr: 0x100034C5C, symSize: 0x24 }
  - { offsetInCU: 0x585BB, offset: 0x6CF48, size: 0x8, addend: 0x0, symName: __ZNKSt3__116reverse_iteratorIPNS_12basic_stringIcNS_11char_traitsIcEENS_9allocatorIcEEEEEdeB7v160006Ev, symObjAddr: 0x2CD90, symBinAddr: 0x100034C80, symSize: 0x28 }
  - { offsetInCU: 0x585F0, offset: 0x6CF7D, size: 0x8, addend: 0x0, symName: __ZNSt3__116reverse_iteratorIPNS_12basic_stringIcNS_11char_traitsIcEENS_9allocatorIcEEEEEC2B7v160006ES7_, symObjAddr: 0x2CDB8, symBinAddr: 0x100034CA8, symSize: 0x28 }
  - { offsetInCU: 0x58628, offset: 0x6CFB5, size: 0x8, addend: 0x0, symName: __ZNSt3__16vectorINS_12basic_stringIcNS_11char_traitsIcEENS_9allocatorIcEEEENS4_IS6_EEE21_ConstructTransactionD2B7v160006Ev, symObjAddr: 0x2CDE0, symBinAddr: 0x100034CD0, symSize: 0x20 }
  - { offsetInCU: 0x58652, offset: 0x6CFDF, size: 0x8, addend: 0x0, symName: __ZNSt3__128__exception_guard_exceptionsINS_6vectorINS_12basic_stringIcNS_11char_traitsIcEENS_9allocatorIcEEEENS5_IS7_EEE16__destroy_vectorEED2B7v160006Ev, symObjAddr: 0x2CE00, symBinAddr: 0x100034CF0, symSize: 0x50 }
  - { offsetInCU: 0x5867C, offset: 0x6D009, size: 0x8, addend: 0x0, symName: __ZNSt3__16vectorINS_12basic_stringIcNS_11char_traitsIcEENS_9allocatorIcEEEENS4_IS6_EEE16__destroy_vectorclB7v160006Ev, symObjAddr: 0x2CE50, symBinAddr: 0x100034D40, symSize: 0x9C }
  - { offsetInCU: 0x586A2, offset: 0x6D02F, size: 0x8, addend: 0x0, symName: __ZNKSt3__16vectorINS_12basic_stringIcNS_11char_traitsIcEENS_9allocatorIcEEEENS4_IS6_EEE17__annotate_deleteB7v160006Ev, symObjAddr: 0x2CEEC, symBinAddr: 0x100034DDC, symSize: 0xD4 }
  - { offsetInCU: 0x586C8, offset: 0x6D055, size: 0x8, addend: 0x0, symName: __ZNSt3__16vectorINS_12basic_stringIcNS_11char_traitsIcEENS_9allocatorIcEEEENS4_IS6_EEE7__clearB7v160006Ev, symObjAddr: 0x2CFD0, symBinAddr: 0x100034EC0, symSize: 0x28 }
  - { offsetInCU: 0x586EE, offset: 0x6D07B, size: 0x8, addend: 0x0, symName: __ZNSt3__116allocator_traitsINS_9allocatorINS_12basic_stringIcNS_11char_traitsIcEENS1_IcEEEEEEE10deallocateB7v160006ERS7_PS6_m, symObjAddr: 0x2CFF8, symBinAddr: 0x100034EE8, symSize: 0x34 }
  - { offsetInCU: 0x58730, offset: 0x6D0BD, size: 0x8, addend: 0x0, symName: __ZNSt3__16vectorINS_12basic_stringIcNS_11char_traitsIcEENS_9allocatorIcEEEENS4_IS6_EEE22__base_destruct_at_endB7v160006EPS6_, symObjAddr: 0x2D02C, symBinAddr: 0x100034F1C, symSize: 0x8C }
  - { offsetInCU: 0x58774, offset: 0x6D101, size: 0x8, addend: 0x0, symName: __ZNSt3__19allocatorINS_12basic_stringIcNS_11char_traitsIcEENS0_IcEEEEE10deallocateB7v160006EPS5_m, symObjAddr: 0x2D0B8, symBinAddr: 0x100034FA8, symSize: 0x44 }
  - { offsetInCU: 0x587B6, offset: 0x6D143, size: 0x8, addend: 0x0, symName: __ZNK7testing14TestPartResult7skippedEv, symObjAddr: 0x2D0FC, symBinAddr: 0x100034FEC, symSize: 0x24 }
  - { offsetInCU: 0x587DC, offset: 0x6D169, size: 0x8, addend: 0x0, symName: __ZNK7testing14TestPartResult17nonfatally_failedEv, symObjAddr: 0x2D120, symBinAddr: 0x100035010, symSize: 0x24 }
  - { offsetInCU: 0x58802, offset: 0x6D18F, size: 0x8, addend: 0x0, symName: __ZN7testing8internal14GTestFlagSaverC2Ev, symObjAddr: 0x2D144, symBinAddr: 0x100035034, symSize: 0x21C }
  - { offsetInCU: 0x5882C, offset: 0x6D1B9, size: 0x8, addend: 0x0, symName: __ZN7testing8internal12CodeLocationC2ERKS1_, symObjAddr: 0x2D360, symBinAddr: 0x100035250, symSize: 0x40 }
  - { offsetInCU: 0x58862, offset: 0x6D1EF, size: 0x8, addend: 0x0, symName: __ZNSt3__16vectorIPN7testing8internal29ParameterizedTestCaseInfoBaseENS_9allocatorIS4_EEE5beginB7v160006Ev, symObjAddr: 0x2D3CC, symBinAddr: 0x100035290, symSize: 0x30 }
  - { offsetInCU: 0x5888A, offset: 0x6D217, size: 0x8, addend: 0x0, symName: __ZNSt3__16vectorIPN7testing8internal29ParameterizedTestCaseInfoBaseENS_9allocatorIS4_EEE3endB7v160006Ev, symObjAddr: 0x2D430, symBinAddr: 0x1000352F4, symSize: 0x30 }
  - { offsetInCU: 0x588B2, offset: 0x6D23F, size: 0x8, addend: 0x0, symName: __ZNKSt3__111__wrap_iterIPPN7testing8internal29ParameterizedTestCaseInfoBaseEEdeB7v160006Ev, symObjAddr: 0x2D460, symBinAddr: 0x100035324, symSize: 0x18 }
  - { offsetInCU: 0x588D8, offset: 0x6D265, size: 0x8, addend: 0x0, symName: __ZNSt3__111__wrap_iterIPPN7testing8internal29ParameterizedTestCaseInfoBaseEEppB7v160006Ev, symObjAddr: 0x2D478, symBinAddr: 0x10003533C, symSize: 0x20 }
  - { offsetInCU: 0x588FE, offset: 0x6D28B, size: 0x8, addend: 0x0, symName: __ZNSt3__16vectorIPN7testing8internal29ParameterizedTestCaseInfoBaseENS_9allocatorIS4_EEE11__make_iterB7v160006EPS4_, symObjAddr: 0x2D498, symBinAddr: 0x10003535C, symSize: 0x34 }
  - { offsetInCU: 0x58933, offset: 0x6D2C0, size: 0x8, addend: 0x0, symName: __ZNSt3__111__wrap_iterIPPN7testing8internal29ParameterizedTestCaseInfoBaseEEC1B7v160006EPKvS5_, symObjAddr: 0x2D4CC, symBinAddr: 0x100035390, symSize: 0x3C }
  - { offsetInCU: 0x58979, offset: 0x6D306, size: 0x8, addend: 0x0, symName: __ZNSt3__111__wrap_iterIPPN7testing8internal29ParameterizedTestCaseInfoBaseEEC2B7v160006EPKvS5_, symObjAddr: 0x2D508, symBinAddr: 0x1000353CC, symSize: 0x24 }
  - { offsetInCU: 0x589BF, offset: 0x6D34C, size: 0x8, addend: 0x0, symName: __ZNKSt3__111__wrap_iterIPPN7testing8internal29ParameterizedTestCaseInfoBaseEE4baseB7v160006Ev, symObjAddr: 0x2D574, symBinAddr: 0x100035438, symSize: 0x18 }
  - { offsetInCU: 0x589E5, offset: 0x6D372, size: 0x8, addend: 0x0, symName: __ZNKSt3__110unique_ptrIKNS_12basic_stringIcNS_11char_traitsIcEENS_9allocatorIcEEEENS_14default_deleteIS7_EEE3getB7v160006Ev, symObjAddr: 0x2D624, symBinAddr: 0x1000354E8, symSize: 0x28 }
  - { offsetInCU: 0x58A0B, offset: 0x6D398, size: 0x8, addend: 0x0, symName: __ZNKSt3__110unique_ptrIKNS_12basic_stringIcNS_11char_traitsIcEENS_9allocatorIcEEEENS_14default_deleteIS7_EEEptB7v160006Ev, symObjAddr: 0x2D64C, symBinAddr: 0x100035510, symSize: 0x28 }
  - { offsetInCU: 0x58A31, offset: 0x6D3BE, size: 0x8, addend: 0x0, symName: __ZNKSt3__117__compressed_pairIPKNS_12basic_stringIcNS_11char_traitsIcEENS_9allocatorIcEEEENS_14default_deleteIS7_EEE5firstB7v160006Ev, symObjAddr: 0x2D674, symBinAddr: 0x100035538, symSize: 0x24 }
  - { offsetInCU: 0x58A57, offset: 0x6D3E4, size: 0x8, addend: 0x0, symName: __ZNKSt3__122__compressed_pair_elemIPKNS_12basic_stringIcNS_11char_traitsIcEENS_9allocatorIcEEEELi0ELb0EE5__getB7v160006Ev, symObjAddr: 0x2D698, symBinAddr: 0x10003555C, symSize: 0x14 }
  - { offsetInCU: 0x58A7D, offset: 0x6D40A, size: 0x8, addend: 0x0, symName: __ZN7testing17TestEventListenerC2Ev, symObjAddr: 0x2D6AC, symBinAddr: 0x100035570, symSize: 0x24 }
  - { offsetInCU: 0x58AAA, offset: 0x6D437, size: 0x8, addend: 0x0, symName: __ZN7testing22EmptyTestEventListenerD1Ev, symObjAddr: 0x2D6D0, symBinAddr: 0x100035594, symSize: 0x2C }
  - { offsetInCU: 0x58AD7, offset: 0x6D464, size: 0x8, addend: 0x0, symName: __ZN7testing22EmptyTestEventListenerD0Ev, symObjAddr: 0x2D6FC, symBinAddr: 0x1000355C0, symSize: 0x30 }
  - { offsetInCU: 0x58B04, offset: 0x6D491, size: 0x8, addend: 0x0, symName: __ZN7testing22EmptyTestEventListener18OnTestIterationEndERKNS_8UnitTestEi, symObjAddr: 0x2D72C, symBinAddr: 0x1000355F0, symSize: 0x18 }
  - { offsetInCU: 0x58B42, offset: 0x6D4CF, size: 0x8, addend: 0x0, symName: __ZN7testing17TestEventListenerD1Ev, symObjAddr: 0x2D744, symBinAddr: 0x100035608, symSize: 0x14 }
  - { offsetInCU: 0x58B6C, offset: 0x6D4F9, size: 0x8, addend: 0x0, symName: __ZN7testing17TestEventListenerD0Ev, symObjAddr: 0x2D758, symBinAddr: 0x10003561C, symSize: 0xC }
  - { offsetInCU: 0x58B96, offset: 0x6D523, size: 0x8, addend: 0x0, symName: __ZNKSt3__111__wrap_iterIPKcE4baseB7v160006Ev, symObjAddr: 0x2D7AC, symBinAddr: 0x100035670, symSize: 0x18 }
  - { offsetInCU: 0x58BBC, offset: 0x6D549, size: 0x8, addend: 0x0, symName: __ZNKSt3__111__wrap_iterIPKNS_12basic_stringIcNS_11char_traitsIcEENS_9allocatorIcEEEEE4baseB7v160006Ev, symObjAddr: 0x2D80C, symBinAddr: 0x1000356D0, symSize: 0x18 }
  - { offsetInCU: 0x58BE2, offset: 0x6D56F, size: 0x8, addend: 0x0, symName: __ZN7testing8internal17TestEventRepeaterC2Ev, symObjAddr: 0x2D824, symBinAddr: 0x1000356E8, symSize: 0x58 }
  - { offsetInCU: 0x58C0C, offset: 0x6D599, size: 0x8, addend: 0x0, symName: __ZNSt3__16vectorIPN7testing17TestEventListenerENS_9allocatorIS3_EEEC1B7v160006Ev, symObjAddr: 0x2D87C, symBinAddr: 0x100035740, symSize: 0x2C }
  - { offsetInCU: 0x58C36, offset: 0x6D5C3, size: 0x8, addend: 0x0, symName: __ZNSt3__16vectorIPN7testing17TestEventListenerENS_9allocatorIS3_EEEC2B7v160006Ev, symObjAddr: 0x2D8A8, symBinAddr: 0x10003576C, symSize: 0x58 }
  - { offsetInCU: 0x58C60, offset: 0x6D5ED, size: 0x8, addend: 0x0, symName: __ZNSt3__117__compressed_pairIPPN7testing17TestEventListenerENS_9allocatorIS3_EEEC1B7v160006IDnNS_18__default_init_tagEEEOT_OT0_, symObjAddr: 0x2D900, symBinAddr: 0x1000357C4, symSize: 0x3C }
  - { offsetInCU: 0x58CB8, offset: 0x6D645, size: 0x8, addend: 0x0, symName: __ZNSt3__117__compressed_pairIPPN7testing17TestEventListenerENS_9allocatorIS3_EEEC2B7v160006IDnNS_18__default_init_tagEEEOT_OT0_, symObjAddr: 0x2D94C, symBinAddr: 0x100035810, symSize: 0x40 }
  - { offsetInCU: 0x58D10, offset: 0x6D69D, size: 0x8, addend: 0x0, symName: __ZNSt3__122__compressed_pair_elemIPPN7testing17TestEventListenerELi0ELb0EEC2B7v160006IDnvEEOT_, symObjAddr: 0x2D98C, symBinAddr: 0x100035850, symSize: 0x1C }
  - { offsetInCU: 0x58D52, offset: 0x6D6DF, size: 0x8, addend: 0x0, symName: __ZNSt3__122__compressed_pair_elemINS_9allocatorIPN7testing17TestEventListenerEEELi1ELb1EEC2B7v160006ENS_18__default_init_tagE, symObjAddr: 0x2D9A8, symBinAddr: 0x10003586C, symSize: 0x2C }
  - { offsetInCU: 0x58D87, offset: 0x6D714, size: 0x8, addend: 0x0, symName: __ZNSt3__19allocatorIPN7testing17TestEventListenerEEC2B7v160006Ev, symObjAddr: 0x2D9D4, symBinAddr: 0x100035898, symSize: 0x2C }
  - { offsetInCU: 0x58DB1, offset: 0x6D73E, size: 0x8, addend: 0x0, symName: __ZNSt3__116__non_trivial_ifILb1ENS_9allocatorIPN7testing17TestEventListenerEEEEC2B7v160006Ev, symObjAddr: 0x2DA00, symBinAddr: 0x1000358C4, symSize: 0x14 }
  - { offsetInCU: 0x58DDB, offset: 0x6D768, size: 0x8, addend: 0x0, symName: __ZN7testing8internal11ThreadLocalINSt3__16vectorINS0_9TraceInfoENS2_9allocatorIS4_EEEEE7pointerEv, symObjAddr: 0x2DA14, symBinAddr: 0x1000358D8, symSize: 0x24 }
  - { offsetInCU: 0x58E01, offset: 0x6D78E, size: 0x8, addend: 0x0, symName: __ZNK7testing8internal11ThreadLocalINSt3__16vectorINS0_9TraceInfoENS2_9allocatorIS4_EEEEE16GetOrCreateValueEv, symObjAddr: 0x2DA38, symBinAddr: 0x1000358FC, symSize: 0x144 }
  - { offsetInCU: 0x58E69, offset: 0x6D7F6, size: 0x8, addend: 0x0, symName: __ZN7testing8internal11ThreadLocalINSt3__16vectorINS0_9TraceInfoENS2_9allocatorIS4_EEEEE11ValueHolder7pointerEv, symObjAddr: 0x2DC8C, symBinAddr: 0x100035B50, symSize: 0x18 }
  - { offsetInCU: 0x58E8F, offset: 0x6D81C, size: 0x8, addend: 0x0, symName: __ZNKSt3__110unique_ptrIN7testing8internal11ThreadLocalINS_6vectorINS2_9TraceInfoENS_9allocatorIS5_EEEEE18ValueHolderFactoryENS_14default_deleteISA_EEEptB7v160006Ev, symObjAddr: 0x2DCA4, symBinAddr: 0x100035B68, symSize: 0x28 }
  - { offsetInCU: 0x58EEB, offset: 0x6D878, size: 0x8, addend: 0x0, symName: __ZNKSt9type_infoeqB7v160006ERKS_, symObjAddr: 0x2DCCC, symBinAddr: 0x100035B90, symSize: 0xDC }
  - { offsetInCU: 0x58F89, offset: 0x6D916, size: 0x8, addend: 0x0, symName: __ZNSt27__type_info_implementations30__non_unique_arm_rtti_bit_impl21__is_type_name_uniqueB7v160006Em, symObjAddr: 0x2DDA8, symBinAddr: 0x100035C6C, symSize: 0x20 }
  - { offsetInCU: 0x58FAD, offset: 0x6D93A, size: 0x8, addend: 0x0, symName: __ZNKSt3__117__compressed_pairIPN7testing8internal11ThreadLocalINS_6vectorINS2_9TraceInfoENS_9allocatorIS5_EEEEE18ValueHolderFactoryENS_14default_deleteISA_EEE5firstB7v160006Ev, symObjAddr: 0x2DDC8, symBinAddr: 0x100035C8C, symSize: 0x24 }
  - { offsetInCU: 0x58FD3, offset: 0x6D960, size: 0x8, addend: 0x0, symName: __ZNKSt3__122__compressed_pair_elemIPN7testing8internal11ThreadLocalINS_6vectorINS2_9TraceInfoENS_9allocatorIS5_EEEEE18ValueHolderFactoryELi0ELb0EE5__getB7v160006Ev, symObjAddr: 0x2DDEC, symBinAddr: 0x100035CB0, symSize: 0x14 }
  - { offsetInCU: 0x58FF9, offset: 0x6D986, size: 0x8, addend: 0x0, symName: __ZN7testing14TestPartResultC2ENS0_4TypeEPKciS3_, symObjAddr: 0x2DE00, symBinAddr: 0x100035CC4, symSize: 0x100 }
  - { offsetInCU: 0x5905B, offset: 0x6D9E8, size: 0x8, addend: 0x0, symName: __ZN7testing8internal26GoogleTestFailureExceptionD2Ev, symObjAddr: 0x2DF00, symBinAddr: 0x100035DC4, symSize: 0x2C }
  - { offsetInCU: 0x59087, offset: 0x6DA14, size: 0x8, addend: 0x0, symName: __ZN7testing14TestPartResultD2Ev, symObjAddr: 0x2DF2C, symBinAddr: 0x100035DF0, symSize: 0x48 }
  - { offsetInCU: 0x590B3, offset: 0x6DA40, size: 0x8, addend: 0x0, symName: __ZN7testing12TestPropertyC2ERKNSt3__112basic_stringIcNS1_11char_traitsIcEENS1_9allocatorIcEEEES9_, symObjAddr: 0x2DF74, symBinAddr: 0x100035E38, symSize: 0x70 }
  - { offsetInCU: 0x590FB, offset: 0x6DA88, size: 0x8, addend: 0x0, symName: __ZN7testing12TestPropertyD2Ev, symObjAddr: 0x2DFE4, symBinAddr: 0x100035EA8, symSize: 0x38 }
  - { offsetInCU: 0x59128, offset: 0x6DAB5, size: 0x8, addend: 0x0, symName: __ZN7testing8internal23ScopedPrematureExitFileC2EPKc, symObjAddr: 0x2E01C, symBinAddr: 0x100035EE0, symSize: 0xEC }
  - { offsetInCU: 0x5917F, offset: 0x6DB0C, size: 0x8, addend: 0x0, symName: __ZN7testing8internal23ScopedPrematureExitFileD2Ev, symObjAddr: 0x2E108, symBinAddr: 0x100035FCC, symSize: 0xF8 }
  - { offsetInCU: 0x591BE, offset: 0x6DB4B, size: 0x8, addend: 0x0, symName: __ZN7testing8internal29ParameterizedTestCaseRegistryC2Ev, symObjAddr: 0x2E200, symBinAddr: 0x1000360C4, symSize: 0x2C }
  - { offsetInCU: 0x591E8, offset: 0x6DB75, size: 0x8, addend: 0x0, symName: __ZNSt3__16vectorIPN7testing8internal29ParameterizedTestCaseInfoBaseENS_9allocatorIS4_EEEC1B7v160006Ev, symObjAddr: 0x2E22C, symBinAddr: 0x1000360F0, symSize: 0x2C }
  - { offsetInCU: 0x59212, offset: 0x6DB9F, size: 0x8, addend: 0x0, symName: __ZNSt3__16vectorIPN7testing8internal29ParameterizedTestCaseInfoBaseENS_9allocatorIS4_EEEC2B7v160006Ev, symObjAddr: 0x2E258, symBinAddr: 0x10003611C, symSize: 0x58 }
  - { offsetInCU: 0x5923C, offset: 0x6DBC9, size: 0x8, addend: 0x0, symName: __ZNSt3__117__compressed_pairIPPN7testing8internal29ParameterizedTestCaseInfoBaseENS_9allocatorIS4_EEEC1B7v160006IDnNS_18__default_init_tagEEEOT_OT0_, symObjAddr: 0x2E2B0, symBinAddr: 0x100036174, symSize: 0x3C }
  - { offsetInCU: 0x59294, offset: 0x6DC21, size: 0x8, addend: 0x0, symName: __ZNSt3__117__compressed_pairIPPN7testing8internal29ParameterizedTestCaseInfoBaseENS_9allocatorIS4_EEEC2B7v160006IDnNS_18__default_init_tagEEEOT_OT0_, symObjAddr: 0x2E2FC, symBinAddr: 0x1000361C0, symSize: 0x40 }
  - { offsetInCU: 0x592EC, offset: 0x6DC79, size: 0x8, addend: 0x0, symName: __ZNSt3__122__compressed_pair_elemIPPN7testing8internal29ParameterizedTestCaseInfoBaseELi0ELb0EEC2B7v160006IDnvEEOT_, symObjAddr: 0x2E33C, symBinAddr: 0x100036200, symSize: 0x1C }
  - { offsetInCU: 0x5932E, offset: 0x6DCBB, size: 0x8, addend: 0x0, symName: __ZNSt3__122__compressed_pair_elemINS_9allocatorIPN7testing8internal29ParameterizedTestCaseInfoBaseEEELi1ELb1EEC2B7v160006ENS_18__default_init_tagE, symObjAddr: 0x2E358, symBinAddr: 0x10003621C, symSize: 0x2C }
  - { offsetInCU: 0x59363, offset: 0x6DCF0, size: 0x8, addend: 0x0, symName: __ZNSt3__19allocatorIPN7testing8internal29ParameterizedTestCaseInfoBaseEEC2B7v160006Ev, symObjAddr: 0x2E384, symBinAddr: 0x100036248, symSize: 0x2C }
  - { offsetInCU: 0x5938D, offset: 0x6DD1A, size: 0x8, addend: 0x0, symName: __ZNSt3__116__non_trivial_ifILb1ENS_9allocatorIPN7testing8internal29ParameterizedTestCaseInfoBaseEEEEC2B7v160006Ev, symObjAddr: 0x2E3B0, symBinAddr: 0x100036274, symSize: 0x14 }
  - { offsetInCU: 0x593B7, offset: 0x6DD44, size: 0x8, addend: 0x0, symName: __ZN7testing8internal6RandomC2Ej, symObjAddr: 0x2E3C4, symBinAddr: 0x100036288, symSize: 0x20 }
  - { offsetInCU: 0x593F0, offset: 0x6DD7D, size: 0x8, addend: 0x0, symName: __ZNSt3__110unique_ptrIN7testing8internal24InternalRunDeathTestFlagENS_14default_deleteIS3_EEEC2B7v160006ILb1EvEEv, symObjAddr: 0x2E3E4, symBinAddr: 0x1000362A8, symSize: 0x3C }
  - { offsetInCU: 0x5942A, offset: 0x6DDB7, size: 0x8, addend: 0x0, symName: __ZNSt3__117__compressed_pairIPN7testing8internal24InternalRunDeathTestFlagENS_14default_deleteIS3_EEEC1B7v160006INS_16__value_init_tagES9_EEOT_OT0_, symObjAddr: 0x2E420, symBinAddr: 0x1000362E4, symSize: 0x3C }
  - { offsetInCU: 0x59482, offset: 0x6DE0F, size: 0x8, addend: 0x0, symName: __ZNSt3__117__compressed_pairIPN7testing8internal24InternalRunDeathTestFlagENS_14default_deleteIS3_EEEC2B7v160006INS_16__value_init_tagES9_EEOT_OT0_, symObjAddr: 0x2E45C, symBinAddr: 0x100036320, symSize: 0x3C }
  - { offsetInCU: 0x594DA, offset: 0x6DE67, size: 0x8, addend: 0x0, symName: __ZNSt3__122__compressed_pair_elemIPN7testing8internal24InternalRunDeathTestFlagELi0ELb0EEC2B7v160006ENS_16__value_init_tagE, symObjAddr: 0x2E498, symBinAddr: 0x10003635C, symSize: 0x18 }
  - { offsetInCU: 0x5950F, offset: 0x6DE9C, size: 0x8, addend: 0x0, symName: __ZNSt3__122__compressed_pair_elemINS_14default_deleteIN7testing8internal24InternalRunDeathTestFlagEEELi1ELb1EEC2B7v160006ENS_16__value_init_tagE, symObjAddr: 0x2E4B0, symBinAddr: 0x100036374, symSize: 0x14 }
  - { offsetInCU: 0x59544, offset: 0x6DED1, size: 0x8, addend: 0x0, symName: __ZN7testing8internal23DefaultDeathTestFactoryC2Ev, symObjAddr: 0x2E4C4, symBinAddr: 0x100036388, symSize: 0x44 }
  - { offsetInCU: 0x59570, offset: 0x6DEFD, size: 0x8, addend: 0x0, symName: __ZN7testing8internal16DeathTestFactoryC2Ev, symObjAddr: 0x2E508, symBinAddr: 0x1000363CC, symSize: 0x24 }
  - { offsetInCU: 0x5959C, offset: 0x6DF29, size: 0x8, addend: 0x0, symName: __ZN7testing8internal16DeathTestFactoryD1Ev, symObjAddr: 0x2E52C, symBinAddr: 0x1000363F0, symSize: 0x14 }
  - { offsetInCU: 0x595C6, offset: 0x6DF53, size: 0x8, addend: 0x0, symName: __ZN7testing8internal16DeathTestFactoryD0Ev, symObjAddr: 0x2E540, symBinAddr: 0x100036404, symSize: 0xC }
  - { offsetInCU: 0x595F0, offset: 0x6DF7D, size: 0x8, addend: 0x0, symName: __ZN7testing8internal27PrettyUnitTestResultPrinterC2Ev, symObjAddr: 0x2E54C, symBinAddr: 0x100036410, symSize: 0x44 }
  - { offsetInCU: 0x5961A, offset: 0x6DFA7, size: 0x8, addend: 0x0, symName: __ZN7testing8internal29ParameterizedTestCaseRegistryD2Ev, symObjAddr: 0x2E590, symBinAddr: 0x100036454, symSize: 0xA4 }
  - { offsetInCU: 0x59662, offset: 0x6DFEF, size: 0x8, addend: 0x0, symName: __ZNSt3__16vectorIPN7testing8internal29ParameterizedTestCaseInfoBaseENS_9allocatorIS4_EEED1B7v160006Ev, symObjAddr: 0x2E634, symBinAddr: 0x1000364F8, symSize: 0x2C }
  - { offsetInCU: 0x5968C, offset: 0x6E019, size: 0x8, addend: 0x0, symName: __ZNSt3__16vectorIPN7testing8internal29ParameterizedTestCaseInfoBaseENS_9allocatorIS4_EEED2B7v160006Ev, symObjAddr: 0x2E660, symBinAddr: 0x100036524, symSize: 0x44 }
  - { offsetInCU: 0x596B6, offset: 0x6E043, size: 0x8, addend: 0x0, symName: __ZNSt3__16vectorIPN7testing8internal29ParameterizedTestCaseInfoBaseENS_9allocatorIS4_EEE16__destroy_vectorC1ERS7_, symObjAddr: 0x2E6A4, symBinAddr: 0x100036568, symSize: 0x34 }
  - { offsetInCU: 0x596EF, offset: 0x6E07C, size: 0x8, addend: 0x0, symName: __ZNSt3__16vectorIPN7testing8internal29ParameterizedTestCaseInfoBaseENS_9allocatorIS4_EEE16__destroy_vectorclB7v160006Ev, symObjAddr: 0x2E6D8, symBinAddr: 0x10003659C, symSize: 0x9C }
  - { offsetInCU: 0x59715, offset: 0x6E0A2, size: 0x8, addend: 0x0, symName: __ZNSt3__16vectorIPN7testing8internal29ParameterizedTestCaseInfoBaseENS_9allocatorIS4_EEE16__destroy_vectorC2ERS7_, symObjAddr: 0x2E774, symBinAddr: 0x100036638, symSize: 0x20 }
  - { offsetInCU: 0x5974E, offset: 0x6E0DB, size: 0x8, addend: 0x0, symName: __ZNKSt3__16vectorIPN7testing8internal29ParameterizedTestCaseInfoBaseENS_9allocatorIS4_EEE17__annotate_deleteB7v160006Ev, symObjAddr: 0x2E794, symBinAddr: 0x100036658, symSize: 0xB8 }
  - { offsetInCU: 0x59774, offset: 0x6E101, size: 0x8, addend: 0x0, symName: __ZNSt3__16vectorIPN7testing8internal29ParameterizedTestCaseInfoBaseENS_9allocatorIS4_EEE7__clearB7v160006Ev, symObjAddr: 0x2E85C, symBinAddr: 0x100036720, symSize: 0x28 }
  - { offsetInCU: 0x5979A, offset: 0x6E127, size: 0x8, addend: 0x0, symName: __ZNSt3__116allocator_traitsINS_9allocatorIPN7testing8internal29ParameterizedTestCaseInfoBaseEEEE10deallocateB7v160006ERS6_PS5_m, symObjAddr: 0x2E884, symBinAddr: 0x100036748, symSize: 0x34 }
  - { offsetInCU: 0x597DC, offset: 0x6E169, size: 0x8, addend: 0x0, symName: __ZNSt3__16vectorIPN7testing8internal29ParameterizedTestCaseInfoBaseENS_9allocatorIS4_EEE7__allocB7v160006Ev, symObjAddr: 0x2E8B8, symBinAddr: 0x10003677C, symSize: 0x28 }
  - { offsetInCU: 0x59802, offset: 0x6E18F, size: 0x8, addend: 0x0, symName: __ZNKSt3__16vectorIPN7testing8internal29ParameterizedTestCaseInfoBaseENS_9allocatorIS4_EEE8capacityB7v160006Ev, symObjAddr: 0x2E8E0, symBinAddr: 0x1000367A4, symSize: 0x40 }
  - { offsetInCU: 0x59828, offset: 0x6E1B5, size: 0x8, addend: 0x0, symName: __ZNKSt3__16vectorIPN7testing8internal29ParameterizedTestCaseInfoBaseENS_9allocatorIS4_EEE31__annotate_contiguous_containerB7v160006EPKvS9_S9_S9_, symObjAddr: 0x2E920, symBinAddr: 0x1000367E4, symSize: 0x20 }
  - { offsetInCU: 0x5987E, offset: 0x6E20B, size: 0x8, addend: 0x0, symName: __ZNKSt3__16vectorIPN7testing8internal29ParameterizedTestCaseInfoBaseENS_9allocatorIS4_EEE4dataB7v160006Ev, symObjAddr: 0x2E940, symBinAddr: 0x100036804, symSize: 0x28 }
  - { offsetInCU: 0x598A4, offset: 0x6E231, size: 0x8, addend: 0x0, symName: __ZNKSt3__16vectorIPN7testing8internal29ParameterizedTestCaseInfoBaseENS_9allocatorIS4_EEE4sizeB7v160006Ev, symObjAddr: 0x2E968, symBinAddr: 0x10003682C, symSize: 0x28 }
  - { offsetInCU: 0x598CA, offset: 0x6E257, size: 0x8, addend: 0x0, symName: __ZNSt3__16vectorIPN7testing8internal29ParameterizedTestCaseInfoBaseENS_9allocatorIS4_EEE22__base_destruct_at_endB7v160006EPS4_, symObjAddr: 0x2E9A4, symBinAddr: 0x100036868, symSize: 0x8C }
  - { offsetInCU: 0x5990E, offset: 0x6E29B, size: 0x8, addend: 0x0, symName: __ZNSt3__116allocator_traitsINS_9allocatorIPN7testing8internal29ParameterizedTestCaseInfoBaseEEEE7destroyB7v160006IS5_vEEvRS6_PT_, symObjAddr: 0x2EA30, symBinAddr: 0x1000368F4, symSize: 0x2C }
  - { offsetInCU: 0x5994B, offset: 0x6E2D8, size: 0x8, addend: 0x0, symName: __ZNSt3__19allocatorIPN7testing8internal29ParameterizedTestCaseInfoBaseEE7destroyB7v160006EPS4_, symObjAddr: 0x2EA5C, symBinAddr: 0x100036920, symSize: 0x14 }
  - { offsetInCU: 0x5997F, offset: 0x6E30C, size: 0x8, addend: 0x0, symName: __ZNSt3__19allocatorIPN7testing8internal29ParameterizedTestCaseInfoBaseEE10deallocateB7v160006EPS4_m, symObjAddr: 0x2EA70, symBinAddr: 0x100036934, symSize: 0x40 }
  - { offsetInCU: 0x599C1, offset: 0x6E34E, size: 0x8, addend: 0x0, symName: __ZNSt3__117__compressed_pairIPPN7testing8internal29ParameterizedTestCaseInfoBaseENS_9allocatorIS4_EEE6secondB7v160006Ev, symObjAddr: 0x2EAB0, symBinAddr: 0x100036974, symSize: 0x24 }
  - { offsetInCU: 0x599E7, offset: 0x6E374, size: 0x8, addend: 0x0, symName: __ZNSt3__122__compressed_pair_elemINS_9allocatorIPN7testing8internal29ParameterizedTestCaseInfoBaseEEELi1ELb1EE5__getB7v160006Ev, symObjAddr: 0x2EAD4, symBinAddr: 0x100036998, symSize: 0x14 }
  - { offsetInCU: 0x59A0D, offset: 0x6E39A, size: 0x8, addend: 0x0, symName: __ZNKSt3__16vectorIPN7testing8internal29ParameterizedTestCaseInfoBaseENS_9allocatorIS4_EEE9__end_capB7v160006Ev, symObjAddr: 0x2EAE8, symBinAddr: 0x1000369AC, symSize: 0x28 }
